ARM GAS  C:\Users\Asus\AppData\Local\Temp\ccsjed62.s 			page 1


   1              		.syntax unified
   2              		.cpu cortex-m3
   3              		.fpu softvfp
   4              		.eabi_attribute 20, 1
   5              		.eabi_attribute 21, 1
   6              		.eabi_attribute 23, 3
   7              		.eabi_attribute 24, 1
   8              		.eabi_attribute 25, 1
   9              		.eabi_attribute 26, 1
  10              		.eabi_attribute 30, 1
  11              		.eabi_attribute 34, 1
  12              		.eabi_attribute 18, 4
  13              		.thumb
  14              		.syntax unified
  15              		.file	"ErikaOS_1_ee_rq_exchg.c"
  16              		.text
  17              	.Ltext0:
  18              		.cfi_sections	.debug_frame
  19              		.section	.text.EE_rq2stk_exchange,"ax",%progbits
  20              		.align	2
  21              		.global	EE_rq2stk_exchange
  22              		.thumb
  23              		.thumb_func
  24              		.type	EE_rq2stk_exchange, %function
  25              	EE_rq2stk_exchange:
  26              	.LFB70:
  27              		.file 1 "Generated_Source\\PSoC5\\ErikaOS_1_ee_rq_exchg.c"
   1:Generated_Source\PSoC5/ErikaOS_1_ee_rq_exchg.c **** /* ###*B*###
   2:Generated_Source\PSoC5/ErikaOS_1_ee_rq_exchg.c ****  * ERIKA Enterprise - a tiny RTOS for small microcontrollers
   3:Generated_Source\PSoC5/ErikaOS_1_ee_rq_exchg.c ****  *
   4:Generated_Source\PSoC5/ErikaOS_1_ee_rq_exchg.c ****  * Copyright (C) 2002-2008  Evidence Srl
   5:Generated_Source\PSoC5/ErikaOS_1_ee_rq_exchg.c ****  *
   6:Generated_Source\PSoC5/ErikaOS_1_ee_rq_exchg.c ****  * This file is part of ERIKA Enterprise.
   7:Generated_Source\PSoC5/ErikaOS_1_ee_rq_exchg.c ****  *
   8:Generated_Source\PSoC5/ErikaOS_1_ee_rq_exchg.c ****  * ERIKA Enterprise is free software; you can redistribute it
   9:Generated_Source\PSoC5/ErikaOS_1_ee_rq_exchg.c ****  * and/or modify it under the terms of the GNU General Public License
  10:Generated_Source\PSoC5/ErikaOS_1_ee_rq_exchg.c ****  * version 2 as published by the Free Software Foundation, 
  11:Generated_Source\PSoC5/ErikaOS_1_ee_rq_exchg.c ****  * (with a special exception described below).
  12:Generated_Source\PSoC5/ErikaOS_1_ee_rq_exchg.c ****  *
  13:Generated_Source\PSoC5/ErikaOS_1_ee_rq_exchg.c ****  * Linking this code statically or dynamically with other modules is
  14:Generated_Source\PSoC5/ErikaOS_1_ee_rq_exchg.c ****  * making a combined work based on this code.  Thus, the terms and
  15:Generated_Source\PSoC5/ErikaOS_1_ee_rq_exchg.c ****  * conditions of the GNU General Public License cover the whole
  16:Generated_Source\PSoC5/ErikaOS_1_ee_rq_exchg.c ****  * combination.
  17:Generated_Source\PSoC5/ErikaOS_1_ee_rq_exchg.c ****  *
  18:Generated_Source\PSoC5/ErikaOS_1_ee_rq_exchg.c ****  * As a special exception, the copyright holders of this library give you
  19:Generated_Source\PSoC5/ErikaOS_1_ee_rq_exchg.c ****  * permission to link this code with independent modules to produce an
  20:Generated_Source\PSoC5/ErikaOS_1_ee_rq_exchg.c ****  * executable, regardless of the license terms of these independent
  21:Generated_Source\PSoC5/ErikaOS_1_ee_rq_exchg.c ****  * modules, and to copy and distribute the resulting executable under
  22:Generated_Source\PSoC5/ErikaOS_1_ee_rq_exchg.c ****  * terms of your choice, provided that you also meet, for each linked
  23:Generated_Source\PSoC5/ErikaOS_1_ee_rq_exchg.c ****  * independent module, the terms and conditions of the license of that
  24:Generated_Source\PSoC5/ErikaOS_1_ee_rq_exchg.c ****  * module.  An independent module is a module which is not derived from
  25:Generated_Source\PSoC5/ErikaOS_1_ee_rq_exchg.c ****  * or based on this library.  If you modify this code, you may extend
  26:Generated_Source\PSoC5/ErikaOS_1_ee_rq_exchg.c ****  * this exception to your version of the code, but you are not
  27:Generated_Source\PSoC5/ErikaOS_1_ee_rq_exchg.c ****  * obligated to do so.  If you do not wish to do so, delete this
  28:Generated_Source\PSoC5/ErikaOS_1_ee_rq_exchg.c ****  * exception statement from your version.
  29:Generated_Source\PSoC5/ErikaOS_1_ee_rq_exchg.c ****  *
  30:Generated_Source\PSoC5/ErikaOS_1_ee_rq_exchg.c ****  * ERIKA Enterprise is distributed in the hope that it will be
ARM GAS  C:\Users\Asus\AppData\Local\Temp\ccsjed62.s 			page 2


  31:Generated_Source\PSoC5/ErikaOS_1_ee_rq_exchg.c ****  * useful, but WITHOUT ANY WARRANTY; without even the implied warranty
  32:Generated_Source\PSoC5/ErikaOS_1_ee_rq_exchg.c ****  * of MERCHANTABILITY or FITNESS FOR A PARTICULAR PURPOSE.  See the
  33:Generated_Source\PSoC5/ErikaOS_1_ee_rq_exchg.c ****  * GNU General Public License version 2 for more details.
  34:Generated_Source\PSoC5/ErikaOS_1_ee_rq_exchg.c ****  *
  35:Generated_Source\PSoC5/ErikaOS_1_ee_rq_exchg.c ****  * You should have received a copy of the GNU General Public License
  36:Generated_Source\PSoC5/ErikaOS_1_ee_rq_exchg.c ****  * version 2 along with ERIKA Enterprise; if not, write to the
  37:Generated_Source\PSoC5/ErikaOS_1_ee_rq_exchg.c ****  * Free Software Foundation, Inc., 51 Franklin Street, Fifth Floor,
  38:Generated_Source\PSoC5/ErikaOS_1_ee_rq_exchg.c ****  * Boston, MA 02110-1301 USA.
  39:Generated_Source\PSoC5/ErikaOS_1_ee_rq_exchg.c ****  * ###*E*### */
  40:Generated_Source\PSoC5/ErikaOS_1_ee_rq_exchg.c **** 
  41:Generated_Source\PSoC5/ErikaOS_1_ee_rq_exchg.c **** /*
  42:Generated_Source\PSoC5/ErikaOS_1_ee_rq_exchg.c ****  * Author: 2002-2004 Paolo Gai
  43:Generated_Source\PSoC5/ErikaOS_1_ee_rq_exchg.c ****  * CVS: $Id: ee_rq_exchg.c,v 1.1 2005/07/16 12:23:42 pj Exp $
  44:Generated_Source\PSoC5/ErikaOS_1_ee_rq_exchg.c ****  */
  45:Generated_Source\PSoC5/ErikaOS_1_ee_rq_exchg.c **** 
  46:Generated_Source\PSoC5/ErikaOS_1_ee_rq_exchg.c **** /*
  47:Generated_Source\PSoC5/ErikaOS_1_ee_rq_exchg.c ****  * PSoC Port and API Generation
  48:Generated_Source\PSoC5/ErikaOS_1_ee_rq_exchg.c ****  * Carlos Fernando Meier Martinez
  49:Generated_Source\PSoC5/ErikaOS_1_ee_rq_exchg.c ****  * Hochschule Darmstadt, Germany. 2017.
  50:Generated_Source\PSoC5/ErikaOS_1_ee_rq_exchg.c ****  */
  51:Generated_Source\PSoC5/ErikaOS_1_ee_rq_exchg.c **** 
  52:Generated_Source\PSoC5/ErikaOS_1_ee_rq_exchg.c **** #include "ErikaOS_1_ee_internal.inc"
  53:Generated_Source\PSoC5/ErikaOS_1_ee_rq_exchg.c **** 
  54:Generated_Source\PSoC5/ErikaOS_1_ee_rq_exchg.c **** #ifndef __PRIVATE_RQ2STK_EXCHANGE__
  55:Generated_Source\PSoC5/ErikaOS_1_ee_rq_exchg.c **** 
  56:Generated_Source\PSoC5/ErikaOS_1_ee_rq_exchg.c **** #if (defined(__OO_BCC1__)) || (defined(__OO_ECC1__))
  57:Generated_Source\PSoC5/ErikaOS_1_ee_rq_exchg.c **** EE_TID EE_rq2stk_exchange(void)
  58:Generated_Source\PSoC5/ErikaOS_1_ee_rq_exchg.c **** {
  59:Generated_Source\PSoC5/ErikaOS_1_ee_rq_exchg.c ****   EE_TID temp;
  60:Generated_Source\PSoC5/ErikaOS_1_ee_rq_exchg.c **** 
  61:Generated_Source\PSoC5/ErikaOS_1_ee_rq_exchg.c ****   temp = EE_rq_first;
  62:Generated_Source\PSoC5/ErikaOS_1_ee_rq_exchg.c ****   
  63:Generated_Source\PSoC5/ErikaOS_1_ee_rq_exchg.c ****   /* extract the first task from the ready queue */
  64:Generated_Source\PSoC5/ErikaOS_1_ee_rq_exchg.c ****   EE_rq_first = EE_th_next[temp]; 
  65:Generated_Source\PSoC5/ErikaOS_1_ee_rq_exchg.c ****   /* insert the extracted task on the topo of the stack */
  66:Generated_Source\PSoC5/ErikaOS_1_ee_rq_exchg.c ****   EE_th_next[temp] = EE_stkfirst;
  67:Generated_Source\PSoC5/ErikaOS_1_ee_rq_exchg.c ****   EE_stkfirst = temp;
  68:Generated_Source\PSoC5/ErikaOS_1_ee_rq_exchg.c **** 
  69:Generated_Source\PSoC5/ErikaOS_1_ee_rq_exchg.c ****   return temp;
  70:Generated_Source\PSoC5/ErikaOS_1_ee_rq_exchg.c **** }
  71:Generated_Source\PSoC5/ErikaOS_1_ee_rq_exchg.c **** #endif
  72:Generated_Source\PSoC5/ErikaOS_1_ee_rq_exchg.c **** 
  73:Generated_Source\PSoC5/ErikaOS_1_ee_rq_exchg.c **** #if (defined(__OO_BCC2__)) || (defined(__OO_ECC2__))
  74:Generated_Source\PSoC5/ErikaOS_1_ee_rq_exchg.c **** EE_TID EE_rq2stk_exchange(void)
  75:Generated_Source\PSoC5/ErikaOS_1_ee_rq_exchg.c **** {
  28              		.loc 1 75 0
  29              		.cfi_startproc
  30              		@ args = 0, pretend = 0, frame = 0
  31              		@ frame_needed = 0, uses_anonymous_args = 0
  32              		@ link register save eliminated.
  33 0000 F0B4     		push	{r4, r5, r6, r7}
  34              		.cfi_def_cfa_offset 16
  35              		.cfi_offset 4, -16
  36              		.cfi_offset 5, -12
  37              		.cfi_offset 6, -8
  38              		.cfi_offset 7, -4
  76:Generated_Source\PSoC5/ErikaOS_1_ee_rq_exchg.c ****   EE_INT8 x;    /* the first non-empty queue */
ARM GAS  C:\Users\Asus\AppData\Local\Temp\ccsjed62.s 			page 3


  77:Generated_Source\PSoC5/ErikaOS_1_ee_rq_exchg.c ****   EE_TID temp;   /* the TID to be inserted in the top of the stack */
  78:Generated_Source\PSoC5/ErikaOS_1_ee_rq_exchg.c ****   EE_TYPEPAIR y; /* used to free the descriptor */
  79:Generated_Source\PSoC5/ErikaOS_1_ee_rq_exchg.c **** 
  80:Generated_Source\PSoC5/ErikaOS_1_ee_rq_exchg.c **** #if defined(__OO_ECC2__)
  81:Generated_Source\PSoC5/ErikaOS_1_ee_rq_exchg.c ****   /* lookup at bits 15-9 */
  82:Generated_Source\PSoC5/ErikaOS_1_ee_rq_exchg.c ****   x = EE_rq_lookup[(EE_rq_bitmask & 0xFF00U) >> 8];
  39              		.loc 1 82 0
  40 0002 184B     		ldr	r3, .L6
  41 0004 1988     		ldrh	r1, [r3]
  42 0006 0B0A     		lsrs	r3, r1, #8
  43 0008 174A     		ldr	r2, .L6+4
  44 000a D356     		ldrsb	r3, [r2, r3]
  45              	.LVL0:
  83:Generated_Source\PSoC5/ErikaOS_1_ee_rq_exchg.c ****   if (x == (EE_INT8)-1) {
  46              		.loc 1 83 0
  47 000c B3F1FF3F 		cmp	r3, #-1
  48 0010 01D1     		bne	.L2
  84:Generated_Source\PSoC5/ErikaOS_1_ee_rq_exchg.c ****     x = EE_rq_lookup[EE_rq_bitmask];
  49              		.loc 1 84 0
  50 0012 5356     		ldrsb	r3, [r2, r1]
  51              	.LVL1:
  52 0014 01E0     		b	.L3
  53              	.L2:
  85:Generated_Source\PSoC5/ErikaOS_1_ee_rq_exchg.c ****   } else {
  86:Generated_Source\PSoC5/ErikaOS_1_ee_rq_exchg.c ****     x += (EE_INT8)8;
  54              		.loc 1 86 0
  55 0016 0833     		adds	r3, r3, #8
  56              	.LVL2:
  57 0018 5BB2     		sxtb	r3, r3
  58              	.LVL3:
  59              	.L3:
  87:Generated_Source\PSoC5/ErikaOS_1_ee_rq_exchg.c ****   }
  88:Generated_Source\PSoC5/ErikaOS_1_ee_rq_exchg.c **** #else
  89:Generated_Source\PSoC5/ErikaOS_1_ee_rq_exchg.c ****   x = EE_rq_lookup[EE_rq_bitmask];
  90:Generated_Source\PSoC5/ErikaOS_1_ee_rq_exchg.c **** #endif
  91:Generated_Source\PSoC5/ErikaOS_1_ee_rq_exchg.c **** 
  92:Generated_Source\PSoC5/ErikaOS_1_ee_rq_exchg.c ****   /* now x contains the highest priority non-empty queue number */
  93:Generated_Source\PSoC5/ErikaOS_1_ee_rq_exchg.c **** 
  94:Generated_Source\PSoC5/ErikaOS_1_ee_rq_exchg.c ****   /* get the TID to insert in the stacked queue */
  95:Generated_Source\PSoC5/ErikaOS_1_ee_rq_exchg.c ****   temp = EE_rq_pairs_tid[EE_rq_queues_head[x]];
  60              		.loc 1 95 0
  61 001a 144D     		ldr	r5, .L6+8
  62 001c 55F82320 		ldr	r2, [r5, r3, lsl #2]
  63 0020 1348     		ldr	r0, .L6+12
  64 0022 50F82200 		ldr	r0, [r0, r2, lsl #2]
  65              	.LVL4:
  96:Generated_Source\PSoC5/ErikaOS_1_ee_rq_exchg.c **** 
  97:Generated_Source\PSoC5/ErikaOS_1_ee_rq_exchg.c ****   /* free the descriptor */
  98:Generated_Source\PSoC5/ErikaOS_1_ee_rq_exchg.c ****   y = EE_rq_queues_head[x];
  99:Generated_Source\PSoC5/ErikaOS_1_ee_rq_exchg.c ****   EE_rq_queues_head[x] = EE_rq_pairs_next[EE_rq_queues_head[x]];
  66              		.loc 1 99 0
  67 0026 134E     		ldr	r6, .L6+16
  68 0028 56F82240 		ldr	r4, [r6, r2, lsl #2]
  69 002c 45F82340 		str	r4, [r5, r3, lsl #2]
 100:Generated_Source\PSoC5/ErikaOS_1_ee_rq_exchg.c ****   EE_rq_pairs_next[y] = EE_rq_free;
  70              		.loc 1 100 0
  71 0030 114D     		ldr	r5, .L6+20
ARM GAS  C:\Users\Asus\AppData\Local\Temp\ccsjed62.s 			page 4


  72 0032 2F68     		ldr	r7, [r5]
  73 0034 46F82270 		str	r7, [r6, r2, lsl #2]
 101:Generated_Source\PSoC5/ErikaOS_1_ee_rq_exchg.c ****   EE_rq_free = y;
  74              		.loc 1 101 0
  75 0038 2A60     		str	r2, [r5]
 102:Generated_Source\PSoC5/ErikaOS_1_ee_rq_exchg.c ****   
 103:Generated_Source\PSoC5/ErikaOS_1_ee_rq_exchg.c ****   if (EE_rq_queues_head[x] == (EE_SREG)-1) {
  76              		.loc 1 103 0
  77 003a B4F1FF3F 		cmp	r4, #-1
  78 003e 09D1     		bne	.L4
 104:Generated_Source\PSoC5/ErikaOS_1_ee_rq_exchg.c ****     EE_rq_queues_tail[x] = -1;
  79              		.loc 1 104 0
  80 0040 0E4A     		ldr	r2, .L6+24
  81              	.LVL5:
  82 0042 42F82340 		str	r4, [r2, r3, lsl #2]
 105:Generated_Source\PSoC5/ErikaOS_1_ee_rq_exchg.c ****     /* reset the (x)th bit in the bitfield; casts are for MISRA compliance */
 106:Generated_Source\PSoC5/ErikaOS_1_ee_rq_exchg.c ****     EE_rq_bitmask &= (EE_TYPE_RQ_MASK)~((EE_TYPE_RQ_MASK)((EE_TYPE_RQ_MASK)1U << x));
  83              		.loc 1 106 0
  84 0046 0122     		movs	r2, #1
  85 0048 02FA03F3 		lsl	r3, r2, r3
  86              	.LVL6:
  87 004c 21EA0301 		bic	r1, r1, r3
  88 0050 044B     		ldr	r3, .L6
  89 0052 1980     		strh	r1, [r3]	@ movhi
  90              	.L4:
 107:Generated_Source\PSoC5/ErikaOS_1_ee_rq_exchg.c ****   }
 108:Generated_Source\PSoC5/ErikaOS_1_ee_rq_exchg.c **** 
 109:Generated_Source\PSoC5/ErikaOS_1_ee_rq_exchg.c ****   /* insert the extracted task on the top of the stack */
 110:Generated_Source\PSoC5/ErikaOS_1_ee_rq_exchg.c ****   EE_th_next[temp] = EE_stkfirst;
  91              		.loc 1 110 0
  92 0054 0A4B     		ldr	r3, .L6+28
  93 0056 1968     		ldr	r1, [r3]
  94 0058 0A4A     		ldr	r2, .L6+32
  95 005a 42F82010 		str	r1, [r2, r0, lsl #2]
 111:Generated_Source\PSoC5/ErikaOS_1_ee_rq_exchg.c ****   EE_stkfirst = temp;
  96              		.loc 1 111 0
  97 005e 1860     		str	r0, [r3]
 112:Generated_Source\PSoC5/ErikaOS_1_ee_rq_exchg.c **** 
 113:Generated_Source\PSoC5/ErikaOS_1_ee_rq_exchg.c ****   return temp;
 114:Generated_Source\PSoC5/ErikaOS_1_ee_rq_exchg.c **** }
  98              		.loc 1 114 0
  99 0060 F0BC     		pop	{r4, r5, r6, r7}
 100              		.cfi_restore 7
 101              		.cfi_restore 6
 102              		.cfi_restore 5
 103              		.cfi_restore 4
 104              		.cfi_def_cfa_offset 0
 105              	.LVL7:
 106 0062 7047     		bx	lr
 107              	.L7:
 108              		.align	2
 109              	.L6:
 110 0064 00000000 		.word	EE_rq_bitmask
 111 0068 00000000 		.word	EE_rq_lookup
 112 006c 00000000 		.word	EE_rq_queues_head
 113 0070 00000000 		.word	EE_rq_pairs_tid
 114 0074 00000000 		.word	EE_rq_pairs_next
ARM GAS  C:\Users\Asus\AppData\Local\Temp\ccsjed62.s 			page 5


 115 0078 00000000 		.word	EE_rq_free
 116 007c 00000000 		.word	EE_rq_queues_tail
 117 0080 00000000 		.word	EE_stkfirst
 118 0084 00000000 		.word	EE_th_next
 119              		.cfi_endproc
 120              	.LFE70:
 121              		.size	EE_rq2stk_exchange, .-EE_rq2stk_exchange
 122              		.text
 123              	.Letext0:
 124              		.file 2 "Generated_Source\\PSoC5\\ErikaOS_1_common_ee_types.inc"
 125              		.file 3 "Generated_Source\\PSoC5\\ErikaOS_1_cortex_mx_ee_cpu.inc"
 126              		.file 4 "Generated_Source\\PSoC5\\ErikaOS_1_ee_oo_common.inc"
 127              		.file 5 "Generated_Source\\PSoC5\\ErikaOS_1_common_ee_primitives.inc"
 128              		.file 6 "Generated_Source\\PSoC5\\ErikaOS_1_cortex_mx_ee_context.inc"
 129              		.file 7 "Generated_Source\\PSoC5\\ErikaOS_1_ee_oo_intfunc.inc"
 130              		.file 8 "Generated_Source\\PSoC5\\ErikaOS_1_ee_oo_internal.inc"