ARM GAS  C:\Users\Asus\AppData\Local\Temp\ccDAHDPn.s 			page 1


   1              		.syntax unified
   2              		.cpu cortex-m3
   3              		.fpu softvfp
   4              		.eabi_attribute 20, 1
   5              		.eabi_attribute 21, 1
   6              		.eabi_attribute 23, 3
   7              		.eabi_attribute 24, 1
   8              		.eabi_attribute 25, 1
   9              		.eabi_attribute 26, 1
  10              		.eabi_attribute 30, 1
  11              		.eabi_attribute 34, 1
  12              		.eabi_attribute 18, 4
  13              		.thumb
  14              		.syntax unified
  15              		.file	"ErikaOS_1_ee_schedule.c"
  16              		.text
  17              	.Ltext0:
  18              		.cfi_sections	.debug_frame
  19              		.section	.text.EE_oo_Schedule,"ax",%progbits
  20              		.align	2
  21              		.global	EE_oo_Schedule
  22              		.thumb
  23              		.thumb_func
  24              		.type	EE_oo_Schedule, %function
  25              	EE_oo_Schedule:
  26              	.LFB70:
  27              		.file 1 "Generated_Source\\PSoC5\\ErikaOS_1_ee_schedule.c"
   1:Generated_Source\PSoC5/ErikaOS_1_ee_schedule.c **** /* ###*B*###
   2:Generated_Source\PSoC5/ErikaOS_1_ee_schedule.c ****  * ERIKA Enterprise - a tiny RTOS for small microcontrollers
   3:Generated_Source\PSoC5/ErikaOS_1_ee_schedule.c ****  *
   4:Generated_Source\PSoC5/ErikaOS_1_ee_schedule.c ****  * Copyright (C) 2002-2008  Evidence Srl
   5:Generated_Source\PSoC5/ErikaOS_1_ee_schedule.c ****  *
   6:Generated_Source\PSoC5/ErikaOS_1_ee_schedule.c ****  * This file is part of ERIKA Enterprise.
   7:Generated_Source\PSoC5/ErikaOS_1_ee_schedule.c ****  *
   8:Generated_Source\PSoC5/ErikaOS_1_ee_schedule.c ****  * ERIKA Enterprise is free software; you can redistribute it
   9:Generated_Source\PSoC5/ErikaOS_1_ee_schedule.c ****  * and/or modify it under the terms of the GNU General Public License
  10:Generated_Source\PSoC5/ErikaOS_1_ee_schedule.c ****  * version 2 as published by the Free Software Foundation, 
  11:Generated_Source\PSoC5/ErikaOS_1_ee_schedule.c ****  * (with a special exception described below).
  12:Generated_Source\PSoC5/ErikaOS_1_ee_schedule.c ****  *
  13:Generated_Source\PSoC5/ErikaOS_1_ee_schedule.c ****  * Linking this code statically or dynamically with other modules is
  14:Generated_Source\PSoC5/ErikaOS_1_ee_schedule.c ****  * making a combined work based on this code.  Thus, the terms and
  15:Generated_Source\PSoC5/ErikaOS_1_ee_schedule.c ****  * conditions of the GNU General Public License cover the whole
  16:Generated_Source\PSoC5/ErikaOS_1_ee_schedule.c ****  * combination.
  17:Generated_Source\PSoC5/ErikaOS_1_ee_schedule.c ****  *
  18:Generated_Source\PSoC5/ErikaOS_1_ee_schedule.c ****  * As a special exception, the copyright holders of this library give you
  19:Generated_Source\PSoC5/ErikaOS_1_ee_schedule.c ****  * permission to link this code with independent modules to produce an
  20:Generated_Source\PSoC5/ErikaOS_1_ee_schedule.c ****  * executable, regardless of the license terms of these independent
  21:Generated_Source\PSoC5/ErikaOS_1_ee_schedule.c ****  * modules, and to copy and distribute the resulting executable under
  22:Generated_Source\PSoC5/ErikaOS_1_ee_schedule.c ****  * terms of your choice, provided that you also meet, for each linked
  23:Generated_Source\PSoC5/ErikaOS_1_ee_schedule.c ****  * independent module, the terms and conditions of the license of that
  24:Generated_Source\PSoC5/ErikaOS_1_ee_schedule.c ****  * module.  An independent module is a module which is not derived from
  25:Generated_Source\PSoC5/ErikaOS_1_ee_schedule.c ****  * or based on this library.  If you modify this code, you may extend
  26:Generated_Source\PSoC5/ErikaOS_1_ee_schedule.c ****  * this exception to your version of the code, but you are not
  27:Generated_Source\PSoC5/ErikaOS_1_ee_schedule.c ****  * obligated to do so.  If you do not wish to do so, delete this
  28:Generated_Source\PSoC5/ErikaOS_1_ee_schedule.c ****  * exception statement from your version.
  29:Generated_Source\PSoC5/ErikaOS_1_ee_schedule.c ****  *
  30:Generated_Source\PSoC5/ErikaOS_1_ee_schedule.c ****  * ERIKA Enterprise is distributed in the hope that it will be
ARM GAS  C:\Users\Asus\AppData\Local\Temp\ccDAHDPn.s 			page 2


  31:Generated_Source\PSoC5/ErikaOS_1_ee_schedule.c ****  * useful, but WITHOUT ANY WARRANTY; without even the implied warranty
  32:Generated_Source\PSoC5/ErikaOS_1_ee_schedule.c ****  * of MERCHANTABILITY or FITNESS FOR A PARTICULAR PURPOSE.  See the
  33:Generated_Source\PSoC5/ErikaOS_1_ee_schedule.c ****  * GNU General Public License version 2 for more details.
  34:Generated_Source\PSoC5/ErikaOS_1_ee_schedule.c ****  *
  35:Generated_Source\PSoC5/ErikaOS_1_ee_schedule.c ****  * You should have received a copy of the GNU General Public License
  36:Generated_Source\PSoC5/ErikaOS_1_ee_schedule.c ****  * version 2 along with ERIKA Enterprise; if not, write to the
  37:Generated_Source\PSoC5/ErikaOS_1_ee_schedule.c ****  * Free Software Foundation, Inc., 51 Franklin Street, Fifth Floor,
  38:Generated_Source\PSoC5/ErikaOS_1_ee_schedule.c ****  * Boston, MA 02110-1301 USA.
  39:Generated_Source\PSoC5/ErikaOS_1_ee_schedule.c ****  * ###*E*### */
  40:Generated_Source\PSoC5/ErikaOS_1_ee_schedule.c **** 
  41:Generated_Source\PSoC5/ErikaOS_1_ee_schedule.c **** /*
  42:Generated_Source\PSoC5/ErikaOS_1_ee_schedule.c ****  * Author: 2002 Paolo Gai
  43:Generated_Source\PSoC5/ErikaOS_1_ee_schedule.c ****  * CVS: $Id: ee_schedule.c,v 1.1 2005/07/16 12:23:42 pj Exp $
  44:Generated_Source\PSoC5/ErikaOS_1_ee_schedule.c ****  */
  45:Generated_Source\PSoC5/ErikaOS_1_ee_schedule.c **** 
  46:Generated_Source\PSoC5/ErikaOS_1_ee_schedule.c **** /*
  47:Generated_Source\PSoC5/ErikaOS_1_ee_schedule.c ****  * PSoC Port and API Generation
  48:Generated_Source\PSoC5/ErikaOS_1_ee_schedule.c ****  * Carlos Fernando Meier Martinez
  49:Generated_Source\PSoC5/ErikaOS_1_ee_schedule.c ****  * Hochschule Darmstadt, Germany. 2017.
  50:Generated_Source\PSoC5/ErikaOS_1_ee_schedule.c ****  */
  51:Generated_Source\PSoC5/ErikaOS_1_ee_schedule.c **** 
  52:Generated_Source\PSoC5/ErikaOS_1_ee_schedule.c **** #include "ErikaOS_1_ee_internal.inc"
  53:Generated_Source\PSoC5/ErikaOS_1_ee_schedule.c **** 
  54:Generated_Source\PSoC5/ErikaOS_1_ee_schedule.c **** /* Schedule: 
  55:Generated_Source\PSoC5/ErikaOS_1_ee_schedule.c ****     - the internal resource is released; 
  56:Generated_Source\PSoC5/ErikaOS_1_ee_schedule.c ****     - no check if resources are still used by the task
  57:Generated_Source\PSoC5/ErikaOS_1_ee_schedule.c ****     - then rescheduling takes place 
  58:Generated_Source\PSoC5/ErikaOS_1_ee_schedule.c ****     - and then the internal resource is taken again
  59:Generated_Source\PSoC5/ErikaOS_1_ee_schedule.c ****     - returns
  60:Generated_Source\PSoC5/ErikaOS_1_ee_schedule.c ****       Extended status
  61:Generated_Source\PSoC5/ErikaOS_1_ee_schedule.c ****       E_OS_CALLLEVEL if called at interrupt level 
  62:Generated_Source\PSoC5/ErikaOS_1_ee_schedule.c ****       E_OS_RESOURCE if the calling task occupies resources
  63:Generated_Source\PSoC5/ErikaOS_1_ee_schedule.c **** */
  64:Generated_Source\PSoC5/ErikaOS_1_ee_schedule.c **** 
  65:Generated_Source\PSoC5/ErikaOS_1_ee_schedule.c **** #ifndef __PRIVATE_SCHEDULE__
  66:Generated_Source\PSoC5/ErikaOS_1_ee_schedule.c **** 
  67:Generated_Source\PSoC5/ErikaOS_1_ee_schedule.c **** StatusType EE_oo_Schedule(void)
  68:Generated_Source\PSoC5/ErikaOS_1_ee_schedule.c **** {
  28              		.loc 1 68 0
  29              		.cfi_startproc
  30              		@ args = 0, pretend = 0, frame = 0
  31              		@ frame_needed = 0, uses_anonymous_args = 0
  32 0000 F8B5     		push	{r3, r4, r5, r6, r7, lr}
  33              		.cfi_def_cfa_offset 24
  34              		.cfi_offset 3, -24
  35              		.cfi_offset 4, -20
  36              		.cfi_offset 5, -16
  37              		.cfi_offset 6, -12
  38              		.cfi_offset 7, -8
  39              		.cfi_offset 14, -4
  40              	.LBB60:
  41              	.LBB61:
  42              	.LBB62:
  43              		.file 2 "Generated_Source\\PSoC5\\ErikaOS_1_cortex_mx_ee_cpu.inc"
   1:Generated_Source\PSoC5/ErikaOS_1_cortex_mx_ee_cpu.inc **** /* ###*B*###
   2:Generated_Source\PSoC5/ErikaOS_1_cortex_mx_ee_cpu.inc ****  * ERIKA Enterprise - a tiny RTOS for small microcontrollers
   3:Generated_Source\PSoC5/ErikaOS_1_cortex_mx_ee_cpu.inc ****  *
ARM GAS  C:\Users\Asus\AppData\Local\Temp\ccDAHDPn.s 			page 3


   4:Generated_Source\PSoC5/ErikaOS_1_cortex_mx_ee_cpu.inc ****  * Copyright (C) 2002-2011  Evidence Srl
   5:Generated_Source\PSoC5/ErikaOS_1_cortex_mx_ee_cpu.inc ****  *
   6:Generated_Source\PSoC5/ErikaOS_1_cortex_mx_ee_cpu.inc ****  * This file is part of ERIKA Enterprise.
   7:Generated_Source\PSoC5/ErikaOS_1_cortex_mx_ee_cpu.inc ****  *
   8:Generated_Source\PSoC5/ErikaOS_1_cortex_mx_ee_cpu.inc ****  * ERIKA Enterprise is free software; you can redistribute it
   9:Generated_Source\PSoC5/ErikaOS_1_cortex_mx_ee_cpu.inc ****  * and/or modify it under the terms of the GNU General Public License
  10:Generated_Source\PSoC5/ErikaOS_1_cortex_mx_ee_cpu.inc ****  * version 2 as published by the Free Software Foundation, 
  11:Generated_Source\PSoC5/ErikaOS_1_cortex_mx_ee_cpu.inc ****  * (with a special exception described below).
  12:Generated_Source\PSoC5/ErikaOS_1_cortex_mx_ee_cpu.inc ****  *
  13:Generated_Source\PSoC5/ErikaOS_1_cortex_mx_ee_cpu.inc ****  * Linking this code statically or dynamically with other modules is
  14:Generated_Source\PSoC5/ErikaOS_1_cortex_mx_ee_cpu.inc ****  * making a combined work based on this code.  Thus, the terms and
  15:Generated_Source\PSoC5/ErikaOS_1_cortex_mx_ee_cpu.inc ****  * conditions of the GNU General Public License cover the whole
  16:Generated_Source\PSoC5/ErikaOS_1_cortex_mx_ee_cpu.inc ****  * combination.
  17:Generated_Source\PSoC5/ErikaOS_1_cortex_mx_ee_cpu.inc ****  *
  18:Generated_Source\PSoC5/ErikaOS_1_cortex_mx_ee_cpu.inc ****  * As a special exception, the copyright holders of this library give you
  19:Generated_Source\PSoC5/ErikaOS_1_cortex_mx_ee_cpu.inc ****  * permission to link this code with independent modules to produce an
  20:Generated_Source\PSoC5/ErikaOS_1_cortex_mx_ee_cpu.inc ****  * executable, regardless of the license terms of these independent
  21:Generated_Source\PSoC5/ErikaOS_1_cortex_mx_ee_cpu.inc ****  * modules, and to copy and distribute the resulting executable under
  22:Generated_Source\PSoC5/ErikaOS_1_cortex_mx_ee_cpu.inc ****  * terms of your choice, provided that you also meet, for each linked
  23:Generated_Source\PSoC5/ErikaOS_1_cortex_mx_ee_cpu.inc ****  * independent module, the terms and conditions of the license of that
  24:Generated_Source\PSoC5/ErikaOS_1_cortex_mx_ee_cpu.inc ****  * module.  An independent module is a module which is not derived from
  25:Generated_Source\PSoC5/ErikaOS_1_cortex_mx_ee_cpu.inc ****  * or based on this library.  If you modify this code, you may extend
  26:Generated_Source\PSoC5/ErikaOS_1_cortex_mx_ee_cpu.inc ****  * this exception to your version of the code, but you are not
  27:Generated_Source\PSoC5/ErikaOS_1_cortex_mx_ee_cpu.inc ****  * obligated to do so.  If you do not wish to do so, delete this
  28:Generated_Source\PSoC5/ErikaOS_1_cortex_mx_ee_cpu.inc ****  * exception statement from your version.
  29:Generated_Source\PSoC5/ErikaOS_1_cortex_mx_ee_cpu.inc ****  *
  30:Generated_Source\PSoC5/ErikaOS_1_cortex_mx_ee_cpu.inc ****  * ERIKA Enterprise is distributed in the hope that it will be
  31:Generated_Source\PSoC5/ErikaOS_1_cortex_mx_ee_cpu.inc ****  * useful, but WITHOUT ANY WARRANTY; without even the implied warranty
  32:Generated_Source\PSoC5/ErikaOS_1_cortex_mx_ee_cpu.inc ****  * of MERCHANTABILITY or FITNESS FOR A PARTICULAR PURPOSE.  See the
  33:Generated_Source\PSoC5/ErikaOS_1_cortex_mx_ee_cpu.inc ****  * GNU General Public License version 2 for more details.
  34:Generated_Source\PSoC5/ErikaOS_1_cortex_mx_ee_cpu.inc ****  *
  35:Generated_Source\PSoC5/ErikaOS_1_cortex_mx_ee_cpu.inc ****  * You should have received a copy of the GNU General Public License
  36:Generated_Source\PSoC5/ErikaOS_1_cortex_mx_ee_cpu.inc ****  * version 2 along with ERIKA Enterprise; if not, write to the
  37:Generated_Source\PSoC5/ErikaOS_1_cortex_mx_ee_cpu.inc ****  * Free Software Foundation, Inc., 51 Franklin Street, Fifth Floor,
  38:Generated_Source\PSoC5/ErikaOS_1_cortex_mx_ee_cpu.inc ****  * Boston, MA 02110-1301 USA.
  39:Generated_Source\PSoC5/ErikaOS_1_cortex_mx_ee_cpu.inc ****  * ###*E*### */
  40:Generated_Source\PSoC5/ErikaOS_1_cortex_mx_ee_cpu.inc **** 
  41:Generated_Source\PSoC5/ErikaOS_1_cortex_mx_ee_cpu.inc **** /** 
  42:Generated_Source\PSoC5/ErikaOS_1_cortex_mx_ee_cpu.inc **** 	@file ee_cpu.h
  43:Generated_Source\PSoC5/ErikaOS_1_cortex_mx_ee_cpu.inc **** 	@brief CPU-dependent part of HAL. Derived from pkg/cpu/pic30/inc/ee_cpu.h
  44:Generated_Source\PSoC5/ErikaOS_1_cortex_mx_ee_cpu.inc **** 	@author Gianluca Franchino
  45:Generated_Source\PSoC5/ErikaOS_1_cortex_mx_ee_cpu.inc **** 	@author Giuseppe Serano
  46:Generated_Source\PSoC5/ErikaOS_1_cortex_mx_ee_cpu.inc **** 	@date 2011
  47:Generated_Source\PSoC5/ErikaOS_1_cortex_mx_ee_cpu.inc **** */ 
  48:Generated_Source\PSoC5/ErikaOS_1_cortex_mx_ee_cpu.inc ****     
  49:Generated_Source\PSoC5/ErikaOS_1_cortex_mx_ee_cpu.inc **** /*
  50:Generated_Source\PSoC5/ErikaOS_1_cortex_mx_ee_cpu.inc ****  * PSoC Port and API Generation
  51:Generated_Source\PSoC5/ErikaOS_1_cortex_mx_ee_cpu.inc ****  * Carlos Fernando Meier Martinez
  52:Generated_Source\PSoC5/ErikaOS_1_cortex_mx_ee_cpu.inc ****  * Hochschule Darmstadt, Germany. 2017.
  53:Generated_Source\PSoC5/ErikaOS_1_cortex_mx_ee_cpu.inc ****  */
  54:Generated_Source\PSoC5/ErikaOS_1_cortex_mx_ee_cpu.inc **** 
  55:Generated_Source\PSoC5/ErikaOS_1_cortex_mx_ee_cpu.inc **** #ifndef __INCLUDE_CORTEX_MX_EE_CPU_H__
  56:Generated_Source\PSoC5/ErikaOS_1_cortex_mx_ee_cpu.inc **** #define __INCLUDE_CORTEX_MX_EE_CPU_H__
  57:Generated_Source\PSoC5/ErikaOS_1_cortex_mx_ee_cpu.inc **** 
  58:Generated_Source\PSoC5/ErikaOS_1_cortex_mx_ee_cpu.inc **** #include "ErikaOS_1_eecfg.inc"
  59:Generated_Source\PSoC5/ErikaOS_1_cortex_mx_ee_cpu.inc **** 
  60:Generated_Source\PSoC5/ErikaOS_1_cortex_mx_ee_cpu.inc **** 
ARM GAS  C:\Users\Asus\AppData\Local\Temp\ccDAHDPn.s 			page 4


  61:Generated_Source\PSoC5/ErikaOS_1_cortex_mx_ee_cpu.inc **** #ifdef __GNU__
  62:Generated_Source\PSoC5/ErikaOS_1_cortex_mx_ee_cpu.inc **** #include "ErikaOS_1_common_ee_compiler_gcc.inc"
  63:Generated_Source\PSoC5/ErikaOS_1_cortex_mx_ee_cpu.inc **** #endif
  64:Generated_Source\PSoC5/ErikaOS_1_cortex_mx_ee_cpu.inc **** 
  65:Generated_Source\PSoC5/ErikaOS_1_cortex_mx_ee_cpu.inc **** /* Initial stack offset (in words): Used in multistack. */
  66:Generated_Source\PSoC5/ErikaOS_1_cortex_mx_ee_cpu.inc **** #ifndef CORTEX_MX_INIT_TOS_OFFSET
  67:Generated_Source\PSoC5/ErikaOS_1_cortex_mx_ee_cpu.inc **** #define CORTEX_MX_INIT_TOS_OFFSET 10
  68:Generated_Source\PSoC5/ErikaOS_1_cortex_mx_ee_cpu.inc **** #endif
  69:Generated_Source\PSoC5/ErikaOS_1_cortex_mx_ee_cpu.inc **** 
  70:Generated_Source\PSoC5/ErikaOS_1_cortex_mx_ee_cpu.inc **** /*************************************************************************
  71:Generated_Source\PSoC5/ErikaOS_1_cortex_mx_ee_cpu.inc ****  HAL Types and structures
  72:Generated_Source\PSoC5/ErikaOS_1_cortex_mx_ee_cpu.inc ****  *************************************************************************/
  73:Generated_Source\PSoC5/ErikaOS_1_cortex_mx_ee_cpu.inc **** 
  74:Generated_Source\PSoC5/ErikaOS_1_cortex_mx_ee_cpu.inc **** /* Primitive data types */
  75:Generated_Source\PSoC5/ErikaOS_1_cortex_mx_ee_cpu.inc **** #include "ErikaOS_1_common_ee_types.inc"
  76:Generated_Source\PSoC5/ErikaOS_1_cortex_mx_ee_cpu.inc **** 
  77:Generated_Source\PSoC5/ErikaOS_1_cortex_mx_ee_cpu.inc **** typedef EE_UINT32 EE_UREG;
  78:Generated_Source\PSoC5/ErikaOS_1_cortex_mx_ee_cpu.inc **** typedef EE_INT32  EE_SREG;
  79:Generated_Source\PSoC5/ErikaOS_1_cortex_mx_ee_cpu.inc **** typedef EE_UINT32 EE_FREG;
  80:Generated_Source\PSoC5/ErikaOS_1_cortex_mx_ee_cpu.inc **** #define EE_UREG_SIZE 4
  81:Generated_Source\PSoC5/ErikaOS_1_cortex_mx_ee_cpu.inc **** 
  82:Generated_Source\PSoC5/ErikaOS_1_cortex_mx_ee_cpu.inc **** /* boolean type */
  83:Generated_Source\PSoC5/ErikaOS_1_cortex_mx_ee_cpu.inc **** #ifndef EE_TYPEBOOL
  84:Generated_Source\PSoC5/ErikaOS_1_cortex_mx_ee_cpu.inc **** typedef EE_UREG EE_TYPEBOOL;
  85:Generated_Source\PSoC5/ErikaOS_1_cortex_mx_ee_cpu.inc **** #endif
  86:Generated_Source\PSoC5/ErikaOS_1_cortex_mx_ee_cpu.inc **** 
  87:Generated_Source\PSoC5/ErikaOS_1_cortex_mx_ee_cpu.inc **** /* boolean true define */
  88:Generated_Source\PSoC5/ErikaOS_1_cortex_mx_ee_cpu.inc **** #ifndef EE_TRUE
  89:Generated_Source\PSoC5/ErikaOS_1_cortex_mx_ee_cpu.inc **** #define EE_TRUE ((EE_TYPEBOOL)1U)
  90:Generated_Source\PSoC5/ErikaOS_1_cortex_mx_ee_cpu.inc **** #endif
  91:Generated_Source\PSoC5/ErikaOS_1_cortex_mx_ee_cpu.inc **** 
  92:Generated_Source\PSoC5/ErikaOS_1_cortex_mx_ee_cpu.inc **** /* boolean false define */
  93:Generated_Source\PSoC5/ErikaOS_1_cortex_mx_ee_cpu.inc **** #ifndef EE_FALSE
  94:Generated_Source\PSoC5/ErikaOS_1_cortex_mx_ee_cpu.inc **** #define EE_FALSE ((EE_TYPEBOOL)0U)
  95:Generated_Source\PSoC5/ErikaOS_1_cortex_mx_ee_cpu.inc **** #endif
  96:Generated_Source\PSoC5/ErikaOS_1_cortex_mx_ee_cpu.inc **** 
  97:Generated_Source\PSoC5/ErikaOS_1_cortex_mx_ee_cpu.inc **** #define	EE_HWREG_PTR		volatile EE_UREG *
  98:Generated_Source\PSoC5/ErikaOS_1_cortex_mx_ee_cpu.inc **** #define	EE_HWREG_ADDR(x)	((EE_HWREG_PTR)(x))
  99:Generated_Source\PSoC5/ErikaOS_1_cortex_mx_ee_cpu.inc **** #define	EE_HWREG(x)		(*EE_HWREG_ADDR(x))
 100:Generated_Source\PSoC5/ErikaOS_1_cortex_mx_ee_cpu.inc **** 
 101:Generated_Source\PSoC5/ErikaOS_1_cortex_mx_ee_cpu.inc **** #ifdef __GNU__
 102:Generated_Source\PSoC5/ErikaOS_1_cortex_mx_ee_cpu.inc **** 
 103:Generated_Source\PSoC5/ErikaOS_1_cortex_mx_ee_cpu.inc **** /* Get current SP */
 104:Generated_Source\PSoC5/ErikaOS_1_cortex_mx_ee_cpu.inc **** __INLINE__ EE_UINT32  __current_sp(void)
 105:Generated_Source\PSoC5/ErikaOS_1_cortex_mx_ee_cpu.inc **** {
 106:Generated_Source\PSoC5/ErikaOS_1_cortex_mx_ee_cpu.inc **** EE_UINT32 temp;
 107:Generated_Source\PSoC5/ErikaOS_1_cortex_mx_ee_cpu.inc **** __ASM ("mov %0, sp" : "=r" (temp) : );
 108:Generated_Source\PSoC5/ErikaOS_1_cortex_mx_ee_cpu.inc **** return temp;
 109:Generated_Source\PSoC5/ErikaOS_1_cortex_mx_ee_cpu.inc **** }
 110:Generated_Source\PSoC5/ErikaOS_1_cortex_mx_ee_cpu.inc **** 
 111:Generated_Source\PSoC5/ErikaOS_1_cortex_mx_ee_cpu.inc **** /* Set a breakpoint */
 112:Generated_Source\PSoC5/ErikaOS_1_cortex_mx_ee_cpu.inc **** #define __breakpoint(value)	__ASM ("bkpt "#value)
 113:Generated_Source\PSoC5/ErikaOS_1_cortex_mx_ee_cpu.inc **** 
 114:Generated_Source\PSoC5/ErikaOS_1_cortex_mx_ee_cpu.inc **** #endif
 115:Generated_Source\PSoC5/ErikaOS_1_cortex_mx_ee_cpu.inc **** 
 116:Generated_Source\PSoC5/ErikaOS_1_cortex_mx_ee_cpu.inc **** /* ISR Priority representation type */
 117:Generated_Source\PSoC5/ErikaOS_1_cortex_mx_ee_cpu.inc **** typedef EE_UREG EE_TYPEISR2PRIO;
ARM GAS  C:\Users\Asus\AppData\Local\Temp\ccDAHDPn.s 			page 5


 118:Generated_Source\PSoC5/ErikaOS_1_cortex_mx_ee_cpu.inc **** 
 119:Generated_Source\PSoC5/ErikaOS_1_cortex_mx_ee_cpu.inc **** /* Thread IDs */
 120:Generated_Source\PSoC5/ErikaOS_1_cortex_mx_ee_cpu.inc **** typedef EE_INT32 EE_TID;
 121:Generated_Source\PSoC5/ErikaOS_1_cortex_mx_ee_cpu.inc **** 
 122:Generated_Source\PSoC5/ErikaOS_1_cortex_mx_ee_cpu.inc **** /* Thread IDs - unsigned version*/
 123:Generated_Source\PSoC5/ErikaOS_1_cortex_mx_ee_cpu.inc **** typedef EE_UINT32 EE_UTID;
 124:Generated_Source\PSoC5/ErikaOS_1_cortex_mx_ee_cpu.inc **** 
 125:Generated_Source\PSoC5/ErikaOS_1_cortex_mx_ee_cpu.inc **** /* Used by the common layer to decide whether to start a new thread */
 126:Generated_Source\PSoC5/ErikaOS_1_cortex_mx_ee_cpu.inc **** #define TID_IS_STACKED_MARK 0x80000000
 127:Generated_Source\PSoC5/ErikaOS_1_cortex_mx_ee_cpu.inc **** 
 128:Generated_Source\PSoC5/ErikaOS_1_cortex_mx_ee_cpu.inc **** /* EE_TYPEIRQ is currently unused */
 129:Generated_Source\PSoC5/ErikaOS_1_cortex_mx_ee_cpu.inc **** 
 130:Generated_Source\PSoC5/ErikaOS_1_cortex_mx_ee_cpu.inc **** /* XXX: define EE_TIME? */
 131:Generated_Source\PSoC5/ErikaOS_1_cortex_mx_ee_cpu.inc **** 
 132:Generated_Source\PSoC5/ErikaOS_1_cortex_mx_ee_cpu.inc **** /* Use the "standard" implementation */
 133:Generated_Source\PSoC5/ErikaOS_1_cortex_mx_ee_cpu.inc **** #include "ErikaOS_1_common_ee_hal_structs.inc"
 134:Generated_Source\PSoC5/ErikaOS_1_cortex_mx_ee_cpu.inc **** 
 135:Generated_Source\PSoC5/ErikaOS_1_cortex_mx_ee_cpu.inc **** /******************************************************************************
 136:Generated_Source\PSoC5/ErikaOS_1_cortex_mx_ee_cpu.inc ****  Application dependent data types
 137:Generated_Source\PSoC5/ErikaOS_1_cortex_mx_ee_cpu.inc ****  ******************************************************************************/
 138:Generated_Source\PSoC5/ErikaOS_1_cortex_mx_ee_cpu.inc **** 
 139:Generated_Source\PSoC5/ErikaOS_1_cortex_mx_ee_cpu.inc **** #ifdef	__HAS_TYPES_H__
 140:Generated_Source\PSoC5/ErikaOS_1_cortex_mx_ee_cpu.inc **** #include	"types.h"
 141:Generated_Source\PSoC5/ErikaOS_1_cortex_mx_ee_cpu.inc **** #endif
 142:Generated_Source\PSoC5/ErikaOS_1_cortex_mx_ee_cpu.inc **** 
 143:Generated_Source\PSoC5/ErikaOS_1_cortex_mx_ee_cpu.inc **** /******************************************************************************
 144:Generated_Source\PSoC5/ErikaOS_1_cortex_mx_ee_cpu.inc ****  CPU Peripherals
 145:Generated_Source\PSoC5/ErikaOS_1_cortex_mx_ee_cpu.inc ****  ******************************************************************************/
 146:Generated_Source\PSoC5/ErikaOS_1_cortex_mx_ee_cpu.inc **** 
 147:Generated_Source\PSoC5/ErikaOS_1_cortex_mx_ee_cpu.inc **** #ifdef __CORTEX_MX__
 148:Generated_Source\PSoC5/ErikaOS_1_cortex_mx_ee_cpu.inc **** #include "ErikaOS_1_cortex_mx_ee_nvic.inc"
 149:Generated_Source\PSoC5/ErikaOS_1_cortex_mx_ee_cpu.inc **** #include "ErikaOS_1_cortex_mx_ee_systick.inc"
 150:Generated_Source\PSoC5/ErikaOS_1_cortex_mx_ee_cpu.inc **** #endif
 151:Generated_Source\PSoC5/ErikaOS_1_cortex_mx_ee_cpu.inc **** 
 152:Generated_Source\PSoC5/ErikaOS_1_cortex_mx_ee_cpu.inc **** /******************************************************************************
 153:Generated_Source\PSoC5/ErikaOS_1_cortex_mx_ee_cpu.inc ****  HAL Variables
 154:Generated_Source\PSoC5/ErikaOS_1_cortex_mx_ee_cpu.inc ****  ******************************************************************************/
 155:Generated_Source\PSoC5/ErikaOS_1_cortex_mx_ee_cpu.inc **** 
 156:Generated_Source\PSoC5/ErikaOS_1_cortex_mx_ee_cpu.inc **** #ifdef __MULTI__
 157:Generated_Source\PSoC5/ErikaOS_1_cortex_mx_ee_cpu.inc **** 
 158:Generated_Source\PSoC5/ErikaOS_1_cortex_mx_ee_cpu.inc **** /* Top-of-stack of each private stack */
 159:Generated_Source\PSoC5/ErikaOS_1_cortex_mx_ee_cpu.inc **** extern struct EE_TOS EE_cortex_mx_system_tos[];
 160:Generated_Source\PSoC5/ErikaOS_1_cortex_mx_ee_cpu.inc **** //#define	EE_std_system_tos EE_cortex_mx_system_tos
 161:Generated_Source\PSoC5/ErikaOS_1_cortex_mx_ee_cpu.inc **** 
 162:Generated_Source\PSoC5/ErikaOS_1_cortex_mx_ee_cpu.inc **** /* Index of the current stack */
 163:Generated_Source\PSoC5/ErikaOS_1_cortex_mx_ee_cpu.inc **** extern EE_UREG EE_cortex_mx_active_tos;
 164:Generated_Source\PSoC5/ErikaOS_1_cortex_mx_ee_cpu.inc **** #define	EE_hal_active_tos EE_cortex_mx_active_tos
 165:Generated_Source\PSoC5/ErikaOS_1_cortex_mx_ee_cpu.inc **** 
 166:Generated_Source\PSoC5/ErikaOS_1_cortex_mx_ee_cpu.inc **** /*extern	EE_UREG EE_pic30_thread_tos[];
 167:Generated_Source\PSoC5/ErikaOS_1_cortex_mx_ee_cpu.inc **** #define	EE_std_thread_tos EE_pic30_thread_tos */
 168:Generated_Source\PSoC5/ErikaOS_1_cortex_mx_ee_cpu.inc **** #endif /* __MULTI__ */
 169:Generated_Source\PSoC5/ErikaOS_1_cortex_mx_ee_cpu.inc **** 
 170:Generated_Source\PSoC5/ErikaOS_1_cortex_mx_ee_cpu.inc **** /*********************************************************************
 171:Generated_Source\PSoC5/ErikaOS_1_cortex_mx_ee_cpu.inc ****  Cortex M0 interrupt disabling/enabling
 172:Generated_Source\PSoC5/ErikaOS_1_cortex_mx_ee_cpu.inc ****  *********************************************************************/
 173:Generated_Source\PSoC5/ErikaOS_1_cortex_mx_ee_cpu.inc **** 
 174:Generated_Source\PSoC5/ErikaOS_1_cortex_mx_ee_cpu.inc **** /* Used to check the value returned by EE_cortex_mx_disableIRQ */
ARM GAS  C:\Users\Asus\AppData\Local\Temp\ccDAHDPn.s 			page 6


 175:Generated_Source\PSoC5/ErikaOS_1_cortex_mx_ee_cpu.inc **** #define EE_cortex_mx_are_IRQs_enabled(ie) ((ie) ^ 1)
 176:Generated_Source\PSoC5/ErikaOS_1_cortex_mx_ee_cpu.inc **** 
 177:Generated_Source\PSoC5/ErikaOS_1_cortex_mx_ee_cpu.inc **** /**
 178:Generated_Source\PSoC5/ErikaOS_1_cortex_mx_ee_cpu.inc ****  * Enable interrupts
 179:Generated_Source\PSoC5/ErikaOS_1_cortex_mx_ee_cpu.inc ****  */
 180:Generated_Source\PSoC5/ErikaOS_1_cortex_mx_ee_cpu.inc **** __INLINE__ void  EE_cortex_mx_enableIRQ(void)
 181:Generated_Source\PSoC5/ErikaOS_1_cortex_mx_ee_cpu.inc **** {
 182:Generated_Source\PSoC5/ErikaOS_1_cortex_mx_ee_cpu.inc **** #ifdef __IAR__
 183:Generated_Source\PSoC5/ErikaOS_1_cortex_mx_ee_cpu.inc **** 	__ASM ("cpsie i");
 184:Generated_Source\PSoC5/ErikaOS_1_cortex_mx_ee_cpu.inc **** #else	/* __IAR__ */
 185:Generated_Source\PSoC5/ErikaOS_1_cortex_mx_ee_cpu.inc **** #ifdef __CCS__
 186:Generated_Source\PSoC5/ErikaOS_1_cortex_mx_ee_cpu.inc **** 	__ASM ("    cpsie    i\n");
 187:Generated_Source\PSoC5/ErikaOS_1_cortex_mx_ee_cpu.inc **** #else	/* __CCS__ */
 188:Generated_Source\PSoC5/ErikaOS_1_cortex_mx_ee_cpu.inc **** #ifdef __KEIL__
 189:Generated_Source\PSoC5/ErikaOS_1_cortex_mx_ee_cpu.inc **** 	__enable_irq();
 190:Generated_Source\PSoC5/ErikaOS_1_cortex_mx_ee_cpu.inc **** #else	/* __KEIL__ */
 191:Generated_Source\PSoC5/ErikaOS_1_cortex_mx_ee_cpu.inc **** 	__ASM volatile("cpsie i");
 192:Generated_Source\PSoC5/ErikaOS_1_cortex_mx_ee_cpu.inc **** #endif	/* !__KEIL__ */
 193:Generated_Source\PSoC5/ErikaOS_1_cortex_mx_ee_cpu.inc **** #endif	/* !__CCS__ */
 194:Generated_Source\PSoC5/ErikaOS_1_cortex_mx_ee_cpu.inc **** #endif	/* !__IAR__ */
 195:Generated_Source\PSoC5/ErikaOS_1_cortex_mx_ee_cpu.inc **** }
 196:Generated_Source\PSoC5/ErikaOS_1_cortex_mx_ee_cpu.inc **** 
 197:Generated_Source\PSoC5/ErikaOS_1_cortex_mx_ee_cpu.inc **** /**
 198:Generated_Source\PSoC5/ErikaOS_1_cortex_mx_ee_cpu.inc ****  * Disable interrupts
 199:Generated_Source\PSoC5/ErikaOS_1_cortex_mx_ee_cpu.inc ****  */
 200:Generated_Source\PSoC5/ErikaOS_1_cortex_mx_ee_cpu.inc **** __INLINE__ void  EE_cortex_mx_disableIRQ(void)
 201:Generated_Source\PSoC5/ErikaOS_1_cortex_mx_ee_cpu.inc **** {
 202:Generated_Source\PSoC5/ErikaOS_1_cortex_mx_ee_cpu.inc **** #ifdef __IAR__
 203:Generated_Source\PSoC5/ErikaOS_1_cortex_mx_ee_cpu.inc **** 	__ASM ("cpsid i");
 204:Generated_Source\PSoC5/ErikaOS_1_cortex_mx_ee_cpu.inc **** #else	/* __IAR__ */
 205:Generated_Source\PSoC5/ErikaOS_1_cortex_mx_ee_cpu.inc **** #ifdef __CCS__
 206:Generated_Source\PSoC5/ErikaOS_1_cortex_mx_ee_cpu.inc **** 	__ASM ("    cpsid    i\n");
 207:Generated_Source\PSoC5/ErikaOS_1_cortex_mx_ee_cpu.inc **** #else	/* __CCS__ */
 208:Generated_Source\PSoC5/ErikaOS_1_cortex_mx_ee_cpu.inc **** #ifdef __KEIL__
 209:Generated_Source\PSoC5/ErikaOS_1_cortex_mx_ee_cpu.inc **** 	__disable_irq();
 210:Generated_Source\PSoC5/ErikaOS_1_cortex_mx_ee_cpu.inc **** #else	/* __KEIL__ */
 211:Generated_Source\PSoC5/ErikaOS_1_cortex_mx_ee_cpu.inc **** 	__ASM volatile("cpsid i");
 212:Generated_Source\PSoC5/ErikaOS_1_cortex_mx_ee_cpu.inc **** #endif	/* !__KEIL__ */
 213:Generated_Source\PSoC5/ErikaOS_1_cortex_mx_ee_cpu.inc **** #endif	/* !__CCS__ */
 214:Generated_Source\PSoC5/ErikaOS_1_cortex_mx_ee_cpu.inc **** #endif	/* !__IAR__ */
 215:Generated_Source\PSoC5/ErikaOS_1_cortex_mx_ee_cpu.inc **** }
 216:Generated_Source\PSoC5/ErikaOS_1_cortex_mx_ee_cpu.inc **** 
 217:Generated_Source\PSoC5/ErikaOS_1_cortex_mx_ee_cpu.inc **** /**
 218:Generated_Source\PSoC5/ErikaOS_1_cortex_mx_ee_cpu.inc ****  * Resume interrupts
 219:Generated_Source\PSoC5/ErikaOS_1_cortex_mx_ee_cpu.inc ****  */
 220:Generated_Source\PSoC5/ErikaOS_1_cortex_mx_ee_cpu.inc **** __INLINE__ void  EE_cortex_mx_resumeIRQ(EE_FREG f)
 221:Generated_Source\PSoC5/ErikaOS_1_cortex_mx_ee_cpu.inc **** {
 222:Generated_Source\PSoC5/ErikaOS_1_cortex_mx_ee_cpu.inc **** #ifdef __IAR__
 223:Generated_Source\PSoC5/ErikaOS_1_cortex_mx_ee_cpu.inc **** 	__set_PRIMASK(f);
 224:Generated_Source\PSoC5/ErikaOS_1_cortex_mx_ee_cpu.inc **** #else	/* __IAR__ */
 225:Generated_Source\PSoC5/ErikaOS_1_cortex_mx_ee_cpu.inc **** #ifdef __CCS__
 226:Generated_Source\PSoC5/ErikaOS_1_cortex_mx_ee_cpu.inc **** 	__ASM ("    msr    primask, r0\n");
 227:Generated_Source\PSoC5/ErikaOS_1_cortex_mx_ee_cpu.inc **** #else	/* __CCS__ */
 228:Generated_Source\PSoC5/ErikaOS_1_cortex_mx_ee_cpu.inc **** #ifdef __KEIL__
 229:Generated_Source\PSoC5/ErikaOS_1_cortex_mx_ee_cpu.inc **** 	register EE_FREG PRIMASK __ASM("primask");
 230:Generated_Source\PSoC5/ErikaOS_1_cortex_mx_ee_cpu.inc **** 	PRIMASK = f;
 231:Generated_Source\PSoC5/ErikaOS_1_cortex_mx_ee_cpu.inc **** #else	/* __KEIL__ */
ARM GAS  C:\Users\Asus\AppData\Local\Temp\ccDAHDPn.s 			page 7


 232:Generated_Source\PSoC5/ErikaOS_1_cortex_mx_ee_cpu.inc **** 	__ASM volatile("msr primask, %0" :: "r" (f));
 233:Generated_Source\PSoC5/ErikaOS_1_cortex_mx_ee_cpu.inc **** #endif	/* !__KEIL__ */
 234:Generated_Source\PSoC5/ErikaOS_1_cortex_mx_ee_cpu.inc **** #endif	/* !__CCS__ */
 235:Generated_Source\PSoC5/ErikaOS_1_cortex_mx_ee_cpu.inc **** #endif	/* !__IAR__ */
 236:Generated_Source\PSoC5/ErikaOS_1_cortex_mx_ee_cpu.inc **** }
 237:Generated_Source\PSoC5/ErikaOS_1_cortex_mx_ee_cpu.inc **** 
 238:Generated_Source\PSoC5/ErikaOS_1_cortex_mx_ee_cpu.inc **** /**
 239:Generated_Source\PSoC5/ErikaOS_1_cortex_mx_ee_cpu.inc ****  * Suspend interrupts
 240:Generated_Source\PSoC5/ErikaOS_1_cortex_mx_ee_cpu.inc ****  */
 241:Generated_Source\PSoC5/ErikaOS_1_cortex_mx_ee_cpu.inc **** __INLINE__ EE_FREG  EE_cortex_mx_suspendIRQ(void)
 242:Generated_Source\PSoC5/ErikaOS_1_cortex_mx_ee_cpu.inc **** {
 243:Generated_Source\PSoC5/ErikaOS_1_cortex_mx_ee_cpu.inc **** #ifndef __CCS__
 244:Generated_Source\PSoC5/ErikaOS_1_cortex_mx_ee_cpu.inc **** 	EE_FREG istat;
 245:Generated_Source\PSoC5/ErikaOS_1_cortex_mx_ee_cpu.inc **** #endif
 246:Generated_Source\PSoC5/ErikaOS_1_cortex_mx_ee_cpu.inc **** #ifdef __IAR__
 247:Generated_Source\PSoC5/ErikaOS_1_cortex_mx_ee_cpu.inc **** 	 istat = __get_PRIMASK();
 248:Generated_Source\PSoC5/ErikaOS_1_cortex_mx_ee_cpu.inc **** 	__ASM ("cpsid i");
 249:Generated_Source\PSoC5/ErikaOS_1_cortex_mx_ee_cpu.inc **** #else	/* __IAR__ */
 250:Generated_Source\PSoC5/ErikaOS_1_cortex_mx_ee_cpu.inc **** #ifdef __CCS__
 251:Generated_Source\PSoC5/ErikaOS_1_cortex_mx_ee_cpu.inc **** 	__ASM ("    mrs     r0, primask\n"
 252:Generated_Source\PSoC5/ErikaOS_1_cortex_mx_ee_cpu.inc **** 	       "    cpsid   i\n"
 253:Generated_Source\PSoC5/ErikaOS_1_cortex_mx_ee_cpu.inc **** 	       "    bx      lr\n");
 254:Generated_Source\PSoC5/ErikaOS_1_cortex_mx_ee_cpu.inc **** #else	/* __CCS__ */
 255:Generated_Source\PSoC5/ErikaOS_1_cortex_mx_ee_cpu.inc **** #ifdef __KEIL__
 256:Generated_Source\PSoC5/ErikaOS_1_cortex_mx_ee_cpu.inc **** 	register EE_FREG PRIMASK __ASM("primask");
 257:Generated_Source\PSoC5/ErikaOS_1_cortex_mx_ee_cpu.inc **** 	istat = PRIMASK;
 258:Generated_Source\PSoC5/ErikaOS_1_cortex_mx_ee_cpu.inc **** 	__disable_irq();
 259:Generated_Source\PSoC5/ErikaOS_1_cortex_mx_ee_cpu.inc **** #else	/* __KEIL__ */
 260:Generated_Source\PSoC5/ErikaOS_1_cortex_mx_ee_cpu.inc **** 	__ASM volatile ("mrs %0, primask" : "=r" (istat) );
  44              		.loc 2 260 0
  45              		.syntax unified
  46              	@ 260 "Generated_Source\PSoC5\ErikaOS_1_cortex_mx_ee_cpu.inc" 1
  47 0002 EFF31084 		mrs r4, primask
  48              	@ 0 "" 2
  49              	.LVL0:
 261:Generated_Source\PSoC5/ErikaOS_1_cortex_mx_ee_cpu.inc **** 	__ASM volatile ("cpsid i");
  50              		.loc 2 261 0
  51              	@ 261 "Generated_Source\PSoC5\ErikaOS_1_cortex_mx_ee_cpu.inc" 1
  52 0006 72B6     		cpsid i
  53              	@ 0 "" 2
  54              	.LVL1:
  55              		.thumb
  56              		.syntax unified
  57              	.LBE62:
  58              	.LBE61:
  59              	.LBE60:
  60              	.LBB63:
  61              	.LBB64:
  62              		.file 3 "Generated_Source\\PSoC5\\ErikaOS_1_ee_oo_internal.inc"
   1:Generated_Source\PSoC5/ErikaOS_1_ee_oo_internal.inc **** /* ###*B*###
   2:Generated_Source\PSoC5/ErikaOS_1_ee_oo_internal.inc ****  * ERIKA Enterprise - a tiny RTOS for small microcontrollers
   3:Generated_Source\PSoC5/ErikaOS_1_ee_oo_internal.inc ****  *
   4:Generated_Source\PSoC5/ErikaOS_1_ee_oo_internal.inc ****  * Copyright (C) 2002-2008  Evidence Srl
   5:Generated_Source\PSoC5/ErikaOS_1_ee_oo_internal.inc ****  *
   6:Generated_Source\PSoC5/ErikaOS_1_ee_oo_internal.inc ****  * This file is part of ERIKA Enterprise.
   7:Generated_Source\PSoC5/ErikaOS_1_ee_oo_internal.inc ****  *
   8:Generated_Source\PSoC5/ErikaOS_1_ee_oo_internal.inc ****  * ERIKA Enterprise is free software; you can redistribute it
ARM GAS  C:\Users\Asus\AppData\Local\Temp\ccDAHDPn.s 			page 8


   9:Generated_Source\PSoC5/ErikaOS_1_ee_oo_internal.inc ****  * and/or modify it under the terms of the GNU General Public License
  10:Generated_Source\PSoC5/ErikaOS_1_ee_oo_internal.inc ****  * version 2 as published by the Free Software Foundation, 
  11:Generated_Source\PSoC5/ErikaOS_1_ee_oo_internal.inc ****  * (with a special exception described below).
  12:Generated_Source\PSoC5/ErikaOS_1_ee_oo_internal.inc ****  *
  13:Generated_Source\PSoC5/ErikaOS_1_ee_oo_internal.inc ****  * Linking this code statically or dynamically with other modules is
  14:Generated_Source\PSoC5/ErikaOS_1_ee_oo_internal.inc ****  * making a combined work based on this code.  Thus, the terms and
  15:Generated_Source\PSoC5/ErikaOS_1_ee_oo_internal.inc ****  * conditions of the GNU General Public License cover the whole
  16:Generated_Source\PSoC5/ErikaOS_1_ee_oo_internal.inc ****  * combination.
  17:Generated_Source\PSoC5/ErikaOS_1_ee_oo_internal.inc ****  *
  18:Generated_Source\PSoC5/ErikaOS_1_ee_oo_internal.inc ****  * As a special exception, the copyright holders of this library give you
  19:Generated_Source\PSoC5/ErikaOS_1_ee_oo_internal.inc ****  * permission to link this code with independent modules to produce an
  20:Generated_Source\PSoC5/ErikaOS_1_ee_oo_internal.inc ****  * executable, regardless of the license terms of these independent
  21:Generated_Source\PSoC5/ErikaOS_1_ee_oo_internal.inc ****  * modules, and to copy and distribute the resulting executable under
  22:Generated_Source\PSoC5/ErikaOS_1_ee_oo_internal.inc ****  * terms of your choice, provided that you also meet, for each linked
  23:Generated_Source\PSoC5/ErikaOS_1_ee_oo_internal.inc ****  * independent module, the terms and conditions of the license of that
  24:Generated_Source\PSoC5/ErikaOS_1_ee_oo_internal.inc ****  * module.  An independent module is a module which is not derived from
  25:Generated_Source\PSoC5/ErikaOS_1_ee_oo_internal.inc ****  * or based on this library.  If you modify this code, you may extend
  26:Generated_Source\PSoC5/ErikaOS_1_ee_oo_internal.inc ****  * this exception to your version of the code, but you are not
  27:Generated_Source\PSoC5/ErikaOS_1_ee_oo_internal.inc ****  * obligated to do so.  If you do not wish to do so, delete this
  28:Generated_Source\PSoC5/ErikaOS_1_ee_oo_internal.inc ****  * exception statement from your version.
  29:Generated_Source\PSoC5/ErikaOS_1_ee_oo_internal.inc ****  *
  30:Generated_Source\PSoC5/ErikaOS_1_ee_oo_internal.inc ****  * ERIKA Enterprise is distributed in the hope that it will be
  31:Generated_Source\PSoC5/ErikaOS_1_ee_oo_internal.inc ****  * useful, but WITHOUT ANY WARRANTY; without even the implied warranty
  32:Generated_Source\PSoC5/ErikaOS_1_ee_oo_internal.inc ****  * of MERCHANTABILITY or FITNESS FOR A PARTICULAR PURPOSE.  See the
  33:Generated_Source\PSoC5/ErikaOS_1_ee_oo_internal.inc ****  * GNU General Public License version 2 for more details.
  34:Generated_Source\PSoC5/ErikaOS_1_ee_oo_internal.inc ****  *
  35:Generated_Source\PSoC5/ErikaOS_1_ee_oo_internal.inc ****  * You should have received a copy of the GNU General Public License
  36:Generated_Source\PSoC5/ErikaOS_1_ee_oo_internal.inc ****  * version 2 along with ERIKA Enterprise; if not, write to the
  37:Generated_Source\PSoC5/ErikaOS_1_ee_oo_internal.inc ****  * Free Software Foundation, Inc., 51 Franklin Street, Fifth Floor,
  38:Generated_Source\PSoC5/ErikaOS_1_ee_oo_internal.inc ****  * Boston, MA 02110-1301 USA.
  39:Generated_Source\PSoC5/ErikaOS_1_ee_oo_internal.inc ****  * ###*E*### */
  40:Generated_Source\PSoC5/ErikaOS_1_ee_oo_internal.inc **** 
  41:Generated_Source\PSoC5/ErikaOS_1_ee_oo_internal.inc **** /*
  42:Generated_Source\PSoC5/ErikaOS_1_ee_oo_internal.inc ****  * Author: 2002 Paolo Gai
  43:Generated_Source\PSoC5/ErikaOS_1_ee_oo_internal.inc ****  * CVS: $Id: ee_internal.h,v 1.6 2006/12/03 22:07:50 pj Exp $
  44:Generated_Source\PSoC5/ErikaOS_1_ee_oo_internal.inc ****  */
  45:Generated_Source\PSoC5/ErikaOS_1_ee_oo_internal.inc **** 
  46:Generated_Source\PSoC5/ErikaOS_1_ee_oo_internal.inc **** /*
  47:Generated_Source\PSoC5/ErikaOS_1_ee_oo_internal.inc ****  * PSoC Port and API Generation
  48:Generated_Source\PSoC5/ErikaOS_1_ee_oo_internal.inc ****  * Carlos Fernando Meier Martinez
  49:Generated_Source\PSoC5/ErikaOS_1_ee_oo_internal.inc ****  * Hochschule Darmstadt, Germany. 2017.
  50:Generated_Source\PSoC5/ErikaOS_1_ee_oo_internal.inc ****  */
  51:Generated_Source\PSoC5/ErikaOS_1_ee_oo_internal.inc **** 
  52:Generated_Source\PSoC5/ErikaOS_1_ee_oo_internal.inc **** #ifndef PKG_KERNEL_OO_INC_EE_OO_INTERNAL_H
  53:Generated_Source\PSoC5/ErikaOS_1_ee_oo_internal.inc **** #define PKG_KERNEL_OO_INC_EE_OO_INTERNAL_H
  54:Generated_Source\PSoC5/ErikaOS_1_ee_oo_internal.inc **** 
  55:Generated_Source\PSoC5/ErikaOS_1_ee_oo_internal.inc **** #include "ErikaOS_1_ee_oo_common.inc"
  56:Generated_Source\PSoC5/ErikaOS_1_ee_oo_internal.inc **** #include "ErikaOS_1_ee_oo_intfunc.inc"
  57:Generated_Source\PSoC5/ErikaOS_1_ee_oo_internal.inc **** #include "ErikaOS_1_ee_oo_irq.inc"
  58:Generated_Source\PSoC5/ErikaOS_1_ee_oo_internal.inc **** #if (__OO_configUSE_TRACE_FACILITY == 1)
  59:Generated_Source\PSoC5/ErikaOS_1_ee_oo_internal.inc **** #include "trcKernelPort.h" 
  60:Generated_Source\PSoC5/ErikaOS_1_ee_oo_internal.inc **** #endif
  61:Generated_Source\PSoC5/ErikaOS_1_ee_oo_internal.inc **** /*******************************************************************************
  62:Generated_Source\PSoC5/ErikaOS_1_ee_oo_internal.inc ****  *                    New Error Handling Internal Utilities
  63:Generated_Source\PSoC5/ErikaOS_1_ee_oo_internal.inc ****  ******************************************************************************/
  64:Generated_Source\PSoC5/ErikaOS_1_ee_oo_internal.inc **** 
  65:Generated_Source\PSoC5/ErikaOS_1_ee_oo_internal.inc **** /* Error Parameters Utilities Macros */
ARM GAS  C:\Users\Asus\AppData\Local\Temp\ccDAHDPn.s 			page 9


  66:Generated_Source\PSoC5/ErikaOS_1_ee_oo_internal.inc **** #define EE_OS_PARAM(param_name)   EE_os_param param_name
  67:Generated_Source\PSoC5/ErikaOS_1_ee_oo_internal.inc **** #define EE_OS_PARAM_VALUE(param_name, param_value)  \
  68:Generated_Source\PSoC5/ErikaOS_1_ee_oo_internal.inc ****   ((param_name).value_param = (param_value))
  69:Generated_Source\PSoC5/ErikaOS_1_ee_oo_internal.inc **** 
  70:Generated_Source\PSoC5/ErikaOS_1_ee_oo_internal.inc **** #define EE_OS_PARAM_REF(param_name, param_field, param_ref) \
  71:Generated_Source\PSoC5/ErikaOS_1_ee_oo_internal.inc ****   ((param_name).param_field = (param_ref))
  72:Generated_Source\PSoC5/ErikaOS_1_ee_oo_internal.inc **** 
  73:Generated_Source\PSoC5/ErikaOS_1_ee_oo_internal.inc **** #ifdef __OO_HAS_ERRORHOOK__
  74:Generated_Source\PSoC5/ErikaOS_1_ee_oo_internal.inc **** /* Error Parameters Data Structure Utilities Macros from user space */
  75:Generated_Source\PSoC5/ErikaOS_1_ee_oo_internal.inc **** #define EE_OS_ERROR_PARAMETERS()  EE_oo_ErrorHook_parameters error_parameters
  76:Generated_Source\PSoC5/ErikaOS_1_ee_oo_internal.inc **** 
  77:Generated_Source\PSoC5/ErikaOS_1_ee_oo_internal.inc **** #define EE_OS_ERROR_PARAMETERS_INIT(param1_in,param2_in,param3_in)  \
  78:Generated_Source\PSoC5/ErikaOS_1_ee_oo_internal.inc ****   EE_oo_ErrorHook_parameters error_parameters = { param1_in, param2_in, \
  79:Generated_Source\PSoC5/ErikaOS_1_ee_oo_internal.inc ****     param3_in }
  80:Generated_Source\PSoC5/ErikaOS_1_ee_oo_internal.inc **** 
  81:Generated_Source\PSoC5/ErikaOS_1_ee_oo_internal.inc **** #define EE_OS_ERROR_PARAMETERS_PARAM1_VALUE(param1_value) \
  82:Generated_Source\PSoC5/ErikaOS_1_ee_oo_internal.inc ****   (error_parameters.param1.value_param = param1_value)
  83:Generated_Source\PSoC5/ErikaOS_1_ee_oo_internal.inc **** #define EE_OS_ERROR_PARAMETERS_PARAM2_VALUE(param2_value) \
  84:Generated_Source\PSoC5/ErikaOS_1_ee_oo_internal.inc ****   (error_parameters.param2.value_param = param2_value)
  85:Generated_Source\PSoC5/ErikaOS_1_ee_oo_internal.inc **** #define EE_OS_ERROR_PARAMETERS_PARAM3_VALUE(param3_value) \
  86:Generated_Source\PSoC5/ErikaOS_1_ee_oo_internal.inc ****   (error_parameters.param3.value_param = param3_value)
  87:Generated_Source\PSoC5/ErikaOS_1_ee_oo_internal.inc **** 
  88:Generated_Source\PSoC5/ErikaOS_1_ee_oo_internal.inc **** #define EE_OS_ERROR_PARAMETERS_PARAM1_REF(param_field,param_ref)  \
  89:Generated_Source\PSoC5/ErikaOS_1_ee_oo_internal.inc ****   (error_parameters.param1.param_field = (param_ref))
  90:Generated_Source\PSoC5/ErikaOS_1_ee_oo_internal.inc **** #define EE_OS_ERROR_PARAMETERS_PARAM2_REF(param_field,param_ref)  \
  91:Generated_Source\PSoC5/ErikaOS_1_ee_oo_internal.inc ****   (error_parameters.param2.param_field = (param_ref))
  92:Generated_Source\PSoC5/ErikaOS_1_ee_oo_internal.inc **** #define EE_OS_ERROR_PARAMETERS_PARAM3_REF(param_field,param_ref)  \
  93:Generated_Source\PSoC5/ErikaOS_1_ee_oo_internal.inc ****   (error_parameters.param3.param_field = (param_ref))
  94:Generated_Source\PSoC5/ErikaOS_1_ee_oo_internal.inc **** #else /* __OO_HAS_ERRORHOOK__ */
  95:Generated_Source\PSoC5/ErikaOS_1_ee_oo_internal.inc **** #define EE_OS_ERROR_PARAMETERS()                                    ((void)0)
  96:Generated_Source\PSoC5/ErikaOS_1_ee_oo_internal.inc **** 
  97:Generated_Source\PSoC5/ErikaOS_1_ee_oo_internal.inc **** #define EE_OS_ERROR_PARAMETERS_INIT(param1_in,param2_in,param3_in)  ((void)0)
  98:Generated_Source\PSoC5/ErikaOS_1_ee_oo_internal.inc **** 
  99:Generated_Source\PSoC5/ErikaOS_1_ee_oo_internal.inc **** #define EE_OS_ERROR_PARAMETERS_PARAM1_VALUE(param1_value)           ((void)0)
 100:Generated_Source\PSoC5/ErikaOS_1_ee_oo_internal.inc **** #define EE_OS_ERROR_PARAMETERS_PARAM2_VALUE(param2_value)           ((void)0)
 101:Generated_Source\PSoC5/ErikaOS_1_ee_oo_internal.inc **** #define EE_OS_ERROR_PARAMETERS_PARAM3_VALUE(param3_value)           ((void)0)
 102:Generated_Source\PSoC5/ErikaOS_1_ee_oo_internal.inc **** 
 103:Generated_Source\PSoC5/ErikaOS_1_ee_oo_internal.inc **** #define EE_OS_ERROR_PARAMETERS_PARAM1_REF(param_field,param_ref)    ((void)0)
 104:Generated_Source\PSoC5/ErikaOS_1_ee_oo_internal.inc **** #define EE_OS_ERROR_PARAMETERS_PARAM2_REF(param_field,param_ref)    ((void)0)
 105:Generated_Source\PSoC5/ErikaOS_1_ee_oo_internal.inc **** #define EE_OS_ERROR_PARAMETERS_PARAM3_REF(param_field,param_ref)    ((void)0)
 106:Generated_Source\PSoC5/ErikaOS_1_ee_oo_internal.inc **** #endif /* __OO_HAS_ERRORHOOK__ */
 107:Generated_Source\PSoC5/ErikaOS_1_ee_oo_internal.inc **** 
 108:Generated_Source\PSoC5/ErikaOS_1_ee_oo_internal.inc **** /* Error Handling */
 109:Generated_Source\PSoC5/ErikaOS_1_ee_oo_internal.inc **** #ifdef __OO_HAS_ERRORHOOK__
 110:Generated_Source\PSoC5/ErikaOS_1_ee_oo_internal.inc **** #ifndef  __OO_ERRORHOOK_NOMACROS__
 111:Generated_Source\PSoC5/ErikaOS_1_ee_oo_internal.inc **** 
 112:Generated_Source\PSoC5/ErikaOS_1_ee_oo_internal.inc **** __INLINE__ void  EE_os_fill_error_data( OSServiceIdType
 113:Generated_Source\PSoC5/ErikaOS_1_ee_oo_internal.inc ****   ServiceID, EE_os_param param1, EE_os_param param2, EE_os_param param3 )
 114:Generated_Source\PSoC5/ErikaOS_1_ee_oo_internal.inc **** {
 115:Generated_Source\PSoC5/ErikaOS_1_ee_oo_internal.inc ****   register EE_oo_ErrorHook_parameters * const
 116:Generated_Source\PSoC5/ErikaOS_1_ee_oo_internal.inc ****     p_errorhook_parameter = EE_oo_get_errorhook_data();
 117:Generated_Source\PSoC5/ErikaOS_1_ee_oo_internal.inc ****   (*EE_oo_get_errorhook_service_id()) = ServiceID;
 118:Generated_Source\PSoC5/ErikaOS_1_ee_oo_internal.inc ****   p_errorhook_parameter->param1 = param1;
 119:Generated_Source\PSoC5/ErikaOS_1_ee_oo_internal.inc ****   p_errorhook_parameter->param2 = param2;
 120:Generated_Source\PSoC5/ErikaOS_1_ee_oo_internal.inc ****   p_errorhook_parameter->param3 = param3;
 121:Generated_Source\PSoC5/ErikaOS_1_ee_oo_internal.inc **** }
 122:Generated_Source\PSoC5/ErikaOS_1_ee_oo_internal.inc **** #else /* !__OO_ERRORHOOK_NOMACROS__ */
ARM GAS  C:\Users\Asus\AppData\Local\Temp\ccDAHDPn.s 			page 10


 123:Generated_Source\PSoC5/ErikaOS_1_ee_oo_internal.inc **** 
 124:Generated_Source\PSoC5/ErikaOS_1_ee_oo_internal.inc **** #define EE_os_fill_error_data(ServiceID,param1,param2,param3) ((void)0)
 125:Generated_Source\PSoC5/ErikaOS_1_ee_oo_internal.inc **** #endif /* !__OO_ERRORHOOK_NOMACROS__ */
 126:Generated_Source\PSoC5/ErikaOS_1_ee_oo_internal.inc **** 
 127:Generated_Source\PSoC5/ErikaOS_1_ee_oo_internal.inc **** __INLINE__ void  EE_os_notify_error( OSServiceIdType ServiceID,
 128:Generated_Source\PSoC5/ErikaOS_1_ee_oo_internal.inc ****   EE_os_param param1, EE_os_param param2, EE_os_param param3,
 129:Generated_Source\PSoC5/ErikaOS_1_ee_oo_internal.inc ****   StatusType Error )
 130:Generated_Source\PSoC5/ErikaOS_1_ee_oo_internal.inc **** {
 131:Generated_Source\PSoC5/ErikaOS_1_ee_oo_internal.inc ****   EE_ORTI_set_lasterror(Error);
 132:Generated_Source\PSoC5/ErikaOS_1_ee_oo_internal.inc ****   if ( EE_ErrorHook_nested_flag == 0U )
 133:Generated_Source\PSoC5/ErikaOS_1_ee_oo_internal.inc ****   {
 134:Generated_Source\PSoC5/ErikaOS_1_ee_oo_internal.inc ****     EE_os_fill_error_data(ServiceID, param1, param2, param3);
 135:Generated_Source\PSoC5/ErikaOS_1_ee_oo_internal.inc ****     EE_ErrorHook_nested_flag = 1U;
 136:Generated_Source\PSoC5/ErikaOS_1_ee_oo_internal.inc ****     EE_oo_call_ErrorHook(Error);
 137:Generated_Source\PSoC5/ErikaOS_1_ee_oo_internal.inc ****     EE_ErrorHook_nested_flag = 0U;
 138:Generated_Source\PSoC5/ErikaOS_1_ee_oo_internal.inc ****   }
 139:Generated_Source\PSoC5/ErikaOS_1_ee_oo_internal.inc **** }
 140:Generated_Source\PSoC5/ErikaOS_1_ee_oo_internal.inc **** 
 141:Generated_Source\PSoC5/ErikaOS_1_ee_oo_internal.inc **** #ifndef __EE_MEMORY_PROTECTION__
 142:Generated_Source\PSoC5/ErikaOS_1_ee_oo_internal.inc **** __INLINE__ void  EE_os_notify_error_from_us(
 143:Generated_Source\PSoC5/ErikaOS_1_ee_oo_internal.inc ****   OSServiceIdType ServiceID, const EE_oo_ErrorHook_parameters * const
 144:Generated_Source\PSoC5/ErikaOS_1_ee_oo_internal.inc ****     error_parameters_ref, StatusType Error )
 145:Generated_Source\PSoC5/ErikaOS_1_ee_oo_internal.inc **** {
 146:Generated_Source\PSoC5/ErikaOS_1_ee_oo_internal.inc ****   if ( error_parameters_ref != NULL ) {
 147:Generated_Source\PSoC5/ErikaOS_1_ee_oo_internal.inc ****     register EE_FREG const flag = EE_hal_begin_nested_primitive();
 148:Generated_Source\PSoC5/ErikaOS_1_ee_oo_internal.inc ****     EE_os_notify_error(ServiceID, error_parameters_ref->param1,
 149:Generated_Source\PSoC5/ErikaOS_1_ee_oo_internal.inc ****       error_parameters_ref->param2, error_parameters_ref->param3, Error);
 150:Generated_Source\PSoC5/ErikaOS_1_ee_oo_internal.inc ****     EE_hal_end_nested_primitive(flag);
 151:Generated_Source\PSoC5/ErikaOS_1_ee_oo_internal.inc ****   }
 152:Generated_Source\PSoC5/ErikaOS_1_ee_oo_internal.inc **** }
 153:Generated_Source\PSoC5/ErikaOS_1_ee_oo_internal.inc **** #else /* !__EE_MEMORY_PROTECTION__ */
 154:Generated_Source\PSoC5/ErikaOS_1_ee_oo_internal.inc **** /* If MemMap.h support is enabled (i.e. because memory protection): use it */
 155:Generated_Source\PSoC5/ErikaOS_1_ee_oo_internal.inc **** #ifdef EE_SUPPORT_MEMMAP_H
 156:Generated_Source\PSoC5/ErikaOS_1_ee_oo_internal.inc **** /* The following code belong to ERIKA API section ee_api_text */
 157:Generated_Source\PSoC5/ErikaOS_1_ee_oo_internal.inc **** #define API_START_SEC_CODE
 158:Generated_Source\PSoC5/ErikaOS_1_ee_oo_internal.inc **** #include "MemMap.inc"
 159:Generated_Source\PSoC5/ErikaOS_1_ee_oo_internal.inc **** #endif /* EE_SUPPORT_MEMMAP_H */
 160:Generated_Source\PSoC5/ErikaOS_1_ee_oo_internal.inc **** 
 161:Generated_Source\PSoC5/ErikaOS_1_ee_oo_internal.inc **** void EE_os_notify_error_from_us( OSServiceIdType ServiceID,
 162:Generated_Source\PSoC5/ErikaOS_1_ee_oo_internal.inc ****   const EE_oo_ErrorHook_parameters * const error_parameters_ref,
 163:Generated_Source\PSoC5/ErikaOS_1_ee_oo_internal.inc ****   StatusType Error );
 164:Generated_Source\PSoC5/ErikaOS_1_ee_oo_internal.inc **** 
 165:Generated_Source\PSoC5/ErikaOS_1_ee_oo_internal.inc **** #ifdef EE_SUPPORT_MEMMAP_H
 166:Generated_Source\PSoC5/ErikaOS_1_ee_oo_internal.inc **** #define API_STOP_SEC_CODE
 167:Generated_Source\PSoC5/ErikaOS_1_ee_oo_internal.inc **** #include "MemMap.inc"
 168:Generated_Source\PSoC5/ErikaOS_1_ee_oo_internal.inc **** #endif /* EE_SUPPORT_MEMMAP_H */
 169:Generated_Source\PSoC5/ErikaOS_1_ee_oo_internal.inc **** #endif /* !__EE_MEMORY_PROTECTION__ */
 170:Generated_Source\PSoC5/ErikaOS_1_ee_oo_internal.inc **** #else /* __OO_HAS_ERRORHOOK__ */
 171:Generated_Source\PSoC5/ErikaOS_1_ee_oo_internal.inc **** 
 172:Generated_Source\PSoC5/ErikaOS_1_ee_oo_internal.inc **** /* Macro used for remapping to prevent compiler warnings on unused parameters */
 173:Generated_Source\PSoC5/ErikaOS_1_ee_oo_internal.inc **** #define EE_os_notify_error(k,j,x,y,z) EE_os_notify_error_impl(z)
 174:Generated_Source\PSoC5/ErikaOS_1_ee_oo_internal.inc **** 
 175:Generated_Source\PSoC5/ErikaOS_1_ee_oo_internal.inc **** __INLINE__ void  EE_os_notify_error_impl(StatusType Error)
 176:Generated_Source\PSoC5/ErikaOS_1_ee_oo_internal.inc **** {
 177:Generated_Source\PSoC5/ErikaOS_1_ee_oo_internal.inc ****   EE_ORTI_set_lasterror(Error);
 178:Generated_Source\PSoC5/ErikaOS_1_ee_oo_internal.inc **** }
 179:Generated_Source\PSoC5/ErikaOS_1_ee_oo_internal.inc **** 
ARM GAS  C:\Users\Asus\AppData\Local\Temp\ccDAHDPn.s 			page 11


 180:Generated_Source\PSoC5/ErikaOS_1_ee_oo_internal.inc **** /* Macro used for remapping to prevent compiler warnings on unused parameters */
 181:Generated_Source\PSoC5/ErikaOS_1_ee_oo_internal.inc **** #define EE_os_notify_error_from_us(x,y,z) EE_os_notify_error_from_us_impl(z)
 182:Generated_Source\PSoC5/ErikaOS_1_ee_oo_internal.inc **** 
 183:Generated_Source\PSoC5/ErikaOS_1_ee_oo_internal.inc **** __INLINE__ void  EE_os_notify_error_from_us_impl(
 184:Generated_Source\PSoC5/ErikaOS_1_ee_oo_internal.inc ****   StatusType Error )
 185:Generated_Source\PSoC5/ErikaOS_1_ee_oo_internal.inc **** {
 186:Generated_Source\PSoC5/ErikaOS_1_ee_oo_internal.inc ****   EE_ORTI_set_lasterror(Error);
 187:Generated_Source\PSoC5/ErikaOS_1_ee_oo_internal.inc **** }
 188:Generated_Source\PSoC5/ErikaOS_1_ee_oo_internal.inc **** #endif /* __OO_HAS_ERRORHOOK__ */
 189:Generated_Source\PSoC5/ErikaOS_1_ee_oo_internal.inc **** 
 190:Generated_Source\PSoC5/ErikaOS_1_ee_oo_internal.inc **** /*******************************************************************************
 191:Generated_Source\PSoC5/ErikaOS_1_ee_oo_internal.inc ****  *                  Kernel Critical Section Utility Macros
 192:Generated_Source\PSoC5/ErikaOS_1_ee_oo_internal.inc ****  ******************************************************************************/
 193:Generated_Source\PSoC5/ErikaOS_1_ee_oo_internal.inc **** #ifndef __EE_MEMORY_PROTECTION__
 194:Generated_Source\PSoC5/ErikaOS_1_ee_oo_internal.inc **** 
 195:Generated_Source\PSoC5/ErikaOS_1_ee_oo_internal.inc **** #define EE_OS_DECLARE_CRITICAL_SECTION()  register EE_FREG flag
 196:Generated_Source\PSoC5/ErikaOS_1_ee_oo_internal.inc **** 
 197:Generated_Source\PSoC5/ErikaOS_1_ee_oo_internal.inc **** #define EE_OS_ENTER_CRITICAL_SECTION()          \
 198:Generated_Source\PSoC5/ErikaOS_1_ee_oo_internal.inc ****   do {                                          \
 199:Generated_Source\PSoC5/ErikaOS_1_ee_oo_internal.inc ****     flag = EE_hal_begin_nested_primitive();     \
 200:Generated_Source\PSoC5/ErikaOS_1_ee_oo_internal.inc ****     EE_as_tp_active_pause_and_update_budgets(); \
 201:Generated_Source\PSoC5/ErikaOS_1_ee_oo_internal.inc ****   } while ( 0 )
 202:Generated_Source\PSoC5/ErikaOS_1_ee_oo_internal.inc **** 
 203:Generated_Source\PSoC5/ErikaOS_1_ee_oo_internal.inc **** #define EE_OS_DECLARE_AND_ENTER_CRITICAL_SECTION()  \
 204:Generated_Source\PSoC5/ErikaOS_1_ee_oo_internal.inc ****   EE_OS_DECLARE_CRITICAL_SECTION();                 \
 205:Generated_Source\PSoC5/ErikaOS_1_ee_oo_internal.inc ****   EE_OS_ENTER_CRITICAL_SECTION()
 206:Generated_Source\PSoC5/ErikaOS_1_ee_oo_internal.inc **** 
 207:Generated_Source\PSoC5/ErikaOS_1_ee_oo_internal.inc **** #define EE_OS_EXIT_CRITICAL_SECTION()             \
 208:Generated_Source\PSoC5/ErikaOS_1_ee_oo_internal.inc ****   do {                                            \
 209:Generated_Source\PSoC5/ErikaOS_1_ee_oo_internal.inc ****     EE_as_tp_active_update_budgets_and_restart(); \
 210:Generated_Source\PSoC5/ErikaOS_1_ee_oo_internal.inc ****     EE_hal_end_nested_primitive(flag);            \
 211:Generated_Source\PSoC5/ErikaOS_1_ee_oo_internal.inc ****   } while ( 0 )
 212:Generated_Source\PSoC5/ErikaOS_1_ee_oo_internal.inc **** 
 213:Generated_Source\PSoC5/ErikaOS_1_ee_oo_internal.inc **** #define EE_OS_FOREVER_CRITICAL_SECTION()          \
 214:Generated_Source\PSoC5/ErikaOS_1_ee_oo_internal.inc ****   do {                                            \
 215:Generated_Source\PSoC5/ErikaOS_1_ee_oo_internal.inc ****     EE_hal_disableIRQ();                          \
 216:Generated_Source\PSoC5/ErikaOS_1_ee_oo_internal.inc ****     EE_as_tp_active_pause_and_update_budgets();   \
 217:Generated_Source\PSoC5/ErikaOS_1_ee_oo_internal.inc ****   } while ( 0 )
 218:Generated_Source\PSoC5/ErikaOS_1_ee_oo_internal.inc **** 
 219:Generated_Source\PSoC5/ErikaOS_1_ee_oo_internal.inc **** #else /* !__EE_MEMORY_PROTECTION__ */
 220:Generated_Source\PSoC5/ErikaOS_1_ee_oo_internal.inc **** /* TP in any case have to be handled in Service Implementation. Syscall
 221:Generated_Source\PSoC5/ErikaOS_1_ee_oo_internal.inc ****    mechanism can be implement in C language and, in that case, a function call
 222:Generated_Source\PSoC5/ErikaOS_1_ee_oo_internal.inc ****    cannot be done in syscall handler. */
 223:Generated_Source\PSoC5/ErikaOS_1_ee_oo_internal.inc **** #define EE_OS_DECLARE_CRITICAL_SECTION()            ((void)0)
 224:Generated_Source\PSoC5/ErikaOS_1_ee_oo_internal.inc **** #define EE_OS_ENTER_CRITICAL_SECTION()              \
 225:Generated_Source\PSoC5/ErikaOS_1_ee_oo_internal.inc ****   EE_as_tp_active_pause_and_update_budgets()
 226:Generated_Source\PSoC5/ErikaOS_1_ee_oo_internal.inc **** #define EE_OS_DECLARE_AND_ENTER_CRITICAL_SECTION()  \
 227:Generated_Source\PSoC5/ErikaOS_1_ee_oo_internal.inc ****   EE_as_tp_active_pause_and_update_budgets()
 228:Generated_Source\PSoC5/ErikaOS_1_ee_oo_internal.inc **** #define EE_OS_EXIT_CRITICAL_SECTION()               \
 229:Generated_Source\PSoC5/ErikaOS_1_ee_oo_internal.inc ****   EE_as_tp_active_update_budgets_and_restart()
 230:Generated_Source\PSoC5/ErikaOS_1_ee_oo_internal.inc **** #define EE_OS_FOREVER_CRITICAL_SECTION()			\
 231:Generated_Source\PSoC5/ErikaOS_1_ee_oo_internal.inc ****   EE_as_tp_active_pause_and_update_budgets()
 232:Generated_Source\PSoC5/ErikaOS_1_ee_oo_internal.inc **** #endif /* !__EE_MEMORY_PROTECTION__ */
 233:Generated_Source\PSoC5/ErikaOS_1_ee_oo_internal.inc **** 
 234:Generated_Source\PSoC5/ErikaOS_1_ee_oo_internal.inc **** /* return the first stacked task (the running task) without extracting it 
 235:Generated_Source\PSoC5/ErikaOS_1_ee_oo_internal.inc ****    we suppose that this function can be called ALSO at interrupt ENABLED!!!
 236:Generated_Source\PSoC5/ErikaOS_1_ee_oo_internal.inc ****    (see WaitEvent.c) */
ARM GAS  C:\Users\Asus\AppData\Local\Temp\ccDAHDPn.s 			page 12


 237:Generated_Source\PSoC5/ErikaOS_1_ee_oo_internal.inc **** #ifndef __PRIVATE_STK_QUERYFIRST__
 238:Generated_Source\PSoC5/ErikaOS_1_ee_oo_internal.inc **** __INLINE__ EE_TID  EE_stk_queryfirst(void)
 239:Generated_Source\PSoC5/ErikaOS_1_ee_oo_internal.inc **** {
 240:Generated_Source\PSoC5/ErikaOS_1_ee_oo_internal.inc ****     return EE_stkfirst;  
  63              		.loc 3 240 0
  64 0008 274B     		ldr	r3, .L10
  65 000a 1D68     		ldr	r5, [r3]
  66              	.LBE64:
  67              	.LBE63:
  69:Generated_Source\PSoC5/ErikaOS_1_ee_schedule.c ****   register EE_TID current, rq;
  70:Generated_Source\PSoC5/ErikaOS_1_ee_schedule.c ****   /* Error Value */
  71:Generated_Source\PSoC5/ErikaOS_1_ee_schedule.c ****   register StatusType ev;
  72:Generated_Source\PSoC5/ErikaOS_1_ee_schedule.c ****   /* Primitive Lock Procedure */
  73:Generated_Source\PSoC5/ErikaOS_1_ee_schedule.c ****   EE_OS_DECLARE_AND_ENTER_CRITICAL_SECTION();
  74:Generated_Source\PSoC5/ErikaOS_1_ee_schedule.c **** 
  75:Generated_Source\PSoC5/ErikaOS_1_ee_schedule.c ****   EE_ORTI_set_service_in(EE_SERVICETRACE_SCHEDULE);
  76:Generated_Source\PSoC5/ErikaOS_1_ee_schedule.c **** 
  77:Generated_Source\PSoC5/ErikaOS_1_ee_schedule.c ****   EE_as_monitoring_the_stack();
  78:Generated_Source\PSoC5/ErikaOS_1_ee_schedule.c **** 
  79:Generated_Source\PSoC5/ErikaOS_1_ee_schedule.c ****   current = EE_stk_queryfirst();
  80:Generated_Source\PSoC5/ErikaOS_1_ee_schedule.c ****   rq = EE_rq_queryfirst();
  68              		.loc 1 80 0
  69 000c FFF7FEFF 		bl	EE_rq_queryfirst
  70              	.LVL2:
  71              	.LBB65:
  72              	.LBB66:
  73              		.file 4 "Generated_Source\\PSoC5\\ErikaOS_1_common_ee_primitives.inc"
   1:Generated_Source\PSoC5/ErikaOS_1_common_ee_primitives.inc **** /* ###*B*###
   2:Generated_Source\PSoC5/ErikaOS_1_common_ee_primitives.inc ****  * ERIKA Enterprise - a tiny RTOS for small microcontrollers
   3:Generated_Source\PSoC5/ErikaOS_1_common_ee_primitives.inc ****  *
   4:Generated_Source\PSoC5/ErikaOS_1_common_ee_primitives.inc ****  * Copyright (C) 2002-2009  Evidence Srl
   5:Generated_Source\PSoC5/ErikaOS_1_common_ee_primitives.inc ****  *
   6:Generated_Source\PSoC5/ErikaOS_1_common_ee_primitives.inc ****  * This file is part of ERIKA Enterprise.
   7:Generated_Source\PSoC5/ErikaOS_1_common_ee_primitives.inc ****  *
   8:Generated_Source\PSoC5/ErikaOS_1_common_ee_primitives.inc ****  * ERIKA Enterprise is free software; you can redistribute it
   9:Generated_Source\PSoC5/ErikaOS_1_common_ee_primitives.inc ****  * and/or modify it under the terms of the GNU General Public License
  10:Generated_Source\PSoC5/ErikaOS_1_common_ee_primitives.inc ****  * version 2 as published by the Free Software Foundation, 
  11:Generated_Source\PSoC5/ErikaOS_1_common_ee_primitives.inc ****  * (with a special exception described below).
  12:Generated_Source\PSoC5/ErikaOS_1_common_ee_primitives.inc ****  *
  13:Generated_Source\PSoC5/ErikaOS_1_common_ee_primitives.inc ****  * Linking this code statically or dynamically with other modules is
  14:Generated_Source\PSoC5/ErikaOS_1_common_ee_primitives.inc ****  * making a combined work based on this code.  Thus, the terms and
  15:Generated_Source\PSoC5/ErikaOS_1_common_ee_primitives.inc ****  * conditions of the GNU General Public License cover the whole
  16:Generated_Source\PSoC5/ErikaOS_1_common_ee_primitives.inc ****  * combination.
  17:Generated_Source\PSoC5/ErikaOS_1_common_ee_primitives.inc ****  *
  18:Generated_Source\PSoC5/ErikaOS_1_common_ee_primitives.inc ****  * As a special exception, the copyright holders of this library give you
  19:Generated_Source\PSoC5/ErikaOS_1_common_ee_primitives.inc ****  * permission to link this code with independent modules to produce an
  20:Generated_Source\PSoC5/ErikaOS_1_common_ee_primitives.inc ****  * executable, regardless of the license terms of these independent
  21:Generated_Source\PSoC5/ErikaOS_1_common_ee_primitives.inc ****  * modules, and to copy and distribute the resulting executable under
  22:Generated_Source\PSoC5/ErikaOS_1_common_ee_primitives.inc ****  * terms of your choice, provided that you also meet, for each linked
  23:Generated_Source\PSoC5/ErikaOS_1_common_ee_primitives.inc ****  * independent module, the terms and conditions of the license of that
  24:Generated_Source\PSoC5/ErikaOS_1_common_ee_primitives.inc ****  * module.  An independent module is a module which is not derived from
  25:Generated_Source\PSoC5/ErikaOS_1_common_ee_primitives.inc ****  * or based on this library.  If you modify this code, you may extend
  26:Generated_Source\PSoC5/ErikaOS_1_common_ee_primitives.inc ****  * this exception to your version of the code, but you are not
  27:Generated_Source\PSoC5/ErikaOS_1_common_ee_primitives.inc ****  * obligated to do so.  If you do not wish to do so, delete this
  28:Generated_Source\PSoC5/ErikaOS_1_common_ee_primitives.inc ****  * exception statement from your version.
  29:Generated_Source\PSoC5/ErikaOS_1_common_ee_primitives.inc ****  *
  30:Generated_Source\PSoC5/ErikaOS_1_common_ee_primitives.inc ****  * ERIKA Enterprise is distributed in the hope that it will be
ARM GAS  C:\Users\Asus\AppData\Local\Temp\ccDAHDPn.s 			page 13


  31:Generated_Source\PSoC5/ErikaOS_1_common_ee_primitives.inc ****  * useful, but WITHOUT ANY WARRANTY; without even the implied warranty
  32:Generated_Source\PSoC5/ErikaOS_1_common_ee_primitives.inc ****  * of MERCHANTABILITY or FITNESS FOR A PARTICULAR PURPOSE.  See the
  33:Generated_Source\PSoC5/ErikaOS_1_common_ee_primitives.inc ****  * GNU General Public License version 2 for more details.
  34:Generated_Source\PSoC5/ErikaOS_1_common_ee_primitives.inc ****  *
  35:Generated_Source\PSoC5/ErikaOS_1_common_ee_primitives.inc ****  * You should have received a copy of the GNU General Public License
  36:Generated_Source\PSoC5/ErikaOS_1_common_ee_primitives.inc ****  * version 2 along with ERIKA Enterprise; if not, write to the
  37:Generated_Source\PSoC5/ErikaOS_1_common_ee_primitives.inc ****  * Free Software Foundation, Inc., 51 Franklin Street, Fifth Floor,
  38:Generated_Source\PSoC5/ErikaOS_1_common_ee_primitives.inc ****  * Boston, MA 02110-1301 USA.
  39:Generated_Source\PSoC5/ErikaOS_1_common_ee_primitives.inc ****  * ###*E*### */
  40:Generated_Source\PSoC5/ErikaOS_1_common_ee_primitives.inc **** 
  41:Generated_Source\PSoC5/ErikaOS_1_common_ee_primitives.inc **** /*
  42:Generated_Source\PSoC5/ErikaOS_1_common_ee_primitives.inc ****  * Functions used in HAL implementations, to be included by a specific
  43:Generated_Source\PSoC5/ErikaOS_1_common_ee_primitives.inc ****  * ee_internal.h header.
  44:Generated_Source\PSoC5/ErikaOS_1_common_ee_primitives.inc ****  * Derived from pkg/cpu/pic30/inc/ee_internal.h
  45:Generated_Source\PSoC5/ErikaOS_1_common_ee_primitives.inc ****  * Author: 2009 Bernardo Dal Seno
  46:Generated_Source\PSoC5/ErikaOS_1_common_ee_primitives.inc ****  */
  47:Generated_Source\PSoC5/ErikaOS_1_common_ee_primitives.inc **** 
  48:Generated_Source\PSoC5/ErikaOS_1_common_ee_primitives.inc **** /*
  49:Generated_Source\PSoC5/ErikaOS_1_common_ee_primitives.inc ****  * PSoC Port and API Generation
  50:Generated_Source\PSoC5/ErikaOS_1_common_ee_primitives.inc ****  * Carlos Fernando Meier Martinez
  51:Generated_Source\PSoC5/ErikaOS_1_common_ee_primitives.inc ****  * Hochschule Darmstadt, Germany. 2017.
  52:Generated_Source\PSoC5/ErikaOS_1_common_ee_primitives.inc ****  */
  53:Generated_Source\PSoC5/ErikaOS_1_common_ee_primitives.inc **** 
  54:Generated_Source\PSoC5/ErikaOS_1_common_ee_primitives.inc **** #ifndef PKG_CPU_COMMON_INC_EE_PRIMITIVES_H
  55:Generated_Source\PSoC5/ErikaOS_1_common_ee_primitives.inc **** #define PKG_CPU_COMMON_INC_EE_PRIMITIVES_H
  56:Generated_Source\PSoC5/ErikaOS_1_common_ee_primitives.inc **** 
  57:Generated_Source\PSoC5/ErikaOS_1_common_ee_primitives.inc **** /*
  58:Generated_Source\PSoC5/ErikaOS_1_common_ee_primitives.inc ****  * Nested Interrupts Handling
  59:Generated_Source\PSoC5/ErikaOS_1_common_ee_primitives.inc ****  */
  60:Generated_Source\PSoC5/ErikaOS_1_common_ee_primitives.inc **** 
  61:Generated_Source\PSoC5/ErikaOS_1_common_ee_primitives.inc **** /* If MemMap.h support is enabled (i.e. because memory protection): use it */
  62:Generated_Source\PSoC5/ErikaOS_1_common_ee_primitives.inc **** #ifdef EE_SUPPORT_MEMMAP_H
  63:Generated_Source\PSoC5/ErikaOS_1_common_ee_primitives.inc **** /* The following variables belong to ERIKA OS section: ee_kernel_bss */
  64:Generated_Source\PSoC5/ErikaOS_1_common_ee_primitives.inc **** #define OS_START_SEC_VAR_NOINIT
  65:Generated_Source\PSoC5/ErikaOS_1_common_ee_primitives.inc **** #include "MemMap.inc"
  66:Generated_Source\PSoC5/ErikaOS_1_common_ee_primitives.inc **** #endif /* EE_SUPPORT_MEMMAP_H */
  67:Generated_Source\PSoC5/ErikaOS_1_common_ee_primitives.inc **** 
  68:Generated_Source\PSoC5/ErikaOS_1_common_ee_primitives.inc **** extern EE_UREG EE_IRQ_nesting_level;
  69:Generated_Source\PSoC5/ErikaOS_1_common_ee_primitives.inc **** 
  70:Generated_Source\PSoC5/ErikaOS_1_common_ee_primitives.inc **** /* If MemMap.h support is enabled (i.e. because memory protection): use it */
  71:Generated_Source\PSoC5/ErikaOS_1_common_ee_primitives.inc **** #ifdef EE_SUPPORT_MEMMAP_H
  72:Generated_Source\PSoC5/ErikaOS_1_common_ee_primitives.inc **** #define OS_STOP_SEC_VAR_NOINIT
  73:Generated_Source\PSoC5/ErikaOS_1_common_ee_primitives.inc **** #include "MemMap.inc"
  74:Generated_Source\PSoC5/ErikaOS_1_common_ee_primitives.inc **** #endif /* EE_SUPPORT_MEMMAP_H */
  75:Generated_Source\PSoC5/ErikaOS_1_common_ee_primitives.inc **** 
  76:Generated_Source\PSoC5/ErikaOS_1_common_ee_primitives.inc **** /* can be called with interrupt enabled */
  77:Generated_Source\PSoC5/ErikaOS_1_common_ee_primitives.inc **** __INLINE__ EE_UREG  EE_hal_get_IRQ_nesting_level(void)
  78:Generated_Source\PSoC5/ErikaOS_1_common_ee_primitives.inc **** {
  79:Generated_Source\PSoC5/ErikaOS_1_common_ee_primitives.inc ****     return EE_IRQ_nesting_level;
  74              		.loc 4 79 0
  75 0010 264B     		ldr	r3, .L10+4
  76 0012 1B68     		ldr	r3, [r3]
  77              	.LBE66:
  78              	.LBE65:
  81:Generated_Source\PSoC5/ErikaOS_1_ee_schedule.c **** 
  82:Generated_Source\PSoC5/ErikaOS_1_ee_schedule.c **** #ifdef EE_SERVICE_PROTECTION__
  83:Generated_Source\PSoC5/ErikaOS_1_ee_schedule.c ****   /* [OS093]: If interrupts are disabled/suspended by a Task/OsIsr and the
ARM GAS  C:\Users\Asus\AppData\Local\Temp\ccDAHDPn.s 			page 14


  84:Generated_Source\PSoC5/ErikaOS_1_ee_schedule.c ****       Task/OsIsr calls any OS service (excluding the interrupt services)
  85:Generated_Source\PSoC5/ErikaOS_1_ee_schedule.c ****       then the Operating System shall ignore the service AND shall return
  86:Generated_Source\PSoC5/ErikaOS_1_ee_schedule.c ****       E_OS_DISABLEDINT if the service returns a StatusType value. */
  87:Generated_Source\PSoC5/ErikaOS_1_ee_schedule.c ****   if ( EE_oo_check_disableint_error() ) {
  88:Generated_Source\PSoC5/ErikaOS_1_ee_schedule.c ****     ev = E_OS_DISABLEDINT;
  89:Generated_Source\PSoC5/ErikaOS_1_ee_schedule.c ****   } else
  90:Generated_Source\PSoC5/ErikaOS_1_ee_schedule.c **** #endif /* EE_SERVICE_PROTECTION__ */
  91:Generated_Source\PSoC5/ErikaOS_1_ee_schedule.c **** 
  92:Generated_Source\PSoC5/ErikaOS_1_ee_schedule.c **** #if (defined(__OO_EXTENDED_STATUS__)) || (defined(EE_SERVICE_PROTECTION__))
  93:Generated_Source\PSoC5/ErikaOS_1_ee_schedule.c ****   /* [OS088]: If an OS-Application makes a service call from the wrong context
  94:Generated_Source\PSoC5/ErikaOS_1_ee_schedule.c ****       AND is currently not inside a Category 1 ISR the Operating System module
  95:Generated_Source\PSoC5/ErikaOS_1_ee_schedule.c ****       shall not perform the requested action (the service call shall have no
  96:Generated_Source\PSoC5/ErikaOS_1_ee_schedule.c ****       effect), and return E_OS_CALLEVEL (see [12], section 13.1) or the
  97:Generated_Source\PSoC5/ErikaOS_1_ee_schedule.c ****       "invalid value" of  the service. (BSW11009, BSW11013) */
  98:Generated_Source\PSoC5/ErikaOS_1_ee_schedule.c ****   /* check for a call at interrupt level */
  99:Generated_Source\PSoC5/ErikaOS_1_ee_schedule.c ****   if ( (EE_hal_get_IRQ_nesting_level() != 0U) || (current == EE_NIL)
  79              		.loc 1 99 0
  80 0014 002B     		cmp	r3, #0
  81 0016 3CD1     		bne	.L5
  82              		.loc 1 99 0 is_stmt 0 discriminator 1
  83 0018 B5F1FF3F 		cmp	r5, #-1
  84 001c 3BD0     		beq	.L6
 100:Generated_Source\PSoC5/ErikaOS_1_ee_schedule.c **** #if !defined (EE_SERVICE_PROTECTION__)
 101:Generated_Source\PSoC5/ErikaOS_1_ee_schedule.c ****   ) /* If EE_SERVICE_PROTECTION__ is not defined the succeeding
 102:Generated_Source\PSoC5/ErikaOS_1_ee_schedule.c **** 	 * check is always FALSE, hence it is not needed  */
 103:Generated_Source\PSoC5/ErikaOS_1_ee_schedule.c **** #else
 104:Generated_Source\PSoC5/ErikaOS_1_ee_schedule.c ****   || (EE_as_get_execution_context() > TASK_Context) )
 105:Generated_Source\PSoC5/ErikaOS_1_ee_schedule.c **** #endif
 106:Generated_Source\PSoC5/ErikaOS_1_ee_schedule.c ****   {
 107:Generated_Source\PSoC5/ErikaOS_1_ee_schedule.c ****     ev = E_OS_CALLEVEL;
 108:Generated_Source\PSoC5/ErikaOS_1_ee_schedule.c ****   } else
 109:Generated_Source\PSoC5/ErikaOS_1_ee_schedule.c **** #endif /* __OO_EXTENDED_STATUS__ || EE_SERVICE_PROTECTION__ */
 110:Generated_Source\PSoC5/ErikaOS_1_ee_schedule.c **** 
 111:Generated_Source\PSoC5/ErikaOS_1_ee_schedule.c **** #ifdef __OO_EXTENDED_STATUS__
 112:Generated_Source\PSoC5/ErikaOS_1_ee_schedule.c **** #ifndef __OO_NO_RESOURCES__
 113:Generated_Source\PSoC5/ErikaOS_1_ee_schedule.c ****   /* check for busy resources */
 114:Generated_Source\PSoC5/ErikaOS_1_ee_schedule.c ****   if ( EE_th_resource_last[current] != EE_UREG_MINUS1 )
 115:Generated_Source\PSoC5/ErikaOS_1_ee_schedule.c ****   {
 116:Generated_Source\PSoC5/ErikaOS_1_ee_schedule.c ****     ev = E_OS_RESOURCE;
 117:Generated_Source\PSoC5/ErikaOS_1_ee_schedule.c ****   } else
 118:Generated_Source\PSoC5/ErikaOS_1_ee_schedule.c **** #endif /* __OO_NO_RESOURCES__ */
 119:Generated_Source\PSoC5/ErikaOS_1_ee_schedule.c **** 
 120:Generated_Source\PSoC5/ErikaOS_1_ee_schedule.c **** #ifdef EE_AS_USER_SPINLOCKS__
 121:Generated_Source\PSoC5/ErikaOS_1_ee_schedule.c ****   /* [OS624]: The AUTOSAR Operating System Schedule API service shall check if it
 122:Generated_Source\PSoC5/ErikaOS_1_ee_schedule.c ****       has been called while the calling TASK has occupied a spinlock. In
 123:Generated_Source\PSoC5/ErikaOS_1_ee_schedule.c ****       extended status an error E_OS_SPINLOCK shall be returned and the scheduler
 124:Generated_Source\PSoC5/ErikaOS_1_ee_schedule.c ****       shall not be called. (BSW4080021) */
 125:Generated_Source\PSoC5/ErikaOS_1_ee_schedule.c ****   if ( EE_as_has_spinlocks_locked(current) ) {
 126:Generated_Source\PSoC5/ErikaOS_1_ee_schedule.c ****     ev = E_OS_SPINLOCK;
 127:Generated_Source\PSoC5/ErikaOS_1_ee_schedule.c ****   } else
 128:Generated_Source\PSoC5/ErikaOS_1_ee_schedule.c **** #endif /* EE_AS_USER_SPINLOCKS__ */
 129:Generated_Source\PSoC5/ErikaOS_1_ee_schedule.c **** 
 130:Generated_Source\PSoC5/ErikaOS_1_ee_schedule.c **** #endif /* __OO_EXTENDED_STATUS__ */
 131:Generated_Source\PSoC5/ErikaOS_1_ee_schedule.c **** 
 132:Generated_Source\PSoC5/ErikaOS_1_ee_schedule.c **** #if (defined(EE_AS_OSAPPLICATIONS__)) && (defined(__EE_MEMORY_PROTECTION__))
 133:Generated_Source\PSoC5/ErikaOS_1_ee_schedule.c **** #if (defined(EE_SYSCALL_NR)) && (defined(EE_MAX_SYS_SERVICEID)) &&	\
 134:Generated_Source\PSoC5/ErikaOS_1_ee_schedule.c ****   (EE_SYSCALL_NR > EE_MAX_SYS_SERVICEID)
ARM GAS  C:\Users\Asus\AppData\Local\Temp\ccDAHDPn.s 			page 15


 135:Generated_Source\PSoC5/ErikaOS_1_ee_schedule.c ****   /*  If a TASK is inside CallTrustedFunction() and TASK
 136:Generated_Source\PSoC5/ErikaOS_1_ee_schedule.c ****       rescheduling takes place within the same OSApplication scheduling of
 137:Generated_Source\PSoC5/ErikaOS_1_ee_schedule.c ****       other TASKs which belong to the same OS-Application as the caller needs
 138:Generated_Source\PSoC5/ErikaOS_1_ee_schedule.c ****       to be restricted.
 139:Generated_Source\PSoC5/ErikaOS_1_ee_schedule.c ****       EG: To Assure that I CANNOT let a TASK release internal resource, if this
 140:Generated_Source\PSoC5/ErikaOS_1_ee_schedule.c ****         means schedule a TASK of the same OSApplication, unless the
 141:Generated_Source\PSoC5/ErikaOS_1_ee_schedule.c ****         OSApplication is TRUSTED. */
 142:Generated_Source\PSoC5/ErikaOS_1_ee_schedule.c ****   if (  (EE_as_active_app == EE_th_app[rq + 1]) &&
 143:Generated_Source\PSoC5/ErikaOS_1_ee_schedule.c ****         (EE_as_Application_RAM[EE_as_active_app].
 144:Generated_Source\PSoC5/ErikaOS_1_ee_schedule.c ****           TrustedFunctionCallsCounter != 0U) &&
 145:Generated_Source\PSoC5/ErikaOS_1_ee_schedule.c ****         (EE_as_Application_ROM[EE_as_active_app].Mode != EE_MEMPROT_TRUST_MODE )
 146:Generated_Source\PSoC5/ErikaOS_1_ee_schedule.c ****      )
 147:Generated_Source\PSoC5/ErikaOS_1_ee_schedule.c ****   {
 148:Generated_Source\PSoC5/ErikaOS_1_ee_schedule.c ****     ev = E_OK;
 149:Generated_Source\PSoC5/ErikaOS_1_ee_schedule.c ****   } else
 150:Generated_Source\PSoC5/ErikaOS_1_ee_schedule.c **** #endif /* EE_SYSCALL_NR > EE_MAX_SYS_SERVICEID */
 151:Generated_Source\PSoC5/ErikaOS_1_ee_schedule.c **** #endif /* EE_AS_OSAPPLICATIONS__ && __EE_MEMORY_PROTECTION__ */
 152:Generated_Source\PSoC5/ErikaOS_1_ee_schedule.c ****   /* Check if there is a preemption */
 153:Generated_Source\PSoC5/ErikaOS_1_ee_schedule.c ****   if ( rq != EE_NIL ) {
  85              		.loc 1 153 0 is_stmt 1
  86 001e B0F1FF3F 		cmp	r0, #-1
  87 0022 3AD0     		beq	.L7
 154:Generated_Source\PSoC5/ErikaOS_1_ee_schedule.c ****     /* The standard says that "Schedule enables a processor assignment
 155:Generated_Source\PSoC5/ErikaOS_1_ee_schedule.c ****        to other TASKs with lower priority than the ceiling priority of
 156:Generated_Source\PSoC5/ErikaOS_1_ee_schedule.c ****        the internal resource and higher priority than the priority of
 157:Generated_Source\PSoC5/ErikaOS_1_ee_schedule.c ****        the calling TASK". That means that only TASKs currently in the
 158:Generated_Source\PSoC5/ErikaOS_1_ee_schedule.c ****        ready queue with the ready priority > than the ready priority
 159:Generated_Source\PSoC5/ErikaOS_1_ee_schedule.c ****        of the running TASK can be executed... */
 160:Generated_Source\PSoC5/ErikaOS_1_ee_schedule.c ****     if ( EE_th_ready_prio[current] < EE_th_ready_prio[rq] ) {
  88              		.loc 1 160 0
  89 0024 224B     		ldr	r3, .L10+8
  90 0026 53F82560 		ldr	r6, [r3, r5, lsl #2]
  91 002a 53F82030 		ldr	r3, [r3, r0, lsl #2]
  92 002e 9E42     		cmp	r6, r3
  93 0030 35D2     		bcs	.L8
 161:Generated_Source\PSoC5/ErikaOS_1_ee_schedule.c ****       EE_oo_call_PostTaskHook();
 162:Generated_Source\PSoC5/ErikaOS_1_ee_schedule.c ****       /* release the internal resource */
 163:Generated_Source\PSoC5/ErikaOS_1_ee_schedule.c ****       EE_sys_ceiling &= ~EE_th_dispatch_prio[current];
  94              		.loc 1 163 0
  95 0032 204A     		ldr	r2, .L10+12
  96 0034 52F82570 		ldr	r7, [r2, r5, lsl #2]
  97 0038 DFF884E0 		ldr	lr, .L10+24
  98 003c DEF80030 		ldr	r3, [lr]
  99 0040 23EA0703 		bic	r3, r3, r7
 164:Generated_Source\PSoC5/ErikaOS_1_ee_schedule.c **** 
 165:Generated_Source\PSoC5/ErikaOS_1_ee_schedule.c ****       /* set the ready priority bit. In that way we prevent preemption
 166:Generated_Source\PSoC5/ErikaOS_1_ee_schedule.c ****        * from all the tasks with lower priority than the current task.
 167:Generated_Source\PSoC5/ErikaOS_1_ee_schedule.c ****        *
 168:Generated_Source\PSoC5/ErikaOS_1_ee_schedule.c ****        * NOTE: Setting the ready priority is legal because if the task
 169:Generated_Source\PSoC5/ErikaOS_1_ee_schedule.c ****        * has been scheduled it must be that the system_ceiling <
 170:Generated_Source\PSoC5/ErikaOS_1_ee_schedule.c ****        * ready_priority, and so (system_ceiling &ready_priority)=0!!!
 171:Generated_Source\PSoC5/ErikaOS_1_ee_schedule.c ****        * after a task has been put in execution, the dispatch priority
 172:Generated_Source\PSoC5/ErikaOS_1_ee_schedule.c ****        * is set. no other bits are set when this function is called
 173:Generated_Source\PSoC5/ErikaOS_1_ee_schedule.c ****        * (all the resources must be unlocked, and all the task that
 174:Generated_Source\PSoC5/ErikaOS_1_ee_schedule.c ****        * preempts the running task must have been finished!.
 175:Generated_Source\PSoC5/ErikaOS_1_ee_schedule.c ****        */
 176:Generated_Source\PSoC5/ErikaOS_1_ee_schedule.c ****       EE_sys_ceiling |= EE_th_ready_prio[current];
ARM GAS  C:\Users\Asus\AppData\Local\Temp\ccDAHDPn.s 			page 16


 100              		.loc 1 176 0
 101 0044 3343     		orrs	r3, r3, r6
 177:Generated_Source\PSoC5/ErikaOS_1_ee_schedule.c **** 
 178:Generated_Source\PSoC5/ErikaOS_1_ee_schedule.c ****       /* we have to put the task in the ready status */
 179:Generated_Source\PSoC5/ErikaOS_1_ee_schedule.c ****       EE_th_status[current] = READY;
 102              		.loc 1 179 0
 103 0046 1C49     		ldr	r1, .L10+16
 104 0048 4FF0020C 		mov	ip, #2
 105 004c 41F825C0 		str	ip, [r1, r5, lsl #2]
 180:Generated_Source\PSoC5/ErikaOS_1_ee_schedule.c ****       /* but not in the ready queue!!! 
 181:Generated_Source\PSoC5/ErikaOS_1_ee_schedule.c ****          the task remains into the stacked queue!
 182:Generated_Source\PSoC5/ErikaOS_1_ee_schedule.c ****       */
 183:Generated_Source\PSoC5/ErikaOS_1_ee_schedule.c **** 
 184:Generated_Source\PSoC5/ErikaOS_1_ee_schedule.c ****       /* get the new internal resource */
 185:Generated_Source\PSoC5/ErikaOS_1_ee_schedule.c ****       EE_sys_ceiling |= EE_th_dispatch_prio[rq];
 106              		.loc 1 185 0
 107 0050 52F82020 		ldr	r2, [r2, r0, lsl #2]
 108 0054 1343     		orrs	r3, r3, r2
 109 0056 CEF80030 		str	r3, [lr]
 186:Generated_Source\PSoC5/ErikaOS_1_ee_schedule.c ****       /* put the task in running state */
 187:Generated_Source\PSoC5/ErikaOS_1_ee_schedule.c ****       EE_th_status[rq] = RUNNING;
 110              		.loc 1 187 0
 111 005a 0023     		movs	r3, #0
 112 005c 41F82030 		str	r3, [r1, r0, lsl #2]
 113              	.LBB67:
 114              	.LBB68:
 241:Generated_Source\PSoC5/ErikaOS_1_ee_oo_internal.inc **** }
 242:Generated_Source\PSoC5/ErikaOS_1_ee_oo_internal.inc **** #endif /* __PRIVATE_STK_QUERYFIRST__ */
 243:Generated_Source\PSoC5/ErikaOS_1_ee_oo_internal.inc **** 
 244:Generated_Source\PSoC5/ErikaOS_1_ee_oo_internal.inc **** /* This function notifies a tick to a hardware counter.
 245:Generated_Source\PSoC5/ErikaOS_1_ee_oo_internal.inc ****    That is, the counter is
 246:Generated_Source\PSoC5/ErikaOS_1_ee_oo_internal.inc ****    incremented by 1.  It must be called into an ISR2 or into a
 247:Generated_Source\PSoC5/ErikaOS_1_ee_oo_internal.inc ****    task notify that the event linked to the counter occurred.
 248:Generated_Source\PSoC5/ErikaOS_1_ee_oo_internal.inc **** 
 249:Generated_Source\PSoC5/ErikaOS_1_ee_oo_internal.inc ****    The function will also implement the notification of expired alarms
 250:Generated_Source\PSoC5/ErikaOS_1_ee_oo_internal.inc ****    (calling an alarm callback, setting an event, or activating a
 251:Generated_Source\PSoC5/ErikaOS_1_ee_oo_internal.inc ****    task).
 252:Generated_Source\PSoC5/ErikaOS_1_ee_oo_internal.inc **** 
 253:Generated_Source\PSoC5/ErikaOS_1_ee_oo_internal.inc ****    The function can be considered atomic, and NO RESCHEDULING will
 254:Generated_Source\PSoC5/ErikaOS_1_ee_oo_internal.inc ****    take place after the execution of this function. To implement the
 255:Generated_Source\PSoC5/ErikaOS_1_ee_oo_internal.inc ****    rescheduling at task level, you can use the Schedule() or the
 256:Generated_Source\PSoC5/ErikaOS_1_ee_oo_internal.inc ****    ForceSchedule() functions just after this notification.
 257:Generated_Source\PSoC5/ErikaOS_1_ee_oo_internal.inc **** 
 258:Generated_Source\PSoC5/ErikaOS_1_ee_oo_internal.inc ****    see also internal.h
 259:Generated_Source\PSoC5/ErikaOS_1_ee_oo_internal.inc **** */
 260:Generated_Source\PSoC5/ErikaOS_1_ee_oo_internal.inc **** #if (!defined(__OO_NO_ALARMS__)) || (defined(EE_AS_SCHEDULETABLES__))
 261:Generated_Source\PSoC5/ErikaOS_1_ee_oo_internal.inc **** 
 262:Generated_Source\PSoC5/ErikaOS_1_ee_oo_internal.inc **** StatusType EE_oo_IncrementCounterHardware(CounterType CounterID);
 263:Generated_Source\PSoC5/ErikaOS_1_ee_oo_internal.inc **** void       EE_oo_IncrementCounterImplementation(CounterType CounterID);
 264:Generated_Source\PSoC5/ErikaOS_1_ee_oo_internal.inc **** 
 265:Generated_Source\PSoC5/ErikaOS_1_ee_oo_internal.inc **** /* kernel internal API */
 266:Generated_Source\PSoC5/ErikaOS_1_ee_oo_internal.inc **** #define IncrementCounterHardware EE_oo_IncrementCounterHardware
 267:Generated_Source\PSoC5/ErikaOS_1_ee_oo_internal.inc **** 
 268:Generated_Source\PSoC5/ErikaOS_1_ee_oo_internal.inc **** /* Helper function (0 as increment means next tick)*/
 269:Generated_Source\PSoC5/ErikaOS_1_ee_oo_internal.inc **** void EE_oo_counter_object_insert( CounterObjectType ObjectID, TickType
 270:Generated_Source\PSoC5/ErikaOS_1_ee_oo_internal.inc ****   increment );
 271:Generated_Source\PSoC5/ErikaOS_1_ee_oo_internal.inc **** 
ARM GAS  C:\Users\Asus\AppData\Local\Temp\ccDAHDPn.s 			page 17


 272:Generated_Source\PSoC5/ErikaOS_1_ee_oo_internal.inc **** #if defined (EE_COUNTER_OBJECTS_ROM_SIZE)
 273:Generated_Source\PSoC5/ErikaOS_1_ee_oo_internal.inc **** #if (EE_COUNTER_OBJECTS_ROM_SIZE > 0)
 274:Generated_Source\PSoC5/ErikaOS_1_ee_oo_internal.inc **** __INLINE__ void 
 275:Generated_Source\PSoC5/ErikaOS_1_ee_oo_internal.inc ****   EE_oo_handle_abs_counter_object_insertion( CounterObjectType ObjectID,
 276:Generated_Source\PSoC5/ErikaOS_1_ee_oo_internal.inc ****     TickType absstart, TickType abscycle ) 
 277:Generated_Source\PSoC5/ErikaOS_1_ee_oo_internal.inc **** {
 278:Generated_Source\PSoC5/ErikaOS_1_ee_oo_internal.inc ****   /* These are used to evaluate alarm time handling wrap around */
 279:Generated_Source\PSoC5/ErikaOS_1_ee_oo_internal.inc ****   register TickType           alarm_time;
 280:Generated_Source\PSoC5/ErikaOS_1_ee_oo_internal.inc ****   register TickType           start_rel;
 281:Generated_Source\PSoC5/ErikaOS_1_ee_oo_internal.inc ****   register CounterType const  cnt = EE_oo_counter_object_ROM[ObjectID].c;
 282:Generated_Source\PSoC5/ErikaOS_1_ee_oo_internal.inc **** 
 283:Generated_Source\PSoC5/ErikaOS_1_ee_oo_internal.inc ****   /* first, use the alarm and set the cycle */
 284:Generated_Source\PSoC5/ErikaOS_1_ee_oo_internal.inc ****   EE_oo_counter_object_RAM[ObjectID].used = EE_TRUE;
 285:Generated_Source\PSoC5/ErikaOS_1_ee_oo_internal.inc ****   EE_oo_counter_object_RAM[ObjectID].cntcycle = abscycle;
 286:Generated_Source\PSoC5/ErikaOS_1_ee_oo_internal.inc **** 
 287:Generated_Source\PSoC5/ErikaOS_1_ee_oo_internal.inc ****   /* Handling wrap around for alarm time */
 288:Generated_Source\PSoC5/ErikaOS_1_ee_oo_internal.inc ****   start_rel = absstart - EE_counter_RAM[cnt].value;
 289:Generated_Source\PSoC5/ErikaOS_1_ee_oo_internal.inc **** 
 290:Generated_Source\PSoC5/ErikaOS_1_ee_oo_internal.inc ****   /*  When will be here start value will be already checked against counter
 291:Generated_Source\PSoC5/ErikaOS_1_ee_oo_internal.inc ****       max allowed value */
 292:Generated_Source\PSoC5/ErikaOS_1_ee_oo_internal.inc ****   if ( start_rel == 0U ) {
 293:Generated_Source\PSoC5/ErikaOS_1_ee_oo_internal.inc ****     /* start_rel == 0U -> the alarm should start now or next time that counter
 294:Generated_Source\PSoC5/ErikaOS_1_ee_oo_internal.inc ****        has this value. Has been chosen the second option */
 295:Generated_Source\PSoC5/ErikaOS_1_ee_oo_internal.inc ****     alarm_time = EE_counter_ROM[cnt].maxallowedvalue;
 296:Generated_Source\PSoC5/ErikaOS_1_ee_oo_internal.inc ****   } else if ( start_rel < EE_TYPETICK_HALF_VALUE ) {
 297:Generated_Source\PSoC5/ErikaOS_1_ee_oo_internal.inc ****     /* Normal behavior */
 298:Generated_Source\PSoC5/ErikaOS_1_ee_oo_internal.inc ****     alarm_time = start_rel - 1U;
 299:Generated_Source\PSoC5/ErikaOS_1_ee_oo_internal.inc ****   } else {
 300:Generated_Source\PSoC5/ErikaOS_1_ee_oo_internal.inc ****     /* start_rel is "negative" in this case (unsigned wrap around do the
 301:Generated_Source\PSoC5/ErikaOS_1_ee_oo_internal.inc ****        work) */
 302:Generated_Source\PSoC5/ErikaOS_1_ee_oo_internal.inc ****     alarm_time = EE_counter_ROM[cnt].maxallowedvalue + start_rel;
 303:Generated_Source\PSoC5/ErikaOS_1_ee_oo_internal.inc ****   }
 304:Generated_Source\PSoC5/ErikaOS_1_ee_oo_internal.inc **** 
 305:Generated_Source\PSoC5/ErikaOS_1_ee_oo_internal.inc ****   /* Set alarm with a relative amount of time (alarm_time already is a "0 as
 306:Generated_Source\PSoC5/ErikaOS_1_ee_oo_internal.inc ****      next tick" value)*/
 307:Generated_Source\PSoC5/ErikaOS_1_ee_oo_internal.inc ****   EE_oo_counter_object_insert(ObjectID, alarm_time);
 308:Generated_Source\PSoC5/ErikaOS_1_ee_oo_internal.inc **** }
 309:Generated_Source\PSoC5/ErikaOS_1_ee_oo_internal.inc **** 
 310:Generated_Source\PSoC5/ErikaOS_1_ee_oo_internal.inc **** __INLINE__ void 
 311:Generated_Source\PSoC5/ErikaOS_1_ee_oo_internal.inc ****   EE_oo_handle_rel_counter_object_insertion( CounterObjectType ObjectID,
 312:Generated_Source\PSoC5/ErikaOS_1_ee_oo_internal.inc ****     TickType increment, TickType relcycle )
 313:Generated_Source\PSoC5/ErikaOS_1_ee_oo_internal.inc **** {
 314:Generated_Source\PSoC5/ErikaOS_1_ee_oo_internal.inc **** 
 315:Generated_Source\PSoC5/ErikaOS_1_ee_oo_internal.inc ****   /* first, use the alarm and set the cycle */
 316:Generated_Source\PSoC5/ErikaOS_1_ee_oo_internal.inc ****   EE_oo_counter_object_RAM[ObjectID].used = EE_TRUE;
 317:Generated_Source\PSoC5/ErikaOS_1_ee_oo_internal.inc ****   EE_oo_counter_object_RAM[ObjectID].cntcycle = relcycle;
 318:Generated_Source\PSoC5/ErikaOS_1_ee_oo_internal.inc **** 
 319:Generated_Source\PSoC5/ErikaOS_1_ee_oo_internal.inc ****   /* then, insert the task into the delta queue with an increment equal
 320:Generated_Source\PSoC5/ErikaOS_1_ee_oo_internal.inc ****      (increment - 1U) increment equal to 0 means next tick */
 321:Generated_Source\PSoC5/ErikaOS_1_ee_oo_internal.inc ****   EE_oo_counter_object_insert(ObjectID, (increment - 1U));
 322:Generated_Source\PSoC5/ErikaOS_1_ee_oo_internal.inc **** }
 323:Generated_Source\PSoC5/ErikaOS_1_ee_oo_internal.inc **** 
 324:Generated_Source\PSoC5/ErikaOS_1_ee_oo_internal.inc **** /* cancellation */
 325:Generated_Source\PSoC5/ErikaOS_1_ee_oo_internal.inc **** __INLINE__ void  EE_oo_handle_counter_object_cancellation(
 326:Generated_Source\PSoC5/ErikaOS_1_ee_oo_internal.inc ****   CounterObjectType ObjectID )
 327:Generated_Source\PSoC5/ErikaOS_1_ee_oo_internal.inc **** {
 328:Generated_Source\PSoC5/ErikaOS_1_ee_oo_internal.inc ****   register CounterObjectType current, previous;
ARM GAS  C:\Users\Asus\AppData\Local\Temp\ccDAHDPn.s 			page 18


 329:Generated_Source\PSoC5/ErikaOS_1_ee_oo_internal.inc ****   register CounterType       ct      = EE_oo_counter_object_ROM[ObjectID].c;
 330:Generated_Source\PSoC5/ErikaOS_1_ee_oo_internal.inc **** 
 331:Generated_Source\PSoC5/ErikaOS_1_ee_oo_internal.inc ****   /* to compute the relative value in ticks, we have to follow the counter
 332:Generated_Source\PSoC5/ErikaOS_1_ee_oo_internal.inc ****      delay chain */
 333:Generated_Source\PSoC5/ErikaOS_1_ee_oo_internal.inc ****   current = EE_counter_RAM[ct].first;
 334:Generated_Source\PSoC5/ErikaOS_1_ee_oo_internal.inc **** 
 335:Generated_Source\PSoC5/ErikaOS_1_ee_oo_internal.inc ****   if ( current == ObjectID ) {
 336:Generated_Source\PSoC5/ErikaOS_1_ee_oo_internal.inc ****     /* the alarm is the first one in the delta queue */
 337:Generated_Source\PSoC5/ErikaOS_1_ee_oo_internal.inc ****     EE_counter_RAM[ct].first = EE_oo_counter_object_RAM[ObjectID].next;
 338:Generated_Source\PSoC5/ErikaOS_1_ee_oo_internal.inc ****   } else {
 339:Generated_Source\PSoC5/ErikaOS_1_ee_oo_internal.inc ****     /* the alarm is not the first one in the delta queue */
 340:Generated_Source\PSoC5/ErikaOS_1_ee_oo_internal.inc ****     /* Find it */
 341:Generated_Source\PSoC5/ErikaOS_1_ee_oo_internal.inc ****     do {
 342:Generated_Source\PSoC5/ErikaOS_1_ee_oo_internal.inc ****       previous = current;
 343:Generated_Source\PSoC5/ErikaOS_1_ee_oo_internal.inc ****       current = EE_oo_counter_object_RAM[current].next;
 344:Generated_Source\PSoC5/ErikaOS_1_ee_oo_internal.inc ****     } while ( current != ObjectID );
 345:Generated_Source\PSoC5/ErikaOS_1_ee_oo_internal.inc ****     /* remove it from the queue */
 346:Generated_Source\PSoC5/ErikaOS_1_ee_oo_internal.inc ****     EE_oo_counter_object_RAM[previous].next =
 347:Generated_Source\PSoC5/ErikaOS_1_ee_oo_internal.inc ****       EE_oo_counter_object_RAM[ObjectID].next;
 348:Generated_Source\PSoC5/ErikaOS_1_ee_oo_internal.inc ****   }
 349:Generated_Source\PSoC5/ErikaOS_1_ee_oo_internal.inc ****   /* Adjust delta value */
 350:Generated_Source\PSoC5/ErikaOS_1_ee_oo_internal.inc ****   if ( EE_oo_counter_object_RAM[ObjectID].next != INVALID_COUNTER_OBJECT ) {
 351:Generated_Source\PSoC5/ErikaOS_1_ee_oo_internal.inc ****     EE_oo_counter_object_RAM[EE_oo_counter_object_RAM[ObjectID].next].delta +=
 352:Generated_Source\PSoC5/ErikaOS_1_ee_oo_internal.inc ****       EE_oo_counter_object_RAM[ObjectID].delta;
 353:Generated_Source\PSoC5/ErikaOS_1_ee_oo_internal.inc ****   }
 354:Generated_Source\PSoC5/ErikaOS_1_ee_oo_internal.inc **** 
 355:Generated_Source\PSoC5/ErikaOS_1_ee_oo_internal.inc ****   EE_oo_counter_object_RAM[ObjectID].used = EE_FALSE;
 356:Generated_Source\PSoC5/ErikaOS_1_ee_oo_internal.inc **** }
 357:Generated_Source\PSoC5/ErikaOS_1_ee_oo_internal.inc **** #endif /* EE_COUNTER_OBJECTS_ROM_SIZE */
 358:Generated_Source\PSoC5/ErikaOS_1_ee_oo_internal.inc **** #endif /* EE_COUNTER_OBJECTS_ROM_SIZE > 0 */
 359:Generated_Source\PSoC5/ErikaOS_1_ee_oo_internal.inc **** #endif /* !__OO_NO_ALARMS__ || EE_AS_SCHEDULETABLES__ */
 360:Generated_Source\PSoC5/ErikaOS_1_ee_oo_internal.inc **** 
 361:Generated_Source\PSoC5/ErikaOS_1_ee_oo_internal.inc **** /*************************************************************************
 362:Generated_Source\PSoC5/ErikaOS_1_ee_oo_internal.inc ****  HAL extensions
 363:Generated_Source\PSoC5/ErikaOS_1_ee_oo_internal.inc ****  *************************************************************************/
 364:Generated_Source\PSoC5/ErikaOS_1_ee_oo_internal.inc **** 
 365:Generated_Source\PSoC5/ErikaOS_1_ee_oo_internal.inc ****  /* these are the functions that have been inserted to support tha OO layer
 366:Generated_Source\PSoC5/ErikaOS_1_ee_oo_internal.inc ****     under the EE HAL.
 367:Generated_Source\PSoC5/ErikaOS_1_ee_oo_internal.inc ****     
 368:Generated_Source\PSoC5/ErikaOS_1_ee_oo_internal.inc ****     - all the functions for interrupt handling (13.3)
 369:Generated_Source\PSoC5/ErikaOS_1_ee_oo_internal.inc ****     - EE_hal_begin_nested_primitive
 370:Generated_Source\PSoC5/ErikaOS_1_ee_oo_internal.inc ****       EE_hal_end_nested_primitive 
 371:Generated_Source\PSoC5/ErikaOS_1_ee_oo_internal.inc ****       (for primitives that can be called both into a task and into an ISR2
 372:Generated_Source\PSoC5/ErikaOS_1_ee_oo_internal.inc ****     - EE_hal_terminate_task(EE_TID t)
 373:Generated_Source\PSoC5/ErikaOS_1_ee_oo_internal.inc ****     - EE_hal_terminate_savestk(EE_TID t)
 374:Generated_Source\PSoC5/ErikaOS_1_ee_oo_internal.inc ****       EE_oo_preemption_point() execute task preemption if is needed
 375:Generated_Source\PSoC5/ErikaOS_1_ee_oo_internal.inc ****     - EE_oo_shutdown() if not redefined it does for(;;);
 376:Generated_Source\PSoC5/ErikaOS_1_ee_oo_internal.inc ****     - All the alarm constants listed in 13.6.4
 377:Generated_Source\PSoC5/ErikaOS_1_ee_oo_internal.inc ****  */
 378:Generated_Source\PSoC5/ErikaOS_1_ee_oo_internal.inc **** 
 379:Generated_Source\PSoC5/ErikaOS_1_ee_oo_internal.inc **** 
 380:Generated_Source\PSoC5/ErikaOS_1_ee_oo_internal.inc **** /***************************************************************************
 381:Generated_Source\PSoC5/ErikaOS_1_ee_oo_internal.inc ****  * Internal data structures and functions
 382:Generated_Source\PSoC5/ErikaOS_1_ee_oo_internal.inc ****  ***************************************************************************/
 383:Generated_Source\PSoC5/ErikaOS_1_ee_oo_internal.inc **** 
 384:Generated_Source\PSoC5/ErikaOS_1_ee_oo_internal.inc **** /*
 385:Generated_Source\PSoC5/ErikaOS_1_ee_oo_internal.inc ****     Call Hooks utilities
ARM GAS  C:\Users\Asus\AppData\Local\Temp\ccDAHDPn.s 			page 19


 386:Generated_Source\PSoC5/ErikaOS_1_ee_oo_internal.inc ****  */
 387:Generated_Source\PSoC5/ErikaOS_1_ee_oo_internal.inc **** 
 388:Generated_Source\PSoC5/ErikaOS_1_ee_oo_internal.inc **** #ifdef __OO_HAS_PRETASKHOOK__
 389:Generated_Source\PSoC5/ErikaOS_1_ee_oo_internal.inc **** __INLINE__ void  EE_oo_call_PreTaskHook(void)
 390:Generated_Source\PSoC5/ErikaOS_1_ee_oo_internal.inc **** {
 391:Generated_Source\PSoC5/ErikaOS_1_ee_oo_internal.inc ****   EE_as_set_execution_context( PreTaskHook_Context );
 392:Generated_Source\PSoC5/ErikaOS_1_ee_oo_internal.inc ****   /* Set the execution context on TASK */
 393:Generated_Source\PSoC5/ErikaOS_1_ee_oo_internal.inc ****   EE_as_set_execution_context( TASK_Context );
 394:Generated_Source\PSoC5/ErikaOS_1_ee_oo_internal.inc **** }
 395:Generated_Source\PSoC5/ErikaOS_1_ee_oo_internal.inc **** 
 396:Generated_Source\PSoC5/ErikaOS_1_ee_oo_internal.inc **** #else /* __OO_HAS_PRETASKHOOK__ */
 397:Generated_Source\PSoC5/ErikaOS_1_ee_oo_internal.inc **** __INLINE__ void  EE_oo_call_PreTaskHook(void)
 398:Generated_Source\PSoC5/ErikaOS_1_ee_oo_internal.inc **** {
 399:Generated_Source\PSoC5/ErikaOS_1_ee_oo_internal.inc ****   /* Set the execution context on TASK */
 400:Generated_Source\PSoC5/ErikaOS_1_ee_oo_internal.inc ****   EE_as_set_execution_context( TASK_Context );
 401:Generated_Source\PSoC5/ErikaOS_1_ee_oo_internal.inc **** }
 402:Generated_Source\PSoC5/ErikaOS_1_ee_oo_internal.inc **** #endif /* __OO_HAS_PRETASKHOOK__ */
 403:Generated_Source\PSoC5/ErikaOS_1_ee_oo_internal.inc **** 
 404:Generated_Source\PSoC5/ErikaOS_1_ee_oo_internal.inc **** #if defined(__OO_HAS_POSTTASKHOOK__)
 405:Generated_Source\PSoC5/ErikaOS_1_ee_oo_internal.inc **** __INLINE__ void  EE_oo_call_PostTaskHook(void)
 406:Generated_Source\PSoC5/ErikaOS_1_ee_oo_internal.inc **** {
 407:Generated_Source\PSoC5/ErikaOS_1_ee_oo_internal.inc ****   EE_as_set_execution_context( PostTaskHook_Context );
 408:Generated_Source\PSoC5/ErikaOS_1_ee_oo_internal.inc **** }
 409:Generated_Source\PSoC5/ErikaOS_1_ee_oo_internal.inc **** #else /* __OO_HAS_POSTTASKHOOK__ */
 410:Generated_Source\PSoC5/ErikaOS_1_ee_oo_internal.inc **** __INLINE__ void  EE_oo_call_PostTaskHook(void) {}
 411:Generated_Source\PSoC5/ErikaOS_1_ee_oo_internal.inc **** #endif /* __OO_HAS_POSTTASKHOOK__ */
 412:Generated_Source\PSoC5/ErikaOS_1_ee_oo_internal.inc **** 
 413:Generated_Source\PSoC5/ErikaOS_1_ee_oo_internal.inc **** 
 414:Generated_Source\PSoC5/ErikaOS_1_ee_oo_internal.inc **** /* StartOS Flag defined inside ee_startos.c to check that the system has correctly started */
 415:Generated_Source\PSoC5/ErikaOS_1_ee_oo_internal.inc **** extern EE_UREG volatile EE_oo_started;
 416:Generated_Source\PSoC5/ErikaOS_1_ee_oo_internal.inc **** 
 417:Generated_Source\PSoC5/ErikaOS_1_ee_oo_internal.inc **** 
 418:Generated_Source\PSoC5/ErikaOS_1_ee_oo_internal.inc **** /* Used to check if we are in disable interrupt error. It return
 419:Generated_Source\PSoC5/ErikaOS_1_ee_oo_internal.inc ****    'signed register type' because usually it is native integer type. */
 420:Generated_Source\PSoC5/ErikaOS_1_ee_oo_internal.inc **** __INLINE__ EE_TYPEBOOL  EE_oo_check_disableint_error(void)
 421:Generated_Source\PSoC5/ErikaOS_1_ee_oo_internal.inc **** {
 422:Generated_Source\PSoC5/ErikaOS_1_ee_oo_internal.inc ****   return ( EE_oo_IRQ_disable_count != 0U );
 423:Generated_Source\PSoC5/ErikaOS_1_ee_oo_internal.inc **** }
 424:Generated_Source\PSoC5/ErikaOS_1_ee_oo_internal.inc **** 
 425:Generated_Source\PSoC5/ErikaOS_1_ee_oo_internal.inc **** #if (defined(__OO_BCC2__)) || (defined(__OO_ECC2__))
 426:Generated_Source\PSoC5/ErikaOS_1_ee_oo_internal.inc **** /* A lookup table to speedup ready queue handling */
 427:Generated_Source\PSoC5/ErikaOS_1_ee_oo_internal.inc **** extern const EE_INT8 EE_rq_lookup[256];
 428:Generated_Source\PSoC5/ErikaOS_1_ee_oo_internal.inc **** /* Lookup functions */
 429:Generated_Source\PSoC5/ErikaOS_1_ee_oo_internal.inc **** #if defined(__OO_ECC2__)
 430:Generated_Source\PSoC5/ErikaOS_1_ee_oo_internal.inc **** __INLINE__ EE_INT8  EE_rq_get_first_not_empty_queue( void )
 431:Generated_Source\PSoC5/ErikaOS_1_ee_oo_internal.inc **** {
 432:Generated_Source\PSoC5/ErikaOS_1_ee_oo_internal.inc ****   /* Lookup at bits 15-9 */
 433:Generated_Source\PSoC5/ErikaOS_1_ee_oo_internal.inc ****   EE_INT8 x = EE_rq_lookup[(EE_rq_bitmask & 0xFF00U) >> 8];
 434:Generated_Source\PSoC5/ErikaOS_1_ee_oo_internal.inc ****   if (x == (EE_INT8)-1) {
 435:Generated_Source\PSoC5/ErikaOS_1_ee_oo_internal.inc ****     x = EE_rq_lookup[EE_rq_bitmask];
 436:Generated_Source\PSoC5/ErikaOS_1_ee_oo_internal.inc ****   } else {
 437:Generated_Source\PSoC5/ErikaOS_1_ee_oo_internal.inc ****     x += (EE_INT8)8;
 438:Generated_Source\PSoC5/ErikaOS_1_ee_oo_internal.inc ****   }
 439:Generated_Source\PSoC5/ErikaOS_1_ee_oo_internal.inc ****   return x;
 440:Generated_Source\PSoC5/ErikaOS_1_ee_oo_internal.inc **** }
 441:Generated_Source\PSoC5/ErikaOS_1_ee_oo_internal.inc **** #else /* __OO_ECC2__ */
 442:Generated_Source\PSoC5/ErikaOS_1_ee_oo_internal.inc **** __INLINE__ EE_INT8  EE_rq_get_first_not_empty_queue( void )
ARM GAS  C:\Users\Asus\AppData\Local\Temp\ccDAHDPn.s 			page 20


 443:Generated_Source\PSoC5/ErikaOS_1_ee_oo_internal.inc **** {
 444:Generated_Source\PSoC5/ErikaOS_1_ee_oo_internal.inc ****   return EE_rq_lookup[EE_rq_bitmask];
 445:Generated_Source\PSoC5/ErikaOS_1_ee_oo_internal.inc **** }
 446:Generated_Source\PSoC5/ErikaOS_1_ee_oo_internal.inc **** #endif /* __OO_ECC2__ */
 447:Generated_Source\PSoC5/ErikaOS_1_ee_oo_internal.inc **** #endif /* __OO_BCC2__ || __OO_ECC2__ */
 448:Generated_Source\PSoC5/ErikaOS_1_ee_oo_internal.inc **** 
 449:Generated_Source\PSoC5/ErikaOS_1_ee_oo_internal.inc **** /* Internal Queue management functions */
 450:Generated_Source\PSoC5/ErikaOS_1_ee_oo_internal.inc **** 
 451:Generated_Source\PSoC5/ErikaOS_1_ee_oo_internal.inc **** /* return the first ready task without extracting it */
 452:Generated_Source\PSoC5/ErikaOS_1_ee_oo_internal.inc **** #ifndef __PRIVATE_RQ_QUERYFIRST__
 453:Generated_Source\PSoC5/ErikaOS_1_ee_oo_internal.inc **** #if (defined(__OO_BCC1__)) || (defined(__OO_ECC1__))
 454:Generated_Source\PSoC5/ErikaOS_1_ee_oo_internal.inc **** __INLINE__ EE_TID  EE_rq_queryfirst(void)
 455:Generated_Source\PSoC5/ErikaOS_1_ee_oo_internal.inc **** { return EE_rq_first; }
 456:Generated_Source\PSoC5/ErikaOS_1_ee_oo_internal.inc **** #endif
 457:Generated_Source\PSoC5/ErikaOS_1_ee_oo_internal.inc **** 
 458:Generated_Source\PSoC5/ErikaOS_1_ee_oo_internal.inc **** #if (defined(__OO_BCC2__)) || (defined(__OO_ECC2__))
 459:Generated_Source\PSoC5/ErikaOS_1_ee_oo_internal.inc **** EE_TID EE_rq_queryfirst(void);
 460:Generated_Source\PSoC5/ErikaOS_1_ee_oo_internal.inc **** #endif
 461:Generated_Source\PSoC5/ErikaOS_1_ee_oo_internal.inc **** #endif
 462:Generated_Source\PSoC5/ErikaOS_1_ee_oo_internal.inc **** 
 463:Generated_Source\PSoC5/ErikaOS_1_ee_oo_internal.inc **** /* __INLINE__ EE_TID  EE_stk_queryfirst(void) in intfunc.h */
 464:Generated_Source\PSoC5/ErikaOS_1_ee_oo_internal.inc **** 
 465:Generated_Source\PSoC5/ErikaOS_1_ee_oo_internal.inc **** /* Extract the RUNNING task from the stack, and return the new head */
 466:Generated_Source\PSoC5/ErikaOS_1_ee_oo_internal.inc **** #ifndef __PRIVATE_STK_GETFIRST__
 467:Generated_Source\PSoC5/ErikaOS_1_ee_oo_internal.inc **** __INLINE__ EE_TID  EE_stk_getfirst(void)
 468:Generated_Source\PSoC5/ErikaOS_1_ee_oo_internal.inc **** {
 469:Generated_Source\PSoC5/ErikaOS_1_ee_oo_internal.inc ****   return (EE_stkfirst = EE_th_next[EE_stkfirst]);
 470:Generated_Source\PSoC5/ErikaOS_1_ee_oo_internal.inc **** }
 471:Generated_Source\PSoC5/ErikaOS_1_ee_oo_internal.inc **** #endif /* __PRIVATE_STK_GETFIRST__ */
 472:Generated_Source\PSoC5/ErikaOS_1_ee_oo_internal.inc **** 
 473:Generated_Source\PSoC5/ErikaOS_1_ee_oo_internal.inc **** /* insert a task into the stack data structures */
 474:Generated_Source\PSoC5/ErikaOS_1_ee_oo_internal.inc **** #ifndef __PRIVATE_STK_INSERTFIRST__
 475:Generated_Source\PSoC5/ErikaOS_1_ee_oo_internal.inc **** __INLINE__ void  EE_stk_insertfirst(EE_TID t)
 476:Generated_Source\PSoC5/ErikaOS_1_ee_oo_internal.inc **** {
 477:Generated_Source\PSoC5/ErikaOS_1_ee_oo_internal.inc ****     EE_th_next[t] = EE_stkfirst;
 478:Generated_Source\PSoC5/ErikaOS_1_ee_oo_internal.inc ****     EE_stkfirst = t;
 479:Generated_Source\PSoC5/ErikaOS_1_ee_oo_internal.inc **** }
 480:Generated_Source\PSoC5/ErikaOS_1_ee_oo_internal.inc **** #endif
 481:Generated_Source\PSoC5/ErikaOS_1_ee_oo_internal.inc **** 
 482:Generated_Source\PSoC5/ErikaOS_1_ee_oo_internal.inc **** /* insert a task into the ready queue */
 483:Generated_Source\PSoC5/ErikaOS_1_ee_oo_internal.inc **** #ifndef __PRIVATE_RQ_INSERT__
 484:Generated_Source\PSoC5/ErikaOS_1_ee_oo_internal.inc **** void EE_rq_insert(EE_TID t);
 485:Generated_Source\PSoC5/ErikaOS_1_ee_oo_internal.inc **** #endif
 486:Generated_Source\PSoC5/ErikaOS_1_ee_oo_internal.inc **** 
 487:Generated_Source\PSoC5/ErikaOS_1_ee_oo_internal.inc **** /* put the first ready task into the stack */
 488:Generated_Source\PSoC5/ErikaOS_1_ee_oo_internal.inc **** #ifndef __PRIVATE_RQ2STK_EXCHANGE__
 489:Generated_Source\PSoC5/ErikaOS_1_ee_oo_internal.inc **** EE_TID EE_rq2stk_exchange(void);
 490:Generated_Source\PSoC5/ErikaOS_1_ee_oo_internal.inc **** #endif
 491:Generated_Source\PSoC5/ErikaOS_1_ee_oo_internal.inc **** 
 492:Generated_Source\PSoC5/ErikaOS_1_ee_oo_internal.inc **** #ifndef __OO_NO_RESOURCES__
 493:Generated_Source\PSoC5/ErikaOS_1_ee_oo_internal.inc **** /*
 494:Generated_Source\PSoC5/ErikaOS_1_ee_oo_internal.inc ****     Method to release all resources locked by a Thread,
 495:Generated_Source\PSoC5/ErikaOS_1_ee_oo_internal.inc ****     used to fulfill AS requirement OS070
 496:Generated_Source\PSoC5/ErikaOS_1_ee_oo_internal.inc ****  */
 497:Generated_Source\PSoC5/ErikaOS_1_ee_oo_internal.inc **** #if ((!defined(__OO_EXTENDED_STATUS__)) && \
 498:Generated_Source\PSoC5/ErikaOS_1_ee_oo_internal.inc ****     (!defined(__PRIVATE_RELEASEALLRESOURCE__))) && \
 499:Generated_Source\PSoC5/ErikaOS_1_ee_oo_internal.inc ****     (!defined(__OO_ISR2_RESOURCES__))
ARM GAS  C:\Users\Asus\AppData\Local\Temp\ccDAHDPn.s 			page 21


 500:Generated_Source\PSoC5/ErikaOS_1_ee_oo_internal.inc **** __INLINE__ void  EE_oo_release_all_resources(EE_TID tid)
 501:Generated_Source\PSoC5/ErikaOS_1_ee_oo_internal.inc **** {
 502:Generated_Source\PSoC5/ErikaOS_1_ee_oo_internal.inc ****   /* release the internal resource. a EE_TYPEPRIO is a bit mask with only one
 503:Generated_Source\PSoC5/ErikaOS_1_ee_oo_internal.inc ****      bit set to one.
 504:Generated_Source\PSoC5/ErikaOS_1_ee_oo_internal.inc ****      If i subtract one to this I obtain a bit mask with all
 505:Generated_Source\PSoC5/ErikaOS_1_ee_oo_internal.inc ****      ones before the starting one and all zeros after 
 506:Generated_Source\PSoC5/ErikaOS_1_ee_oo_internal.inc ****      (exactly what I want to release resources!)
 507:Generated_Source\PSoC5/ErikaOS_1_ee_oo_internal.inc ****   */
 508:Generated_Source\PSoC5/ErikaOS_1_ee_oo_internal.inc ****   EE_sys_ceiling &= (EE_th_dispatch_prio[tid] - 1U);
 509:Generated_Source\PSoC5/ErikaOS_1_ee_oo_internal.inc **** }
 510:Generated_Source\PSoC5/ErikaOS_1_ee_oo_internal.inc **** #else
 511:Generated_Source\PSoC5/ErikaOS_1_ee_oo_internal.inc **** EE_UREG EE_oo_release_all_resources(EE_TID tid);
 512:Generated_Source\PSoC5/ErikaOS_1_ee_oo_internal.inc **** #endif /* !__OO_EXTENDED_STATUS__ && !__OO_ISR2_RESOURCES__ */
 513:Generated_Source\PSoC5/ErikaOS_1_ee_oo_internal.inc **** #else /* __OO_NO_RESOURCES__ */
 514:Generated_Source\PSoC5/ErikaOS_1_ee_oo_internal.inc **** #define EE_oo_release_all_resources(tid)    ((void)0)
 515:Generated_Source\PSoC5/ErikaOS_1_ee_oo_internal.inc **** #endif /* __OO_NO_RESOURCES__ */
 516:Generated_Source\PSoC5/ErikaOS_1_ee_oo_internal.inc **** 
 517:Generated_Source\PSoC5/ErikaOS_1_ee_oo_internal.inc **** #ifndef __PRIVATE_THREANTERMINATED__
 518:Generated_Source\PSoC5/ErikaOS_1_ee_oo_internal.inc **** /* this the function that will be called if a Task doesn't end calling
 519:Generated_Source\PSoC5/ErikaOS_1_ee_oo_internal.inc ****    TerminateTask */
 520:Generated_Source\PSoC5/ErikaOS_1_ee_oo_internal.inc **** 
 521:Generated_Source\PSoC5/ErikaOS_1_ee_oo_internal.inc **** extern void EE_thread_not_terminated( void );
 522:Generated_Source\PSoC5/ErikaOS_1_ee_oo_internal.inc **** #endif /* __PRIVATE_THREANTERMINATED__ */
 523:Generated_Source\PSoC5/ErikaOS_1_ee_oo_internal.inc **** 
 524:Generated_Source\PSoC5/ErikaOS_1_ee_oo_internal.inc **** /* This call terminates a thread instance. It must be called as the
 525:Generated_Source\PSoC5/ErikaOS_1_ee_oo_internal.inc ****    LAST function call BEFORE the `}' that ends a thread. If the
 526:Generated_Source\PSoC5/ErikaOS_1_ee_oo_internal.inc ****    primitive is not inserted at the end of */
 527:Generated_Source\PSoC5/ErikaOS_1_ee_oo_internal.inc **** #ifndef __PRIVATE_THREAD_END_INSTANCE__
 528:Generated_Source\PSoC5/ErikaOS_1_ee_oo_internal.inc **** void EE_thread_end_instance(void);
 529:Generated_Source\PSoC5/ErikaOS_1_ee_oo_internal.inc **** #endif
 530:Generated_Source\PSoC5/ErikaOS_1_ee_oo_internal.inc **** 
 531:Generated_Source\PSoC5/ErikaOS_1_ee_oo_internal.inc **** #if (defined(__OO_ISR2_RESOURCES__)) || (defined(EE_AS_USER_SPINLOCKS__))
 532:Generated_Source\PSoC5/ErikaOS_1_ee_oo_internal.inc **** /* Index used to give ISR2 Temporary TID value and to access at
 533:Generated_Source\PSoC5/ErikaOS_1_ee_oo_internal.inc ****    EE_isr2_nesting_level array */
 534:Generated_Source\PSoC5/ErikaOS_1_ee_oo_internal.inc **** extern EE_UREG EE_isr2_index;
 535:Generated_Source\PSoC5/ErikaOS_1_ee_oo_internal.inc **** 
 536:Generated_Source\PSoC5/ErikaOS_1_ee_oo_internal.inc **** /* Assign a fake TID to an ISR2 to eventually handle resources clean-up */
 537:Generated_Source\PSoC5/ErikaOS_1_ee_oo_internal.inc **** EE_TID  EE_oo_assign_TID_to_ISR2(void);
 538:Generated_Source\PSoC5/ErikaOS_1_ee_oo_internal.inc **** 
 539:Generated_Source\PSoC5/ErikaOS_1_ee_oo_internal.inc **** /* Get the last assigned fake ISR2 TID */
 540:Generated_Source\PSoC5/ErikaOS_1_ee_oo_internal.inc **** __INLINE__ EE_TID  EE_oo_get_ISR2_TID(void) {
 541:Generated_Source\PSoC5/ErikaOS_1_ee_oo_internal.inc ****   return (EE_isr2_index != EE_UREG_MINUS1)?
 542:Generated_Source\PSoC5/ErikaOS_1_ee_oo_internal.inc ****     (EE_MAX_TASK + (EE_TID)EE_isr2_index): EE_NIL;
 543:Generated_Source\PSoC5/ErikaOS_1_ee_oo_internal.inc **** }
 544:Generated_Source\PSoC5/ErikaOS_1_ee_oo_internal.inc **** #endif /* __OO_ISR2_RESOURCES__ || EE_AS_USER_SPINLOCKS__ */
 545:Generated_Source\PSoC5/ErikaOS_1_ee_oo_internal.inc **** 
 546:Generated_Source\PSoC5/ErikaOS_1_ee_oo_internal.inc **** #if (defined(__OO_ECC1__)) || (defined(__OO_ECC2__))
 547:Generated_Source\PSoC5/ErikaOS_1_ee_oo_internal.inc **** /*
 548:Generated_Source\PSoC5/ErikaOS_1_ee_oo_internal.inc ****     Reset Active Events  THREAD utility method.
 549:Generated_Source\PSoC5/ErikaOS_1_ee_oo_internal.inc **** 
 550:Generated_Source\PSoC5/ErikaOS_1_ee_oo_internal.inc ****     When an extended task is transferred from suspended state
 551:Generated_Source\PSoC5/ErikaOS_1_ee_oo_internal.inc ****     into ready state all its events have to be cleared cleared
 552:Generated_Source\PSoC5/ErikaOS_1_ee_oo_internal.inc **** */
 553:Generated_Source\PSoC5/ErikaOS_1_ee_oo_internal.inc **** __INLINE__ void  EE_oo_reset_th_event_active(TaskType tnotactive)
 554:Generated_Source\PSoC5/ErikaOS_1_ee_oo_internal.inc **** {
 555:Generated_Source\PSoC5/ErikaOS_1_ee_oo_internal.inc ****     EE_th_event_active[tnotactive] = 0U;
 556:Generated_Source\PSoC5/ErikaOS_1_ee_oo_internal.inc **** }
ARM GAS  C:\Users\Asus\AppData\Local\Temp\ccDAHDPn.s 			page 22


 557:Generated_Source\PSoC5/ErikaOS_1_ee_oo_internal.inc **** 
 558:Generated_Source\PSoC5/ErikaOS_1_ee_oo_internal.inc **** /* 
 559:Generated_Source\PSoC5/ErikaOS_1_ee_oo_internal.inc ****   This method actually do a CONTEXT SWITCH, with the highest priority TASK
 560:Generated_Source\PSoC5/ErikaOS_1_ee_oo_internal.inc **** */
 561:Generated_Source\PSoC5/ErikaOS_1_ee_oo_internal.inc **** #ifdef __MULTI__
 562:Generated_Source\PSoC5/ErikaOS_1_ee_oo_internal.inc **** __INLINE__ void  EE_oo_run_next_task(void)
 563:Generated_Source\PSoC5/ErikaOS_1_ee_oo_internal.inc **** {
 564:Generated_Source\PSoC5/ErikaOS_1_ee_oo_internal.inc ****     register TaskType tmp;
 565:Generated_Source\PSoC5/ErikaOS_1_ee_oo_internal.inc ****     /* swap from ready queue to stack queue */
 566:Generated_Source\PSoC5/ErikaOS_1_ee_oo_internal.inc ****     tmp = EE_rq2stk_exchange();
 115              		.loc 3 566 0
 116 0060 FFF7FEFF 		bl	EE_rq2stk_exchange
 117              	.LVL3:
 567:Generated_Source\PSoC5/ErikaOS_1_ee_oo_internal.inc ****     if ( EE_th_waswaiting[tmp] ) {
 118              		.loc 3 567 0
 119 0064 154B     		ldr	r3, .L10+20
 120 0066 53F82030 		ldr	r3, [r3, r0, lsl #2]
 121 006a 43B1     		cbz	r3, .L3
 568:Generated_Source\PSoC5/ErikaOS_1_ee_oo_internal.inc ****       /* if the task was waiting switch the context to restart it */
 569:Generated_Source\PSoC5/ErikaOS_1_ee_oo_internal.inc ****       EE_th_waswaiting[tmp] = EE_FALSE;
 122              		.loc 3 569 0
 123 006c 0022     		movs	r2, #0
 124 006e 134B     		ldr	r3, .L10+20
 125 0070 43F82020 		str	r2, [r3, r0, lsl #2]
 126              	.LVL4:
 127              	.LBB69:
 128              	.LBB70:
 129              		.file 5 "Generated_Source\\PSoC5\\ErikaOS_1_cortex_mx_ee_context.inc"
   1:Generated_Source\PSoC5/ErikaOS_1_cortex_mx_ee_context.inc **** /* ###*B*###
   2:Generated_Source\PSoC5/ErikaOS_1_cortex_mx_ee_context.inc ****  * ERIKA Enterprise - a tiny RTOS for small microcontrollers
   3:Generated_Source\PSoC5/ErikaOS_1_cortex_mx_ee_context.inc ****  *
   4:Generated_Source\PSoC5/ErikaOS_1_cortex_mx_ee_context.inc ****  * Copyright (C) 2002-2011  Evidence Srl
   5:Generated_Source\PSoC5/ErikaOS_1_cortex_mx_ee_context.inc ****  *
   6:Generated_Source\PSoC5/ErikaOS_1_cortex_mx_ee_context.inc ****  * This file is part of ERIKA Enterprise.
   7:Generated_Source\PSoC5/ErikaOS_1_cortex_mx_ee_context.inc ****  *
   8:Generated_Source\PSoC5/ErikaOS_1_cortex_mx_ee_context.inc ****  * ERIKA Enterprise is free software; you can redistribute it
   9:Generated_Source\PSoC5/ErikaOS_1_cortex_mx_ee_context.inc ****  * and/or modify it under the terms of the GNU General Public License
  10:Generated_Source\PSoC5/ErikaOS_1_cortex_mx_ee_context.inc ****  * version 2 as published by the Free Software Foundation, 
  11:Generated_Source\PSoC5/ErikaOS_1_cortex_mx_ee_context.inc ****  * (with a special exception described below).
  12:Generated_Source\PSoC5/ErikaOS_1_cortex_mx_ee_context.inc ****  *
  13:Generated_Source\PSoC5/ErikaOS_1_cortex_mx_ee_context.inc ****  * Linking this code statically or dynamically with other modules is
  14:Generated_Source\PSoC5/ErikaOS_1_cortex_mx_ee_context.inc ****  * making a combined work based on this code.  Thus, the terms and
  15:Generated_Source\PSoC5/ErikaOS_1_cortex_mx_ee_context.inc ****  * conditions of the GNU General Public License cover the whole
  16:Generated_Source\PSoC5/ErikaOS_1_cortex_mx_ee_context.inc ****  * combination.
  17:Generated_Source\PSoC5/ErikaOS_1_cortex_mx_ee_context.inc ****  *
  18:Generated_Source\PSoC5/ErikaOS_1_cortex_mx_ee_context.inc ****  * As a special exception, the copyright holders of this library give you
  19:Generated_Source\PSoC5/ErikaOS_1_cortex_mx_ee_context.inc ****  * permission to link this code with independent modules to produce an
  20:Generated_Source\PSoC5/ErikaOS_1_cortex_mx_ee_context.inc ****  * executable, regardless of the license terms of these independent
  21:Generated_Source\PSoC5/ErikaOS_1_cortex_mx_ee_context.inc ****  * modules, and to copy and distribute the resulting executable under
  22:Generated_Source\PSoC5/ErikaOS_1_cortex_mx_ee_context.inc ****  * terms of your choice, provided that you also meet, for each linked
  23:Generated_Source\PSoC5/ErikaOS_1_cortex_mx_ee_context.inc ****  * independent module, the terms and conditions of the license of that
  24:Generated_Source\PSoC5/ErikaOS_1_cortex_mx_ee_context.inc ****  * module.  An independent module is a module which is not derived from
  25:Generated_Source\PSoC5/ErikaOS_1_cortex_mx_ee_context.inc ****  * or based on this library.  If you modify this code, you may extend
  26:Generated_Source\PSoC5/ErikaOS_1_cortex_mx_ee_context.inc ****  * this exception to your version of the code, but you are not
  27:Generated_Source\PSoC5/ErikaOS_1_cortex_mx_ee_context.inc ****  * obligated to do so.  If you do not wish to do so, delete this
  28:Generated_Source\PSoC5/ErikaOS_1_cortex_mx_ee_context.inc ****  * exception statement from your version.
  29:Generated_Source\PSoC5/ErikaOS_1_cortex_mx_ee_context.inc ****  *
ARM GAS  C:\Users\Asus\AppData\Local\Temp\ccDAHDPn.s 			page 23


  30:Generated_Source\PSoC5/ErikaOS_1_cortex_mx_ee_context.inc ****  * ERIKA Enterprise is distributed in the hope that it will be
  31:Generated_Source\PSoC5/ErikaOS_1_cortex_mx_ee_context.inc ****  * useful, but WITHOUT ANY WARRANTY; without even the implied warranty
  32:Generated_Source\PSoC5/ErikaOS_1_cortex_mx_ee_context.inc ****  * of MERCHANTABILITY or FITNESS FOR A PARTICULAR PURPOSE.  See the
  33:Generated_Source\PSoC5/ErikaOS_1_cortex_mx_ee_context.inc ****  * GNU General Public License version 2 for more details.
  34:Generated_Source\PSoC5/ErikaOS_1_cortex_mx_ee_context.inc ****  *
  35:Generated_Source\PSoC5/ErikaOS_1_cortex_mx_ee_context.inc ****  * You should have received a copy of the GNU General Public License
  36:Generated_Source\PSoC5/ErikaOS_1_cortex_mx_ee_context.inc ****  * version 2 along with ERIKA Enterprise; if not, write to the
  37:Generated_Source\PSoC5/ErikaOS_1_cortex_mx_ee_context.inc ****  * Free Software Foundation, Inc., 51 Franklin Street, Fifth Floor,
  38:Generated_Source\PSoC5/ErikaOS_1_cortex_mx_ee_context.inc ****  * Boston, MA 02110-1301 USA.
  39:Generated_Source\PSoC5/ErikaOS_1_cortex_mx_ee_context.inc ****  * ###*E*### */
  40:Generated_Source\PSoC5/ErikaOS_1_cortex_mx_ee_context.inc **** 
  41:Generated_Source\PSoC5/ErikaOS_1_cortex_mx_ee_context.inc **** /** 
  42:Generated_Source\PSoC5/ErikaOS_1_cortex_mx_ee_context.inc **** 	@file ee_internal.h
  43:Generated_Source\PSoC5/ErikaOS_1_cortex_mx_ee_context.inc **** 	@brief Derived from cpu/common/inc/ee_internal.h
  44:Generated_Source\PSoC5/ErikaOS_1_cortex_mx_ee_context.inc **** 	@author Gianluca Franchino
  45:Generated_Source\PSoC5/ErikaOS_1_cortex_mx_ee_context.inc **** 	@author Giuseppe Serano
  46:Generated_Source\PSoC5/ErikaOS_1_cortex_mx_ee_context.inc **** 	@date 2011
  47:Generated_Source\PSoC5/ErikaOS_1_cortex_mx_ee_context.inc **** */  
  48:Generated_Source\PSoC5/ErikaOS_1_cortex_mx_ee_context.inc ****     
  49:Generated_Source\PSoC5/ErikaOS_1_cortex_mx_ee_context.inc **** /*
  50:Generated_Source\PSoC5/ErikaOS_1_cortex_mx_ee_context.inc ****  * PSoC Port and API Generation
  51:Generated_Source\PSoC5/ErikaOS_1_cortex_mx_ee_context.inc ****  * Carlos Fernando Meier Martinez
  52:Generated_Source\PSoC5/ErikaOS_1_cortex_mx_ee_context.inc ****  * Hochschule Darmstadt, Germany. 2017.
  53:Generated_Source\PSoC5/ErikaOS_1_cortex_mx_ee_context.inc ****  */
  54:Generated_Source\PSoC5/ErikaOS_1_cortex_mx_ee_context.inc **** 
  55:Generated_Source\PSoC5/ErikaOS_1_cortex_mx_ee_context.inc **** #ifndef __INCLUDE_CPU_CORTEX_MX_EE_CONTEXT__
  56:Generated_Source\PSoC5/ErikaOS_1_cortex_mx_ee_context.inc **** #define __INCLUDE_CPU_CORTEX_MX_EE_CONTEXT__
  57:Generated_Source\PSoC5/ErikaOS_1_cortex_mx_ee_context.inc **** 
  58:Generated_Source\PSoC5/ErikaOS_1_cortex_mx_ee_context.inc **** /*
  59:Generated_Source\PSoC5/ErikaOS_1_cortex_mx_ee_context.inc ****  * Instructions
  60:Generated_Source\PSoC5/ErikaOS_1_cortex_mx_ee_context.inc ****  *
  61:Generated_Source\PSoC5/ErikaOS_1_cortex_mx_ee_context.inc ****  * The monostack part is complete (obviously, the functions to disable/enable
  62:Generated_Source\PSoC5/ErikaOS_1_cortex_mx_ee_context.inc ****  *  interrupts are not included here).  For the multistack part you have to
  63:Generated_Source\PSoC5/ErikaOS_1_cortex_mx_ee_context.inc ****  *  provide two additional things:
  64:Generated_Source\PSoC5/ErikaOS_1_cortex_mx_ee_context.inc ****  *  1. An assembly implementation of EE_std_change_context_multi(); see below.
  65:Generated_Source\PSoC5/ErikaOS_1_cortex_mx_ee_context.inc ****  *  2. A #define directive for EE_hal_active_tos, which is just an alias for the
  66:Generated_Source\PSoC5/ErikaOS_1_cortex_mx_ee_context.inc ****  *  actual architecture-dependent variable.  This variable contains the index of
  67:Generated_Source\PSoC5/ErikaOS_1_cortex_mx_ee_context.inc ****  *  the current stack.
  68:Generated_Source\PSoC5/ErikaOS_1_cortex_mx_ee_context.inc ****  */
  69:Generated_Source\PSoC5/ErikaOS_1_cortex_mx_ee_context.inc **** 
  70:Generated_Source\PSoC5/ErikaOS_1_cortex_mx_ee_context.inc **** /* After a task terminates, the scheduler puts the id of the new task to launch
  71:Generated_Source\PSoC5/ErikaOS_1_cortex_mx_ee_context.inc ****  * or switch to in this variable.  If the is stacked, its id is marked so. */
  72:Generated_Source\PSoC5/ErikaOS_1_cortex_mx_ee_context.inc **** extern EE_TID EE_std_endcycle_next_tid;
  73:Generated_Source\PSoC5/ErikaOS_1_cortex_mx_ee_context.inc **** 
  74:Generated_Source\PSoC5/ErikaOS_1_cortex_mx_ee_context.inc **** /* The multistack version must be implemented in ASM; no standard
  75:Generated_Source\PSoC5/ErikaOS_1_cortex_mx_ee_context.inc ****  * implementation, sorry.  This is the only function that performs context
  76:Generated_Source\PSoC5/ErikaOS_1_cortex_mx_ee_context.inc ****  * switching.  The multistack version doesn't jump to the task body if its TID
  77:Generated_Source\PSoC5/ErikaOS_1_cortex_mx_ee_context.inc ****  * has been maked as stacked.  This is used to switch to a task that has been
  78:Generated_Source\PSoC5/ErikaOS_1_cortex_mx_ee_context.inc ****  * suspend by a previous call to EE_std_change_contex(). */
  79:Generated_Source\PSoC5/ErikaOS_1_cortex_mx_ee_context.inc **** void EE_cortex_mx_change_context(EE_TID tid);
  80:Generated_Source\PSoC5/ErikaOS_1_cortex_mx_ee_context.inc **** /* Pseudo code for EE_std_change_context_multi():
  81:Generated_Source\PSoC5/ErikaOS_1_cortex_mx_ee_context.inc ****      begin:
  82:Generated_Source\PSoC5/ErikaOS_1_cortex_mx_ee_context.inc ****       tos_index = EE_std_thread_tos[tid+1];
  83:Generated_Source\PSoC5/ErikaOS_1_cortex_mx_ee_context.inc ****       if is_not_the_current_stack(tos_index) {
  84:Generated_Source\PSoC5/ErikaOS_1_cortex_mx_ee_context.inc ****           save_caller_saved_registers();
  85:Generated_Source\PSoC5/ErikaOS_1_cortex_mx_ee_context.inc ****           switch_stacks(tos_index);
  86:Generated_Source\PSoC5/ErikaOS_1_cortex_mx_ee_context.inc ****           restore_caller_saved_registers();
ARM GAS  C:\Users\Asus\AppData\Local\Temp\ccDAHDPn.s 			page 24


  87:Generated_Source\PSoC5/ErikaOS_1_cortex_mx_ee_context.inc ****       }
  88:Generated_Source\PSoC5/ErikaOS_1_cortex_mx_ee_context.inc ****       if (is_not_marked_stacked(tid)) {
  89:Generated_Source\PSoC5/ErikaOS_1_cortex_mx_ee_context.inc ****           tid = EE_std_run_task_code(tid);
  90:Generated_Source\PSoC5/ErikaOS_1_cortex_mx_ee_context.inc ****           goto begin;
  91:Generated_Source\PSoC5/ErikaOS_1_cortex_mx_ee_context.inc ****       }
  92:Generated_Source\PSoC5/ErikaOS_1_cortex_mx_ee_context.inc **** 
  93:Generated_Source\PSoC5/ErikaOS_1_cortex_mx_ee_context.inc ****       Please notice that the "goto begin" is actually a recursive call to
  94:Generated_Source\PSoC5/ErikaOS_1_cortex_mx_ee_context.inc ****       EE_std_change_context_multi(), but in this way there is no stack growing.
  95:Generated_Source\PSoC5/ErikaOS_1_cortex_mx_ee_context.inc ****       
  96:Generated_Source\PSoC5/ErikaOS_1_cortex_mx_ee_context.inc ****       Please notice also that 'tid' must NOT be saved onto the stack before
  97:Generated_Source\PSoC5/ErikaOS_1_cortex_mx_ee_context.inc ****       switching stacks, otherwise when switching from another stack back to the
  98:Generated_Source\PSoC5/ErikaOS_1_cortex_mx_ee_context.inc ****       current one, you would overwrite its value.
  99:Generated_Source\PSoC5/ErikaOS_1_cortex_mx_ee_context.inc **** 
 100:Generated_Source\PSoC5/ErikaOS_1_cortex_mx_ee_context.inc ****       For processors where the return address is saved in a register, that
 101:Generated_Source\PSoC5/ErikaOS_1_cortex_mx_ee_context.inc ****       register must be saved in the stack too.
 102:Generated_Source\PSoC5/ErikaOS_1_cortex_mx_ee_context.inc **** 
 103:Generated_Source\PSoC5/ErikaOS_1_cortex_mx_ee_context.inc ****       switch_stacks() should also update EE_hal_active_tos.
 104:Generated_Source\PSoC5/ErikaOS_1_cortex_mx_ee_context.inc **** */
 105:Generated_Source\PSoC5/ErikaOS_1_cortex_mx_ee_context.inc **** 
 106:Generated_Source\PSoC5/ErikaOS_1_cortex_mx_ee_context.inc **** /* Call a the body of a task */
 107:Generated_Source\PSoC5/ErikaOS_1_cortex_mx_ee_context.inc **** #if defined(__OO_BCC1__) || defined(__OO_BCC2__) || \
 108:Generated_Source\PSoC5/ErikaOS_1_cortex_mx_ee_context.inc ****  defined(__OO_ECC1__) || defined(__OO_ECC2__)
 109:Generated_Source\PSoC5/ErikaOS_1_cortex_mx_ee_context.inc **** #define EE_call_task_body(tid)  EE_oo_thread_stub()
 110:Generated_Source\PSoC5/ErikaOS_1_cortex_mx_ee_context.inc **** #else
 111:Generated_Source\PSoC5/ErikaOS_1_cortex_mx_ee_context.inc **** #define EE_call_task_body(tid)  (((void (*)(void))EE_hal_thread_body[tid])())
 112:Generated_Source\PSoC5/ErikaOS_1_cortex_mx_ee_context.inc **** #endif
 113:Generated_Source\PSoC5/ErikaOS_1_cortex_mx_ee_context.inc **** 
 114:Generated_Source\PSoC5/ErikaOS_1_cortex_mx_ee_context.inc **** 
 115:Generated_Source\PSoC5/ErikaOS_1_cortex_mx_ee_context.inc **** /* Launch a new task, possibly switching to a different stack, clean up the task
 116:Generated_Source\PSoC5/ErikaOS_1_cortex_mx_ee_context.inc ****  * after it ends, and call the scheduler (and switch to other tasks/stacks)
 117:Generated_Source\PSoC5/ErikaOS_1_cortex_mx_ee_context.inc ****  * until there are no more tasks to switch to.  In the multistack version, also
 118:Generated_Source\PSoC5/ErikaOS_1_cortex_mx_ee_context.inc ****  * change the current stack before returning if the scheduler asks for it. */
 119:Generated_Source\PSoC5/ErikaOS_1_cortex_mx_ee_context.inc **** __DECLARE_INLINE__ void EE_hal_ready2stacked(EE_TID tid);
 120:Generated_Source\PSoC5/ErikaOS_1_cortex_mx_ee_context.inc **** 
 121:Generated_Source\PSoC5/ErikaOS_1_cortex_mx_ee_context.inc **** 
 122:Generated_Source\PSoC5/ErikaOS_1_cortex_mx_ee_context.inc **** /* Launch a new task on the current stack, clean up the task after it ends, and
 123:Generated_Source\PSoC5/ErikaOS_1_cortex_mx_ee_context.inc ****  * call the scheduler.  Return the next task to launch, which is "marked as
 124:Generated_Source\PSoC5/ErikaOS_1_cortex_mx_ee_context.inc ****  * stacked" if there is no new task to launch. */
 125:Generated_Source\PSoC5/ErikaOS_1_cortex_mx_ee_context.inc **** EE_TID EE_std_run_task_code(EE_TID tid);
 126:Generated_Source\PSoC5/ErikaOS_1_cortex_mx_ee_context.inc **** 
 127:Generated_Source\PSoC5/ErikaOS_1_cortex_mx_ee_context.inc **** 
 128:Generated_Source\PSoC5/ErikaOS_1_cortex_mx_ee_context.inc **** /*
 129:Generated_Source\PSoC5/ErikaOS_1_cortex_mx_ee_context.inc ****  * Inline implementations
 130:Generated_Source\PSoC5/ErikaOS_1_cortex_mx_ee_context.inc ****  */
 131:Generated_Source\PSoC5/ErikaOS_1_cortex_mx_ee_context.inc **** 
 132:Generated_Source\PSoC5/ErikaOS_1_cortex_mx_ee_context.inc **** 
 133:Generated_Source\PSoC5/ErikaOS_1_cortex_mx_ee_context.inc **** #ifdef __MONO__
 134:Generated_Source\PSoC5/ErikaOS_1_cortex_mx_ee_context.inc **** 
 135:Generated_Source\PSoC5/ErikaOS_1_cortex_mx_ee_context.inc **** /* With monostack, we need only the information that the task is stacked.  We
 136:Generated_Source\PSoC5/ErikaOS_1_cortex_mx_ee_context.inc ****  * don't need to know which task it is, as there is no new stack to switch
 137:Generated_Source\PSoC5/ErikaOS_1_cortex_mx_ee_context.inc ****  * to. */
 138:Generated_Source\PSoC5/ErikaOS_1_cortex_mx_ee_context.inc **** #define EE_std_mark_tid_stacked(tid) ((EE_TID)-1)
 139:Generated_Source\PSoC5/ErikaOS_1_cortex_mx_ee_context.inc **** 
 140:Generated_Source\PSoC5/ErikaOS_1_cortex_mx_ee_context.inc **** #define EE_std_need_context_change(tid) ((tid) >= 0)
 141:Generated_Source\PSoC5/ErikaOS_1_cortex_mx_ee_context.inc **** 
 142:Generated_Source\PSoC5/ErikaOS_1_cortex_mx_ee_context.inc **** #endif /* __MONO__ */
 143:Generated_Source\PSoC5/ErikaOS_1_cortex_mx_ee_context.inc **** 
ARM GAS  C:\Users\Asus\AppData\Local\Temp\ccDAHDPn.s 			page 25


 144:Generated_Source\PSoC5/ErikaOS_1_cortex_mx_ee_context.inc **** 
 145:Generated_Source\PSoC5/ErikaOS_1_cortex_mx_ee_context.inc **** #ifdef __MULTI__
 146:Generated_Source\PSoC5/ErikaOS_1_cortex_mx_ee_context.inc **** 
 147:Generated_Source\PSoC5/ErikaOS_1_cortex_mx_ee_context.inc **** /* TID_IS_STACKED_MARK must set the most significative bit */
 148:Generated_Source\PSoC5/ErikaOS_1_cortex_mx_ee_context.inc **** #define EE_std_mark_tid_stacked(tid) ((tid) | (EE_TID)TID_IS_STACKED_MARK)
 149:Generated_Source\PSoC5/ErikaOS_1_cortex_mx_ee_context.inc **** 
 150:Generated_Source\PSoC5/ErikaOS_1_cortex_mx_ee_context.inc **** extern int EE_std_need_context_change(EE_TID tid);
 151:Generated_Source\PSoC5/ErikaOS_1_cortex_mx_ee_context.inc **** 
 152:Generated_Source\PSoC5/ErikaOS_1_cortex_mx_ee_context.inc **** __INLINE__ void  EE_hal_stkchange(EE_TID tid)
 153:Generated_Source\PSoC5/ErikaOS_1_cortex_mx_ee_context.inc **** {
 154:Generated_Source\PSoC5/ErikaOS_1_cortex_mx_ee_context.inc ****     EE_cortex_mx_change_context(EE_std_mark_tid_stacked(tid));
 130              		.loc 5 154 0
 131 0074 40F00040 		orr	r0, r0, #-2147483648
 132              	.LVL5:
 133 0078 FFF7FEFF 		bl	EE_cortex_mx_change_context
 134              	.LVL6:
 135 007c 01E0     		b	.L4
 136              	.LVL7:
 137              	.L3:
 138              	.LBE70:
 139              	.LBE69:
 140              	.LBB71:
 141              	.LBB72:
 155:Generated_Source\PSoC5/ErikaOS_1_cortex_mx_ee_context.inc **** }
 156:Generated_Source\PSoC5/ErikaOS_1_cortex_mx_ee_context.inc **** 
 157:Generated_Source\PSoC5/ErikaOS_1_cortex_mx_ee_context.inc **** #endif /* __MULTI__ */
 158:Generated_Source\PSoC5/ErikaOS_1_cortex_mx_ee_context.inc **** 
 159:Generated_Source\PSoC5/ErikaOS_1_cortex_mx_ee_context.inc **** 
 160:Generated_Source\PSoC5/ErikaOS_1_cortex_mx_ee_context.inc **** /* The functions below should work for both the monostack and multistack
 161:Generated_Source\PSoC5/ErikaOS_1_cortex_mx_ee_context.inc ****  * versions of the kernel, thanks to the macros defined above.  In the mono
 162:Generated_Source\PSoC5/ErikaOS_1_cortex_mx_ee_context.inc ****  * version, all the stack-related stuff is ignored. */
 163:Generated_Source\PSoC5/ErikaOS_1_cortex_mx_ee_context.inc **** 
 164:Generated_Source\PSoC5/ErikaOS_1_cortex_mx_ee_context.inc **** 
 165:Generated_Source\PSoC5/ErikaOS_1_cortex_mx_ee_context.inc **** __INLINE__ void  EE_hal_ready2stacked(EE_TID tid)
 166:Generated_Source\PSoC5/ErikaOS_1_cortex_mx_ee_context.inc **** {
 167:Generated_Source\PSoC5/ErikaOS_1_cortex_mx_ee_context.inc ****     EE_cortex_mx_change_context(tid);
 142              		.loc 5 167 0
 143 007e FFF7FEFF 		bl	EE_cortex_mx_change_context
 144              	.LVL8:
 145              	.L4:
 146              	.LBE72:
 147              	.LBE71:
 148              	.LBE68:
 149              	.LBE67:
 188:Generated_Source\PSoC5/ErikaOS_1_ee_schedule.c **** 
 189:Generated_Source\PSoC5/ErikaOS_1_ee_schedule.c ****       EE_ORTI_set_th_eq_dispatch_prio(current);
 190:Generated_Source\PSoC5/ErikaOS_1_ee_schedule.c ****       EE_ORTI_set_th_eq_dispatch_prio(rq);
 191:Generated_Source\PSoC5/ErikaOS_1_ee_schedule.c **** 
 192:Generated_Source\PSoC5/ErikaOS_1_ee_schedule.c ****       /* Execute context SWITCH, this method return when we have a switch
 193:Generated_Source\PSoC5/ErikaOS_1_ee_schedule.c ****          back on the previous TASK contest. */
 194:Generated_Source\PSoC5/ErikaOS_1_ee_schedule.c ****       EE_oo_run_next_task();
 195:Generated_Source\PSoC5/ErikaOS_1_ee_schedule.c **** 
 196:Generated_Source\PSoC5/ErikaOS_1_ee_schedule.c ****       /* release the ready priority bit and... */
 197:Generated_Source\PSoC5/ErikaOS_1_ee_schedule.c ****       EE_sys_ceiling &= ~EE_th_ready_prio[current];
 150              		.loc 1 197 0
 151 0082 0F4A     		ldr	r2, .L10+24
 152 0084 1368     		ldr	r3, [r2]
ARM GAS  C:\Users\Asus\AppData\Local\Temp\ccDAHDPn.s 			page 26


 153 0086 23EA0603 		bic	r3, r3, r6
 198:Generated_Source\PSoC5/ErikaOS_1_ee_schedule.c ****       /* ...get again the internal resource */
 199:Generated_Source\PSoC5/ErikaOS_1_ee_schedule.c ****       EE_sys_ceiling |= EE_th_dispatch_prio[current];
 154              		.loc 1 199 0
 155 008a 3B43     		orrs	r3, r3, r7
 156 008c 1360     		str	r3, [r2]
 157              	.LVL9:
 200:Generated_Source\PSoC5/ErikaOS_1_ee_schedule.c **** 
 201:Generated_Source\PSoC5/ErikaOS_1_ee_schedule.c ****       EE_ORTI_set_th_eq_dispatch_prio(current);
 202:Generated_Source\PSoC5/ErikaOS_1_ee_schedule.c ****     }
 203:Generated_Source\PSoC5/ErikaOS_1_ee_schedule.c ****     ev = E_OK;
 158              		.loc 1 203 0
 159 008e 0020     		movs	r0, #0
 160 0090 06E0     		b	.L2
 161              	.LVL10:
 162              	.L5:
 107:Generated_Source\PSoC5/ErikaOS_1_ee_schedule.c ****   } else
 163              		.loc 1 107 0
 164 0092 0220     		movs	r0, #2
 165              	.LVL11:
 166 0094 04E0     		b	.L2
 167              	.LVL12:
 168              	.L6:
 169 0096 0220     		movs	r0, #2
 170              	.LVL13:
 171 0098 02E0     		b	.L2
 172              	.LVL14:
 173              	.L7:
 204:Generated_Source\PSoC5/ErikaOS_1_ee_schedule.c ****   } else {
 205:Generated_Source\PSoC5/ErikaOS_1_ee_schedule.c ****     ev = E_OK;
 174              		.loc 1 205 0
 175 009a 0020     		movs	r0, #0
 176              	.LVL15:
 177 009c 00E0     		b	.L2
 178              	.LVL16:
 179              	.L8:
 203:Generated_Source\PSoC5/ErikaOS_1_ee_schedule.c ****   } else {
 180              		.loc 1 203 0
 181 009e 0020     		movs	r0, #0
 182              	.LVL17:
 183              	.L2:
 184              	.LBB73:
 185              	.LBB74:
 186              	.LBB75:
 232:Generated_Source\PSoC5/ErikaOS_1_cortex_mx_ee_cpu.inc **** #endif	/* !__KEIL__ */
 187              		.loc 2 232 0
 188              		.syntax unified
 189              	@ 232 "Generated_Source\PSoC5\ErikaOS_1_cortex_mx_ee_cpu.inc" 1
 190 00a0 84F31088 		msr primask, r4
 191              	@ 0 "" 2
 192              	.LVL18:
 193              		.thumb
 194              		.syntax unified
 195              	.LBE75:
 196              	.LBE74:
 197              	.LBE73:
 206:Generated_Source\PSoC5/ErikaOS_1_ee_schedule.c ****   }
ARM GAS  C:\Users\Asus\AppData\Local\Temp\ccDAHDPn.s 			page 27


 207:Generated_Source\PSoC5/ErikaOS_1_ee_schedule.c **** 
 208:Generated_Source\PSoC5/ErikaOS_1_ee_schedule.c ****   if ( ev != E_OK ) {
 209:Generated_Source\PSoC5/ErikaOS_1_ee_schedule.c ****     EE_ORTI_set_lasterror(ev);
 210:Generated_Source\PSoC5/ErikaOS_1_ee_schedule.c ****     EE_oo_notify_error_service(OSServiceId_Schedule, ev);
 211:Generated_Source\PSoC5/ErikaOS_1_ee_schedule.c ****   }
 212:Generated_Source\PSoC5/ErikaOS_1_ee_schedule.c **** 
 213:Generated_Source\PSoC5/ErikaOS_1_ee_schedule.c ****   EE_ORTI_set_service_out(EE_SERVICETRACE_SCHEDULE);
 214:Generated_Source\PSoC5/ErikaOS_1_ee_schedule.c ****   EE_OS_EXIT_CRITICAL_SECTION();
 215:Generated_Source\PSoC5/ErikaOS_1_ee_schedule.c **** 
 216:Generated_Source\PSoC5/ErikaOS_1_ee_schedule.c ****   return ev;
 217:Generated_Source\PSoC5/ErikaOS_1_ee_schedule.c **** }
 198              		.loc 1 217 0
 199 00a4 F8BD     		pop	{r3, r4, r5, r6, r7, pc}
 200              	.L11:
 201 00a6 00BF     		.align	2
 202              	.L10:
 203 00a8 00000000 		.word	EE_stkfirst
 204 00ac 00000000 		.word	EE_IRQ_nesting_level
 205 00b0 00000000 		.word	EE_th_ready_prio
 206 00b4 00000000 		.word	EE_th_dispatch_prio
 207 00b8 00000000 		.word	EE_th_status
 208 00bc 00000000 		.word	EE_th_waswaiting
 209 00c0 00000000 		.word	EE_sys_ceiling
 210              		.cfi_endproc
 211              	.LFE70:
 212              		.size	EE_oo_Schedule, .-EE_oo_Schedule
 213              		.text
 214              	.Letext0:
 215              		.file 6 "Generated_Source\\PSoC5\\ErikaOS_1_common_ee_types.inc"
 216              		.file 7 "Generated_Source\\PSoC5\\ErikaOS_1_ee_oo_common.inc"
 217              		.file 8 "Generated_Source\\PSoC5\\ErikaOS_1_ee_as_internal.inc"
 218              		.file 9 "Generated_Source\\PSoC5\\ErikaOS_1_cortex_mx_ee_internal.inc"
 219              		.file 10 "Generated_Source\\PSoC5\\ErikaOS_1_ee_oo_intfunc.inc"