ARM GAS  C:\Users\Asus\AppData\Local\Temp\ccF7rYqi.s 			page 1


   1              		.syntax unified
   2              		.cpu cortex-m3
   3              		.fpu softvfp
   4              		.eabi_attribute 20, 1
   5              		.eabi_attribute 21, 1
   6              		.eabi_attribute 23, 3
   7              		.eabi_attribute 24, 1
   8              		.eabi_attribute 25, 1
   9              		.eabi_attribute 26, 1
  10              		.eabi_attribute 30, 1
  11              		.eabi_attribute 34, 1
  12              		.eabi_attribute 18, 4
  13              		.thumb
  14              		.syntax unified
  15              		.file	"ErikaOS_1_ee_alcancel.c"
  16              		.text
  17              	.Ltext0:
  18              		.cfi_sections	.debug_frame
  19              		.section	.text.EE_oo_CancelAlarm,"ax",%progbits
  20              		.align	2
  21              		.global	EE_oo_CancelAlarm
  22              		.thumb
  23              		.thumb_func
  24              		.type	EE_oo_CancelAlarm, %function
  25              	EE_oo_CancelAlarm:
  26              	.LFB70:
  27              		.file 1 "Generated_Source\\PSoC5\\ErikaOS_1_ee_alcancel.c"
   1:Generated_Source\PSoC5/ErikaOS_1_ee_alcancel.c **** /* ###*B*###
   2:Generated_Source\PSoC5/ErikaOS_1_ee_alcancel.c ****  * ERIKA Enterprise - a tiny RTOS for small microcontrollers
   3:Generated_Source\PSoC5/ErikaOS_1_ee_alcancel.c ****  *
   4:Generated_Source\PSoC5/ErikaOS_1_ee_alcancel.c ****  * Copyright (C) 2002-2008  Evidence Srl
   5:Generated_Source\PSoC5/ErikaOS_1_ee_alcancel.c ****  *
   6:Generated_Source\PSoC5/ErikaOS_1_ee_alcancel.c ****  * This file is part of ERIKA Enterprise.
   7:Generated_Source\PSoC5/ErikaOS_1_ee_alcancel.c ****  *
   8:Generated_Source\PSoC5/ErikaOS_1_ee_alcancel.c ****  * ERIKA Enterprise is free software; you can redistribute it
   9:Generated_Source\PSoC5/ErikaOS_1_ee_alcancel.c ****  * and/or modify it under the terms of the GNU General Public License
  10:Generated_Source\PSoC5/ErikaOS_1_ee_alcancel.c ****  * version 2 as published by the Free Software Foundation, 
  11:Generated_Source\PSoC5/ErikaOS_1_ee_alcancel.c ****  * (with a special exception described below).
  12:Generated_Source\PSoC5/ErikaOS_1_ee_alcancel.c ****  *
  13:Generated_Source\PSoC5/ErikaOS_1_ee_alcancel.c ****  * Linking this code statically or dynamically with other modules is
  14:Generated_Source\PSoC5/ErikaOS_1_ee_alcancel.c ****  * making a combined work based on this code.  Thus, the terms and
  15:Generated_Source\PSoC5/ErikaOS_1_ee_alcancel.c ****  * conditions of the GNU General Public License cover the whole
  16:Generated_Source\PSoC5/ErikaOS_1_ee_alcancel.c ****  * combination.
  17:Generated_Source\PSoC5/ErikaOS_1_ee_alcancel.c ****  *
  18:Generated_Source\PSoC5/ErikaOS_1_ee_alcancel.c ****  * As a special exception, the copyright holders of this library give you
  19:Generated_Source\PSoC5/ErikaOS_1_ee_alcancel.c ****  * permission to link this code with independent modules to produce an
  20:Generated_Source\PSoC5/ErikaOS_1_ee_alcancel.c ****  * executable, regardless of the license terms of these independent
  21:Generated_Source\PSoC5/ErikaOS_1_ee_alcancel.c ****  * modules, and to copy and distribute the resulting executable under
  22:Generated_Source\PSoC5/ErikaOS_1_ee_alcancel.c ****  * terms of your choice, provided that you also meet, for each linked
  23:Generated_Source\PSoC5/ErikaOS_1_ee_alcancel.c ****  * independent module, the terms and conditions of the license of that
  24:Generated_Source\PSoC5/ErikaOS_1_ee_alcancel.c ****  * module.  An independent module is a module which is not derived from
  25:Generated_Source\PSoC5/ErikaOS_1_ee_alcancel.c ****  * or based on this library.  If you modify this code, you may extend
  26:Generated_Source\PSoC5/ErikaOS_1_ee_alcancel.c ****  * this exception to your version of the code, but you are not
  27:Generated_Source\PSoC5/ErikaOS_1_ee_alcancel.c ****  * obligated to do so.  If you do not wish to do so, delete this
  28:Generated_Source\PSoC5/ErikaOS_1_ee_alcancel.c ****  * exception statement from your version.
  29:Generated_Source\PSoC5/ErikaOS_1_ee_alcancel.c ****  *
  30:Generated_Source\PSoC5/ErikaOS_1_ee_alcancel.c ****  * ERIKA Enterprise is distributed in the hope that it will be
ARM GAS  C:\Users\Asus\AppData\Local\Temp\ccF7rYqi.s 			page 2


  31:Generated_Source\PSoC5/ErikaOS_1_ee_alcancel.c ****  * useful, but WITHOUT ANY WARRANTY; without even the implied warranty
  32:Generated_Source\PSoC5/ErikaOS_1_ee_alcancel.c ****  * of MERCHANTABILITY or FITNESS FOR A PARTICULAR PURPOSE.  See the
  33:Generated_Source\PSoC5/ErikaOS_1_ee_alcancel.c ****  * GNU General Public License version 2 for more details.
  34:Generated_Source\PSoC5/ErikaOS_1_ee_alcancel.c ****  *
  35:Generated_Source\PSoC5/ErikaOS_1_ee_alcancel.c ****  * You should have received a copy of the GNU General Public License
  36:Generated_Source\PSoC5/ErikaOS_1_ee_alcancel.c ****  * version 2 along with ERIKA Enterprise; if not, write to the
  37:Generated_Source\PSoC5/ErikaOS_1_ee_alcancel.c ****  * Free Software Foundation, Inc., 51 Franklin Street, Fifth Floor,
  38:Generated_Source\PSoC5/ErikaOS_1_ee_alcancel.c ****  * Boston, MA 02110-1301 USA.
  39:Generated_Source\PSoC5/ErikaOS_1_ee_alcancel.c ****  * ###*E*### */
  40:Generated_Source\PSoC5/ErikaOS_1_ee_alcancel.c **** 
  41:Generated_Source\PSoC5/ErikaOS_1_ee_alcancel.c **** /*
  42:Generated_Source\PSoC5/ErikaOS_1_ee_alcancel.c ****  * Author: 2002 Paolo Gai
  43:Generated_Source\PSoC5/ErikaOS_1_ee_alcancel.c ****  * CVS: $Id: ee_alcancel.c,v 1.1 2005/07/16 12:23:42 pj Exp $
  44:Generated_Source\PSoC5/ErikaOS_1_ee_alcancel.c ****  */
  45:Generated_Source\PSoC5/ErikaOS_1_ee_alcancel.c **** 
  46:Generated_Source\PSoC5/ErikaOS_1_ee_alcancel.c **** /*
  47:Generated_Source\PSoC5/ErikaOS_1_ee_alcancel.c ****  * PSoC Port and API Generation
  48:Generated_Source\PSoC5/ErikaOS_1_ee_alcancel.c ****  * Carlos Fernando Meier Martinez
  49:Generated_Source\PSoC5/ErikaOS_1_ee_alcancel.c ****  * Hochschule Darmstadt, Germany. 2017.
  50:Generated_Source\PSoC5/ErikaOS_1_ee_alcancel.c ****  */
  51:Generated_Source\PSoC5/ErikaOS_1_ee_alcancel.c **** #include "ErikaOS_1_ee_tracing.h"
  52:Generated_Source\PSoC5/ErikaOS_1_ee_alcancel.c **** 
  53:Generated_Source\PSoC5/ErikaOS_1_ee_alcancel.c **** #include "ErikaOS_1_ee_internal.inc"
  54:Generated_Source\PSoC5/ErikaOS_1_ee_alcancel.c **** #if (__OO_configUSE_TRACE_FACILITY == 1)
  55:Generated_Source\PSoC5/ErikaOS_1_ee_alcancel.c **** #include "trcKernelPort.h"
  56:Generated_Source\PSoC5/ErikaOS_1_ee_alcancel.c **** #endif
  57:Generated_Source\PSoC5/ErikaOS_1_ee_alcancel.c **** #if (defined(__OO_BCC1__) || defined(__OO_BCC2__) || defined(__OO_ECC1__) || defined(__OO_ECC2__)) 
  58:Generated_Source\PSoC5/ErikaOS_1_ee_alcancel.c **** 
  59:Generated_Source\PSoC5/ErikaOS_1_ee_alcancel.c **** /* CancelAlarm
  60:Generated_Source\PSoC5/ErikaOS_1_ee_alcancel.c ****    - This function cancels the AlarmID
  61:Generated_Source\PSoC5/ErikaOS_1_ee_alcancel.c ****    - it returns E_OK if all OK
  62:Generated_Source\PSoC5/ErikaOS_1_ee_alcancel.c ****      E_OS_NOFUNC if the Alarm is not used
  63:Generated_Source\PSoC5/ErikaOS_1_ee_alcancel.c ****      E_OS_ID if the alarm is invalid (only Extended status)
  64:Generated_Source\PSoC5/ErikaOS_1_ee_alcancel.c **** */
  65:Generated_Source\PSoC5/ErikaOS_1_ee_alcancel.c **** 
  66:Generated_Source\PSoC5/ErikaOS_1_ee_alcancel.c **** #ifndef __PRIVATE_CANCELALARM__
  67:Generated_Source\PSoC5/ErikaOS_1_ee_alcancel.c **** StatusType EE_oo_CancelAlarm(AlarmType AlarmID)
  68:Generated_Source\PSoC5/ErikaOS_1_ee_alcancel.c **** {
  28              		.loc 1 68 0
  29              		.cfi_startproc
  30              		@ args = 0, pretend = 0, frame = 0
  31              		@ frame_needed = 0, uses_anonymous_args = 0
  32              		@ link register save eliminated.
  33              	.LVL0:
  34              	.LBB32:
  35              	.LBB33:
  36              	.LBB34:
  37              		.file 2 "Generated_Source\\PSoC5\\ErikaOS_1_cortex_mx_ee_cpu.inc"
   1:Generated_Source\PSoC5/ErikaOS_1_cortex_mx_ee_cpu.inc **** /* ###*B*###
   2:Generated_Source\PSoC5/ErikaOS_1_cortex_mx_ee_cpu.inc ****  * ERIKA Enterprise - a tiny RTOS for small microcontrollers
   3:Generated_Source\PSoC5/ErikaOS_1_cortex_mx_ee_cpu.inc ****  *
   4:Generated_Source\PSoC5/ErikaOS_1_cortex_mx_ee_cpu.inc ****  * Copyright (C) 2002-2011  Evidence Srl
   5:Generated_Source\PSoC5/ErikaOS_1_cortex_mx_ee_cpu.inc ****  *
   6:Generated_Source\PSoC5/ErikaOS_1_cortex_mx_ee_cpu.inc ****  * This file is part of ERIKA Enterprise.
   7:Generated_Source\PSoC5/ErikaOS_1_cortex_mx_ee_cpu.inc ****  *
   8:Generated_Source\PSoC5/ErikaOS_1_cortex_mx_ee_cpu.inc ****  * ERIKA Enterprise is free software; you can redistribute it
   9:Generated_Source\PSoC5/ErikaOS_1_cortex_mx_ee_cpu.inc ****  * and/or modify it under the terms of the GNU General Public License
ARM GAS  C:\Users\Asus\AppData\Local\Temp\ccF7rYqi.s 			page 3


  10:Generated_Source\PSoC5/ErikaOS_1_cortex_mx_ee_cpu.inc ****  * version 2 as published by the Free Software Foundation, 
  11:Generated_Source\PSoC5/ErikaOS_1_cortex_mx_ee_cpu.inc ****  * (with a special exception described below).
  12:Generated_Source\PSoC5/ErikaOS_1_cortex_mx_ee_cpu.inc ****  *
  13:Generated_Source\PSoC5/ErikaOS_1_cortex_mx_ee_cpu.inc ****  * Linking this code statically or dynamically with other modules is
  14:Generated_Source\PSoC5/ErikaOS_1_cortex_mx_ee_cpu.inc ****  * making a combined work based on this code.  Thus, the terms and
  15:Generated_Source\PSoC5/ErikaOS_1_cortex_mx_ee_cpu.inc ****  * conditions of the GNU General Public License cover the whole
  16:Generated_Source\PSoC5/ErikaOS_1_cortex_mx_ee_cpu.inc ****  * combination.
  17:Generated_Source\PSoC5/ErikaOS_1_cortex_mx_ee_cpu.inc ****  *
  18:Generated_Source\PSoC5/ErikaOS_1_cortex_mx_ee_cpu.inc ****  * As a special exception, the copyright holders of this library give you
  19:Generated_Source\PSoC5/ErikaOS_1_cortex_mx_ee_cpu.inc ****  * permission to link this code with independent modules to produce an
  20:Generated_Source\PSoC5/ErikaOS_1_cortex_mx_ee_cpu.inc ****  * executable, regardless of the license terms of these independent
  21:Generated_Source\PSoC5/ErikaOS_1_cortex_mx_ee_cpu.inc ****  * modules, and to copy and distribute the resulting executable under
  22:Generated_Source\PSoC5/ErikaOS_1_cortex_mx_ee_cpu.inc ****  * terms of your choice, provided that you also meet, for each linked
  23:Generated_Source\PSoC5/ErikaOS_1_cortex_mx_ee_cpu.inc ****  * independent module, the terms and conditions of the license of that
  24:Generated_Source\PSoC5/ErikaOS_1_cortex_mx_ee_cpu.inc ****  * module.  An independent module is a module which is not derived from
  25:Generated_Source\PSoC5/ErikaOS_1_cortex_mx_ee_cpu.inc ****  * or based on this library.  If you modify this code, you may extend
  26:Generated_Source\PSoC5/ErikaOS_1_cortex_mx_ee_cpu.inc ****  * this exception to your version of the code, but you are not
  27:Generated_Source\PSoC5/ErikaOS_1_cortex_mx_ee_cpu.inc ****  * obligated to do so.  If you do not wish to do so, delete this
  28:Generated_Source\PSoC5/ErikaOS_1_cortex_mx_ee_cpu.inc ****  * exception statement from your version.
  29:Generated_Source\PSoC5/ErikaOS_1_cortex_mx_ee_cpu.inc ****  *
  30:Generated_Source\PSoC5/ErikaOS_1_cortex_mx_ee_cpu.inc ****  * ERIKA Enterprise is distributed in the hope that it will be
  31:Generated_Source\PSoC5/ErikaOS_1_cortex_mx_ee_cpu.inc ****  * useful, but WITHOUT ANY WARRANTY; without even the implied warranty
  32:Generated_Source\PSoC5/ErikaOS_1_cortex_mx_ee_cpu.inc ****  * of MERCHANTABILITY or FITNESS FOR A PARTICULAR PURPOSE.  See the
  33:Generated_Source\PSoC5/ErikaOS_1_cortex_mx_ee_cpu.inc ****  * GNU General Public License version 2 for more details.
  34:Generated_Source\PSoC5/ErikaOS_1_cortex_mx_ee_cpu.inc ****  *
  35:Generated_Source\PSoC5/ErikaOS_1_cortex_mx_ee_cpu.inc ****  * You should have received a copy of the GNU General Public License
  36:Generated_Source\PSoC5/ErikaOS_1_cortex_mx_ee_cpu.inc ****  * version 2 along with ERIKA Enterprise; if not, write to the
  37:Generated_Source\PSoC5/ErikaOS_1_cortex_mx_ee_cpu.inc ****  * Free Software Foundation, Inc., 51 Franklin Street, Fifth Floor,
  38:Generated_Source\PSoC5/ErikaOS_1_cortex_mx_ee_cpu.inc ****  * Boston, MA 02110-1301 USA.
  39:Generated_Source\PSoC5/ErikaOS_1_cortex_mx_ee_cpu.inc ****  * ###*E*### */
  40:Generated_Source\PSoC5/ErikaOS_1_cortex_mx_ee_cpu.inc **** 
  41:Generated_Source\PSoC5/ErikaOS_1_cortex_mx_ee_cpu.inc **** /** 
  42:Generated_Source\PSoC5/ErikaOS_1_cortex_mx_ee_cpu.inc **** 	@file ee_cpu.h
  43:Generated_Source\PSoC5/ErikaOS_1_cortex_mx_ee_cpu.inc **** 	@brief CPU-dependent part of HAL. Derived from pkg/cpu/pic30/inc/ee_cpu.h
  44:Generated_Source\PSoC5/ErikaOS_1_cortex_mx_ee_cpu.inc **** 	@author Gianluca Franchino
  45:Generated_Source\PSoC5/ErikaOS_1_cortex_mx_ee_cpu.inc **** 	@author Giuseppe Serano
  46:Generated_Source\PSoC5/ErikaOS_1_cortex_mx_ee_cpu.inc **** 	@date 2011
  47:Generated_Source\PSoC5/ErikaOS_1_cortex_mx_ee_cpu.inc **** */ 
  48:Generated_Source\PSoC5/ErikaOS_1_cortex_mx_ee_cpu.inc ****     
  49:Generated_Source\PSoC5/ErikaOS_1_cortex_mx_ee_cpu.inc **** /*
  50:Generated_Source\PSoC5/ErikaOS_1_cortex_mx_ee_cpu.inc ****  * PSoC Port and API Generation
  51:Generated_Source\PSoC5/ErikaOS_1_cortex_mx_ee_cpu.inc ****  * Carlos Fernando Meier Martinez
  52:Generated_Source\PSoC5/ErikaOS_1_cortex_mx_ee_cpu.inc ****  * Hochschule Darmstadt, Germany. 2017.
  53:Generated_Source\PSoC5/ErikaOS_1_cortex_mx_ee_cpu.inc ****  */
  54:Generated_Source\PSoC5/ErikaOS_1_cortex_mx_ee_cpu.inc **** 
  55:Generated_Source\PSoC5/ErikaOS_1_cortex_mx_ee_cpu.inc **** #ifndef __INCLUDE_CORTEX_MX_EE_CPU_H__
  56:Generated_Source\PSoC5/ErikaOS_1_cortex_mx_ee_cpu.inc **** #define __INCLUDE_CORTEX_MX_EE_CPU_H__
  57:Generated_Source\PSoC5/ErikaOS_1_cortex_mx_ee_cpu.inc **** 
  58:Generated_Source\PSoC5/ErikaOS_1_cortex_mx_ee_cpu.inc **** #include "ErikaOS_1_eecfg.inc"
  59:Generated_Source\PSoC5/ErikaOS_1_cortex_mx_ee_cpu.inc **** 
  60:Generated_Source\PSoC5/ErikaOS_1_cortex_mx_ee_cpu.inc **** 
  61:Generated_Source\PSoC5/ErikaOS_1_cortex_mx_ee_cpu.inc **** #ifdef __GNU__
  62:Generated_Source\PSoC5/ErikaOS_1_cortex_mx_ee_cpu.inc **** #include "ErikaOS_1_common_ee_compiler_gcc.inc"
  63:Generated_Source\PSoC5/ErikaOS_1_cortex_mx_ee_cpu.inc **** #endif
  64:Generated_Source\PSoC5/ErikaOS_1_cortex_mx_ee_cpu.inc **** 
  65:Generated_Source\PSoC5/ErikaOS_1_cortex_mx_ee_cpu.inc **** /* Initial stack offset (in words): Used in multistack. */
  66:Generated_Source\PSoC5/ErikaOS_1_cortex_mx_ee_cpu.inc **** #ifndef CORTEX_MX_INIT_TOS_OFFSET
ARM GAS  C:\Users\Asus\AppData\Local\Temp\ccF7rYqi.s 			page 4


  67:Generated_Source\PSoC5/ErikaOS_1_cortex_mx_ee_cpu.inc **** #define CORTEX_MX_INIT_TOS_OFFSET 10
  68:Generated_Source\PSoC5/ErikaOS_1_cortex_mx_ee_cpu.inc **** #endif
  69:Generated_Source\PSoC5/ErikaOS_1_cortex_mx_ee_cpu.inc **** 
  70:Generated_Source\PSoC5/ErikaOS_1_cortex_mx_ee_cpu.inc **** /*************************************************************************
  71:Generated_Source\PSoC5/ErikaOS_1_cortex_mx_ee_cpu.inc ****  HAL Types and structures
  72:Generated_Source\PSoC5/ErikaOS_1_cortex_mx_ee_cpu.inc ****  *************************************************************************/
  73:Generated_Source\PSoC5/ErikaOS_1_cortex_mx_ee_cpu.inc **** 
  74:Generated_Source\PSoC5/ErikaOS_1_cortex_mx_ee_cpu.inc **** /* Primitive data types */
  75:Generated_Source\PSoC5/ErikaOS_1_cortex_mx_ee_cpu.inc **** #include "ErikaOS_1_common_ee_types.inc"
  76:Generated_Source\PSoC5/ErikaOS_1_cortex_mx_ee_cpu.inc **** 
  77:Generated_Source\PSoC5/ErikaOS_1_cortex_mx_ee_cpu.inc **** typedef EE_UINT32 EE_UREG;
  78:Generated_Source\PSoC5/ErikaOS_1_cortex_mx_ee_cpu.inc **** typedef EE_INT32  EE_SREG;
  79:Generated_Source\PSoC5/ErikaOS_1_cortex_mx_ee_cpu.inc **** typedef EE_UINT32 EE_FREG;
  80:Generated_Source\PSoC5/ErikaOS_1_cortex_mx_ee_cpu.inc **** #define EE_UREG_SIZE 4
  81:Generated_Source\PSoC5/ErikaOS_1_cortex_mx_ee_cpu.inc **** 
  82:Generated_Source\PSoC5/ErikaOS_1_cortex_mx_ee_cpu.inc **** /* boolean type */
  83:Generated_Source\PSoC5/ErikaOS_1_cortex_mx_ee_cpu.inc **** #ifndef EE_TYPEBOOL
  84:Generated_Source\PSoC5/ErikaOS_1_cortex_mx_ee_cpu.inc **** typedef EE_UREG EE_TYPEBOOL;
  85:Generated_Source\PSoC5/ErikaOS_1_cortex_mx_ee_cpu.inc **** #endif
  86:Generated_Source\PSoC5/ErikaOS_1_cortex_mx_ee_cpu.inc **** 
  87:Generated_Source\PSoC5/ErikaOS_1_cortex_mx_ee_cpu.inc **** /* boolean true define */
  88:Generated_Source\PSoC5/ErikaOS_1_cortex_mx_ee_cpu.inc **** #ifndef EE_TRUE
  89:Generated_Source\PSoC5/ErikaOS_1_cortex_mx_ee_cpu.inc **** #define EE_TRUE ((EE_TYPEBOOL)1U)
  90:Generated_Source\PSoC5/ErikaOS_1_cortex_mx_ee_cpu.inc **** #endif
  91:Generated_Source\PSoC5/ErikaOS_1_cortex_mx_ee_cpu.inc **** 
  92:Generated_Source\PSoC5/ErikaOS_1_cortex_mx_ee_cpu.inc **** /* boolean false define */
  93:Generated_Source\PSoC5/ErikaOS_1_cortex_mx_ee_cpu.inc **** #ifndef EE_FALSE
  94:Generated_Source\PSoC5/ErikaOS_1_cortex_mx_ee_cpu.inc **** #define EE_FALSE ((EE_TYPEBOOL)0U)
  95:Generated_Source\PSoC5/ErikaOS_1_cortex_mx_ee_cpu.inc **** #endif
  96:Generated_Source\PSoC5/ErikaOS_1_cortex_mx_ee_cpu.inc **** 
  97:Generated_Source\PSoC5/ErikaOS_1_cortex_mx_ee_cpu.inc **** #define	EE_HWREG_PTR		volatile EE_UREG *
  98:Generated_Source\PSoC5/ErikaOS_1_cortex_mx_ee_cpu.inc **** #define	EE_HWREG_ADDR(x)	((EE_HWREG_PTR)(x))
  99:Generated_Source\PSoC5/ErikaOS_1_cortex_mx_ee_cpu.inc **** #define	EE_HWREG(x)		(*EE_HWREG_ADDR(x))
 100:Generated_Source\PSoC5/ErikaOS_1_cortex_mx_ee_cpu.inc **** 
 101:Generated_Source\PSoC5/ErikaOS_1_cortex_mx_ee_cpu.inc **** #ifdef __GNU__
 102:Generated_Source\PSoC5/ErikaOS_1_cortex_mx_ee_cpu.inc **** 
 103:Generated_Source\PSoC5/ErikaOS_1_cortex_mx_ee_cpu.inc **** /* Get current SP */
 104:Generated_Source\PSoC5/ErikaOS_1_cortex_mx_ee_cpu.inc **** __INLINE__ EE_UINT32  __current_sp(void)
 105:Generated_Source\PSoC5/ErikaOS_1_cortex_mx_ee_cpu.inc **** {
 106:Generated_Source\PSoC5/ErikaOS_1_cortex_mx_ee_cpu.inc **** EE_UINT32 temp;
 107:Generated_Source\PSoC5/ErikaOS_1_cortex_mx_ee_cpu.inc **** __ASM ("mov %0, sp" : "=r" (temp) : );
 108:Generated_Source\PSoC5/ErikaOS_1_cortex_mx_ee_cpu.inc **** return temp;
 109:Generated_Source\PSoC5/ErikaOS_1_cortex_mx_ee_cpu.inc **** }
 110:Generated_Source\PSoC5/ErikaOS_1_cortex_mx_ee_cpu.inc **** 
 111:Generated_Source\PSoC5/ErikaOS_1_cortex_mx_ee_cpu.inc **** /* Set a breakpoint */
 112:Generated_Source\PSoC5/ErikaOS_1_cortex_mx_ee_cpu.inc **** #define __breakpoint(value)	__ASM ("bkpt "#value)
 113:Generated_Source\PSoC5/ErikaOS_1_cortex_mx_ee_cpu.inc **** 
 114:Generated_Source\PSoC5/ErikaOS_1_cortex_mx_ee_cpu.inc **** #endif
 115:Generated_Source\PSoC5/ErikaOS_1_cortex_mx_ee_cpu.inc **** 
 116:Generated_Source\PSoC5/ErikaOS_1_cortex_mx_ee_cpu.inc **** /* ISR Priority representation type */
 117:Generated_Source\PSoC5/ErikaOS_1_cortex_mx_ee_cpu.inc **** typedef EE_UREG EE_TYPEISR2PRIO;
 118:Generated_Source\PSoC5/ErikaOS_1_cortex_mx_ee_cpu.inc **** 
 119:Generated_Source\PSoC5/ErikaOS_1_cortex_mx_ee_cpu.inc **** /* Thread IDs */
 120:Generated_Source\PSoC5/ErikaOS_1_cortex_mx_ee_cpu.inc **** typedef EE_INT32 EE_TID;
 121:Generated_Source\PSoC5/ErikaOS_1_cortex_mx_ee_cpu.inc **** 
 122:Generated_Source\PSoC5/ErikaOS_1_cortex_mx_ee_cpu.inc **** /* Thread IDs - unsigned version*/
 123:Generated_Source\PSoC5/ErikaOS_1_cortex_mx_ee_cpu.inc **** typedef EE_UINT32 EE_UTID;
ARM GAS  C:\Users\Asus\AppData\Local\Temp\ccF7rYqi.s 			page 5


 124:Generated_Source\PSoC5/ErikaOS_1_cortex_mx_ee_cpu.inc **** 
 125:Generated_Source\PSoC5/ErikaOS_1_cortex_mx_ee_cpu.inc **** /* Used by the common layer to decide whether to start a new thread */
 126:Generated_Source\PSoC5/ErikaOS_1_cortex_mx_ee_cpu.inc **** #define TID_IS_STACKED_MARK 0x80000000
 127:Generated_Source\PSoC5/ErikaOS_1_cortex_mx_ee_cpu.inc **** 
 128:Generated_Source\PSoC5/ErikaOS_1_cortex_mx_ee_cpu.inc **** /* EE_TYPEIRQ is currently unused */
 129:Generated_Source\PSoC5/ErikaOS_1_cortex_mx_ee_cpu.inc **** 
 130:Generated_Source\PSoC5/ErikaOS_1_cortex_mx_ee_cpu.inc **** /* XXX: define EE_TIME? */
 131:Generated_Source\PSoC5/ErikaOS_1_cortex_mx_ee_cpu.inc **** 
 132:Generated_Source\PSoC5/ErikaOS_1_cortex_mx_ee_cpu.inc **** /* Use the "standard" implementation */
 133:Generated_Source\PSoC5/ErikaOS_1_cortex_mx_ee_cpu.inc **** #include "ErikaOS_1_common_ee_hal_structs.inc"
 134:Generated_Source\PSoC5/ErikaOS_1_cortex_mx_ee_cpu.inc **** 
 135:Generated_Source\PSoC5/ErikaOS_1_cortex_mx_ee_cpu.inc **** /******************************************************************************
 136:Generated_Source\PSoC5/ErikaOS_1_cortex_mx_ee_cpu.inc ****  Application dependent data types
 137:Generated_Source\PSoC5/ErikaOS_1_cortex_mx_ee_cpu.inc ****  ******************************************************************************/
 138:Generated_Source\PSoC5/ErikaOS_1_cortex_mx_ee_cpu.inc **** 
 139:Generated_Source\PSoC5/ErikaOS_1_cortex_mx_ee_cpu.inc **** #ifdef	__HAS_TYPES_H__
 140:Generated_Source\PSoC5/ErikaOS_1_cortex_mx_ee_cpu.inc **** #include	"types.h"
 141:Generated_Source\PSoC5/ErikaOS_1_cortex_mx_ee_cpu.inc **** #endif
 142:Generated_Source\PSoC5/ErikaOS_1_cortex_mx_ee_cpu.inc **** 
 143:Generated_Source\PSoC5/ErikaOS_1_cortex_mx_ee_cpu.inc **** /******************************************************************************
 144:Generated_Source\PSoC5/ErikaOS_1_cortex_mx_ee_cpu.inc ****  CPU Peripherals
 145:Generated_Source\PSoC5/ErikaOS_1_cortex_mx_ee_cpu.inc ****  ******************************************************************************/
 146:Generated_Source\PSoC5/ErikaOS_1_cortex_mx_ee_cpu.inc **** 
 147:Generated_Source\PSoC5/ErikaOS_1_cortex_mx_ee_cpu.inc **** #ifdef __CORTEX_MX__
 148:Generated_Source\PSoC5/ErikaOS_1_cortex_mx_ee_cpu.inc **** #include "ErikaOS_1_cortex_mx_ee_nvic.inc"
 149:Generated_Source\PSoC5/ErikaOS_1_cortex_mx_ee_cpu.inc **** #include "ErikaOS_1_cortex_mx_ee_systick.inc"
 150:Generated_Source\PSoC5/ErikaOS_1_cortex_mx_ee_cpu.inc **** #endif
 151:Generated_Source\PSoC5/ErikaOS_1_cortex_mx_ee_cpu.inc **** 
 152:Generated_Source\PSoC5/ErikaOS_1_cortex_mx_ee_cpu.inc **** /******************************************************************************
 153:Generated_Source\PSoC5/ErikaOS_1_cortex_mx_ee_cpu.inc ****  HAL Variables
 154:Generated_Source\PSoC5/ErikaOS_1_cortex_mx_ee_cpu.inc ****  ******************************************************************************/
 155:Generated_Source\PSoC5/ErikaOS_1_cortex_mx_ee_cpu.inc **** 
 156:Generated_Source\PSoC5/ErikaOS_1_cortex_mx_ee_cpu.inc **** #ifdef __MULTI__
 157:Generated_Source\PSoC5/ErikaOS_1_cortex_mx_ee_cpu.inc **** 
 158:Generated_Source\PSoC5/ErikaOS_1_cortex_mx_ee_cpu.inc **** /* Top-of-stack of each private stack */
 159:Generated_Source\PSoC5/ErikaOS_1_cortex_mx_ee_cpu.inc **** extern struct EE_TOS EE_cortex_mx_system_tos[];
 160:Generated_Source\PSoC5/ErikaOS_1_cortex_mx_ee_cpu.inc **** //#define	EE_std_system_tos EE_cortex_mx_system_tos
 161:Generated_Source\PSoC5/ErikaOS_1_cortex_mx_ee_cpu.inc **** 
 162:Generated_Source\PSoC5/ErikaOS_1_cortex_mx_ee_cpu.inc **** /* Index of the current stack */
 163:Generated_Source\PSoC5/ErikaOS_1_cortex_mx_ee_cpu.inc **** extern EE_UREG EE_cortex_mx_active_tos;
 164:Generated_Source\PSoC5/ErikaOS_1_cortex_mx_ee_cpu.inc **** #define	EE_hal_active_tos EE_cortex_mx_active_tos
 165:Generated_Source\PSoC5/ErikaOS_1_cortex_mx_ee_cpu.inc **** 
 166:Generated_Source\PSoC5/ErikaOS_1_cortex_mx_ee_cpu.inc **** /*extern	EE_UREG EE_pic30_thread_tos[];
 167:Generated_Source\PSoC5/ErikaOS_1_cortex_mx_ee_cpu.inc **** #define	EE_std_thread_tos EE_pic30_thread_tos */
 168:Generated_Source\PSoC5/ErikaOS_1_cortex_mx_ee_cpu.inc **** #endif /* __MULTI__ */
 169:Generated_Source\PSoC5/ErikaOS_1_cortex_mx_ee_cpu.inc **** 
 170:Generated_Source\PSoC5/ErikaOS_1_cortex_mx_ee_cpu.inc **** /*********************************************************************
 171:Generated_Source\PSoC5/ErikaOS_1_cortex_mx_ee_cpu.inc ****  Cortex M0 interrupt disabling/enabling
 172:Generated_Source\PSoC5/ErikaOS_1_cortex_mx_ee_cpu.inc ****  *********************************************************************/
 173:Generated_Source\PSoC5/ErikaOS_1_cortex_mx_ee_cpu.inc **** 
 174:Generated_Source\PSoC5/ErikaOS_1_cortex_mx_ee_cpu.inc **** /* Used to check the value returned by EE_cortex_mx_disableIRQ */
 175:Generated_Source\PSoC5/ErikaOS_1_cortex_mx_ee_cpu.inc **** #define EE_cortex_mx_are_IRQs_enabled(ie) ((ie) ^ 1)
 176:Generated_Source\PSoC5/ErikaOS_1_cortex_mx_ee_cpu.inc **** 
 177:Generated_Source\PSoC5/ErikaOS_1_cortex_mx_ee_cpu.inc **** /**
 178:Generated_Source\PSoC5/ErikaOS_1_cortex_mx_ee_cpu.inc ****  * Enable interrupts
 179:Generated_Source\PSoC5/ErikaOS_1_cortex_mx_ee_cpu.inc ****  */
 180:Generated_Source\PSoC5/ErikaOS_1_cortex_mx_ee_cpu.inc **** __INLINE__ void  EE_cortex_mx_enableIRQ(void)
ARM GAS  C:\Users\Asus\AppData\Local\Temp\ccF7rYqi.s 			page 6


 181:Generated_Source\PSoC5/ErikaOS_1_cortex_mx_ee_cpu.inc **** {
 182:Generated_Source\PSoC5/ErikaOS_1_cortex_mx_ee_cpu.inc **** #ifdef __IAR__
 183:Generated_Source\PSoC5/ErikaOS_1_cortex_mx_ee_cpu.inc **** 	__ASM ("cpsie i");
 184:Generated_Source\PSoC5/ErikaOS_1_cortex_mx_ee_cpu.inc **** #else	/* __IAR__ */
 185:Generated_Source\PSoC5/ErikaOS_1_cortex_mx_ee_cpu.inc **** #ifdef __CCS__
 186:Generated_Source\PSoC5/ErikaOS_1_cortex_mx_ee_cpu.inc **** 	__ASM ("    cpsie    i\n");
 187:Generated_Source\PSoC5/ErikaOS_1_cortex_mx_ee_cpu.inc **** #else	/* __CCS__ */
 188:Generated_Source\PSoC5/ErikaOS_1_cortex_mx_ee_cpu.inc **** #ifdef __KEIL__
 189:Generated_Source\PSoC5/ErikaOS_1_cortex_mx_ee_cpu.inc **** 	__enable_irq();
 190:Generated_Source\PSoC5/ErikaOS_1_cortex_mx_ee_cpu.inc **** #else	/* __KEIL__ */
 191:Generated_Source\PSoC5/ErikaOS_1_cortex_mx_ee_cpu.inc **** 	__ASM volatile("cpsie i");
 192:Generated_Source\PSoC5/ErikaOS_1_cortex_mx_ee_cpu.inc **** #endif	/* !__KEIL__ */
 193:Generated_Source\PSoC5/ErikaOS_1_cortex_mx_ee_cpu.inc **** #endif	/* !__CCS__ */
 194:Generated_Source\PSoC5/ErikaOS_1_cortex_mx_ee_cpu.inc **** #endif	/* !__IAR__ */
 195:Generated_Source\PSoC5/ErikaOS_1_cortex_mx_ee_cpu.inc **** }
 196:Generated_Source\PSoC5/ErikaOS_1_cortex_mx_ee_cpu.inc **** 
 197:Generated_Source\PSoC5/ErikaOS_1_cortex_mx_ee_cpu.inc **** /**
 198:Generated_Source\PSoC5/ErikaOS_1_cortex_mx_ee_cpu.inc ****  * Disable interrupts
 199:Generated_Source\PSoC5/ErikaOS_1_cortex_mx_ee_cpu.inc ****  */
 200:Generated_Source\PSoC5/ErikaOS_1_cortex_mx_ee_cpu.inc **** __INLINE__ void  EE_cortex_mx_disableIRQ(void)
 201:Generated_Source\PSoC5/ErikaOS_1_cortex_mx_ee_cpu.inc **** {
 202:Generated_Source\PSoC5/ErikaOS_1_cortex_mx_ee_cpu.inc **** #ifdef __IAR__
 203:Generated_Source\PSoC5/ErikaOS_1_cortex_mx_ee_cpu.inc **** 	__ASM ("cpsid i");
 204:Generated_Source\PSoC5/ErikaOS_1_cortex_mx_ee_cpu.inc **** #else	/* __IAR__ */
 205:Generated_Source\PSoC5/ErikaOS_1_cortex_mx_ee_cpu.inc **** #ifdef __CCS__
 206:Generated_Source\PSoC5/ErikaOS_1_cortex_mx_ee_cpu.inc **** 	__ASM ("    cpsid    i\n");
 207:Generated_Source\PSoC5/ErikaOS_1_cortex_mx_ee_cpu.inc **** #else	/* __CCS__ */
 208:Generated_Source\PSoC5/ErikaOS_1_cortex_mx_ee_cpu.inc **** #ifdef __KEIL__
 209:Generated_Source\PSoC5/ErikaOS_1_cortex_mx_ee_cpu.inc **** 	__disable_irq();
 210:Generated_Source\PSoC5/ErikaOS_1_cortex_mx_ee_cpu.inc **** #else	/* __KEIL__ */
 211:Generated_Source\PSoC5/ErikaOS_1_cortex_mx_ee_cpu.inc **** 	__ASM volatile("cpsid i");
 212:Generated_Source\PSoC5/ErikaOS_1_cortex_mx_ee_cpu.inc **** #endif	/* !__KEIL__ */
 213:Generated_Source\PSoC5/ErikaOS_1_cortex_mx_ee_cpu.inc **** #endif	/* !__CCS__ */
 214:Generated_Source\PSoC5/ErikaOS_1_cortex_mx_ee_cpu.inc **** #endif	/* !__IAR__ */
 215:Generated_Source\PSoC5/ErikaOS_1_cortex_mx_ee_cpu.inc **** }
 216:Generated_Source\PSoC5/ErikaOS_1_cortex_mx_ee_cpu.inc **** 
 217:Generated_Source\PSoC5/ErikaOS_1_cortex_mx_ee_cpu.inc **** /**
 218:Generated_Source\PSoC5/ErikaOS_1_cortex_mx_ee_cpu.inc ****  * Resume interrupts
 219:Generated_Source\PSoC5/ErikaOS_1_cortex_mx_ee_cpu.inc ****  */
 220:Generated_Source\PSoC5/ErikaOS_1_cortex_mx_ee_cpu.inc **** __INLINE__ void  EE_cortex_mx_resumeIRQ(EE_FREG f)
 221:Generated_Source\PSoC5/ErikaOS_1_cortex_mx_ee_cpu.inc **** {
 222:Generated_Source\PSoC5/ErikaOS_1_cortex_mx_ee_cpu.inc **** #ifdef __IAR__
 223:Generated_Source\PSoC5/ErikaOS_1_cortex_mx_ee_cpu.inc **** 	__set_PRIMASK(f);
 224:Generated_Source\PSoC5/ErikaOS_1_cortex_mx_ee_cpu.inc **** #else	/* __IAR__ */
 225:Generated_Source\PSoC5/ErikaOS_1_cortex_mx_ee_cpu.inc **** #ifdef __CCS__
 226:Generated_Source\PSoC5/ErikaOS_1_cortex_mx_ee_cpu.inc **** 	__ASM ("    msr    primask, r0\n");
 227:Generated_Source\PSoC5/ErikaOS_1_cortex_mx_ee_cpu.inc **** #else	/* __CCS__ */
 228:Generated_Source\PSoC5/ErikaOS_1_cortex_mx_ee_cpu.inc **** #ifdef __KEIL__
 229:Generated_Source\PSoC5/ErikaOS_1_cortex_mx_ee_cpu.inc **** 	register EE_FREG PRIMASK __ASM("primask");
 230:Generated_Source\PSoC5/ErikaOS_1_cortex_mx_ee_cpu.inc **** 	PRIMASK = f;
 231:Generated_Source\PSoC5/ErikaOS_1_cortex_mx_ee_cpu.inc **** #else	/* __KEIL__ */
 232:Generated_Source\PSoC5/ErikaOS_1_cortex_mx_ee_cpu.inc **** 	__ASM volatile("msr primask, %0" :: "r" (f));
 233:Generated_Source\PSoC5/ErikaOS_1_cortex_mx_ee_cpu.inc **** #endif	/* !__KEIL__ */
 234:Generated_Source\PSoC5/ErikaOS_1_cortex_mx_ee_cpu.inc **** #endif	/* !__CCS__ */
 235:Generated_Source\PSoC5/ErikaOS_1_cortex_mx_ee_cpu.inc **** #endif	/* !__IAR__ */
 236:Generated_Source\PSoC5/ErikaOS_1_cortex_mx_ee_cpu.inc **** }
 237:Generated_Source\PSoC5/ErikaOS_1_cortex_mx_ee_cpu.inc **** 
ARM GAS  C:\Users\Asus\AppData\Local\Temp\ccF7rYqi.s 			page 7


 238:Generated_Source\PSoC5/ErikaOS_1_cortex_mx_ee_cpu.inc **** /**
 239:Generated_Source\PSoC5/ErikaOS_1_cortex_mx_ee_cpu.inc ****  * Suspend interrupts
 240:Generated_Source\PSoC5/ErikaOS_1_cortex_mx_ee_cpu.inc ****  */
 241:Generated_Source\PSoC5/ErikaOS_1_cortex_mx_ee_cpu.inc **** __INLINE__ EE_FREG  EE_cortex_mx_suspendIRQ(void)
 242:Generated_Source\PSoC5/ErikaOS_1_cortex_mx_ee_cpu.inc **** {
 243:Generated_Source\PSoC5/ErikaOS_1_cortex_mx_ee_cpu.inc **** #ifndef __CCS__
 244:Generated_Source\PSoC5/ErikaOS_1_cortex_mx_ee_cpu.inc **** 	EE_FREG istat;
 245:Generated_Source\PSoC5/ErikaOS_1_cortex_mx_ee_cpu.inc **** #endif
 246:Generated_Source\PSoC5/ErikaOS_1_cortex_mx_ee_cpu.inc **** #ifdef __IAR__
 247:Generated_Source\PSoC5/ErikaOS_1_cortex_mx_ee_cpu.inc **** 	 istat = __get_PRIMASK();
 248:Generated_Source\PSoC5/ErikaOS_1_cortex_mx_ee_cpu.inc **** 	__ASM ("cpsid i");
 249:Generated_Source\PSoC5/ErikaOS_1_cortex_mx_ee_cpu.inc **** #else	/* __IAR__ */
 250:Generated_Source\PSoC5/ErikaOS_1_cortex_mx_ee_cpu.inc **** #ifdef __CCS__
 251:Generated_Source\PSoC5/ErikaOS_1_cortex_mx_ee_cpu.inc **** 	__ASM ("    mrs     r0, primask\n"
 252:Generated_Source\PSoC5/ErikaOS_1_cortex_mx_ee_cpu.inc **** 	       "    cpsid   i\n"
 253:Generated_Source\PSoC5/ErikaOS_1_cortex_mx_ee_cpu.inc **** 	       "    bx      lr\n");
 254:Generated_Source\PSoC5/ErikaOS_1_cortex_mx_ee_cpu.inc **** #else	/* __CCS__ */
 255:Generated_Source\PSoC5/ErikaOS_1_cortex_mx_ee_cpu.inc **** #ifdef __KEIL__
 256:Generated_Source\PSoC5/ErikaOS_1_cortex_mx_ee_cpu.inc **** 	register EE_FREG PRIMASK __ASM("primask");
 257:Generated_Source\PSoC5/ErikaOS_1_cortex_mx_ee_cpu.inc **** 	istat = PRIMASK;
 258:Generated_Source\PSoC5/ErikaOS_1_cortex_mx_ee_cpu.inc **** 	__disable_irq();
 259:Generated_Source\PSoC5/ErikaOS_1_cortex_mx_ee_cpu.inc **** #else	/* __KEIL__ */
 260:Generated_Source\PSoC5/ErikaOS_1_cortex_mx_ee_cpu.inc **** 	__ASM volatile ("mrs %0, primask" : "=r" (istat) );
  38              		.loc 2 260 0
  39              		.syntax unified
  40              	@ 260 "Generated_Source\PSoC5\ErikaOS_1_cortex_mx_ee_cpu.inc" 1
  41 0000 EFF31082 		mrs r2, primask
  42              	@ 0 "" 2
  43              	.LVL1:
 261:Generated_Source\PSoC5/ErikaOS_1_cortex_mx_ee_cpu.inc **** 	__ASM volatile ("cpsid i");
  44              		.loc 2 261 0
  45              	@ 261 "Generated_Source\PSoC5\ErikaOS_1_cortex_mx_ee_cpu.inc" 1
  46 0004 72B6     		cpsid i
  47              	@ 0 "" 2
  48              	.LVL2:
  49              		.thumb
  50              		.syntax unified
  51              	.LBE34:
  52              	.LBE33:
  53              	.LBE32:
  69:Generated_Source\PSoC5/ErikaOS_1_ee_alcancel.c ****   /* Error Value */
  70:Generated_Source\PSoC5/ErikaOS_1_ee_alcancel.c ****   register StatusType ev;
  71:Generated_Source\PSoC5/ErikaOS_1_ee_alcancel.c ****   /* Primitive Lock Procedure */
  72:Generated_Source\PSoC5/ErikaOS_1_ee_alcancel.c ****   EE_OS_DECLARE_AND_ENTER_CRITICAL_SECTION();
  73:Generated_Source\PSoC5/ErikaOS_1_ee_alcancel.c **** 
  74:Generated_Source\PSoC5/ErikaOS_1_ee_alcancel.c **** #if (__OO_configUSE_TRACE_FACILITY == 1)
  75:Generated_Source\PSoC5/ErikaOS_1_ee_alcancel.c ****     traceALARM_CANCEL_ALARM(AlarmID)
  76:Generated_Source\PSoC5/ErikaOS_1_ee_alcancel.c **** #endif 
  77:Generated_Source\PSoC5/ErikaOS_1_ee_alcancel.c **** 
  78:Generated_Source\PSoC5/ErikaOS_1_ee_alcancel.c ****   EE_ORTI_set_service_in(EE_SERVICETRACE_CANCELALARM);
  79:Generated_Source\PSoC5/ErikaOS_1_ee_alcancel.c **** 
  80:Generated_Source\PSoC5/ErikaOS_1_ee_alcancel.c ****   EE_as_monitoring_the_stack();
  81:Generated_Source\PSoC5/ErikaOS_1_ee_alcancel.c **** 
  82:Generated_Source\PSoC5/ErikaOS_1_ee_alcancel.c **** #ifdef EE_SERVICE_PROTECTION__
  83:Generated_Source\PSoC5/ErikaOS_1_ee_alcancel.c ****   /* [OS093]: If interrupts are disabled/suspended by a Task/OsIsr and the
  84:Generated_Source\PSoC5/ErikaOS_1_ee_alcancel.c ****       Task/OsIsr calls any OS service (excluding the interrupt services)
  85:Generated_Source\PSoC5/ErikaOS_1_ee_alcancel.c ****       then the Operating System shall ignore the service AND shall return
ARM GAS  C:\Users\Asus\AppData\Local\Temp\ccF7rYqi.s 			page 8


  86:Generated_Source\PSoC5/ErikaOS_1_ee_alcancel.c ****       E_OS_DISABLEDINT if the service returns a StatusType value. */
  87:Generated_Source\PSoC5/ErikaOS_1_ee_alcancel.c ****   /* [OS088]: If an OS-Application makes a service call from the wrong context
  88:Generated_Source\PSoC5/ErikaOS_1_ee_alcancel.c ****       AND is currently not inside a Category 1 ISR the Operating System module
  89:Generated_Source\PSoC5/ErikaOS_1_ee_alcancel.c ****       shall not perform the requested action (the service call shall have no
  90:Generated_Source\PSoC5/ErikaOS_1_ee_alcancel.c ****       effect), and return E_OS_CALLEVEL (see [12], section 13.1) or the
  91:Generated_Source\PSoC5/ErikaOS_1_ee_alcancel.c ****       "invalid value" of  the service. (BSW11009, BSW11013) */
  92:Generated_Source\PSoC5/ErikaOS_1_ee_alcancel.c ****   /* CancelAlarm is callable by Task and ISR2 */
  93:Generated_Source\PSoC5/ErikaOS_1_ee_alcancel.c ****   if ( EE_as_execution_context > ISR2_Context ) {
  94:Generated_Source\PSoC5/ErikaOS_1_ee_alcancel.c ****     ev = E_OS_CALLEVEL;
  95:Generated_Source\PSoC5/ErikaOS_1_ee_alcancel.c ****   } else if ( EE_oo_check_disableint_error() ) {
  96:Generated_Source\PSoC5/ErikaOS_1_ee_alcancel.c ****     ev = E_OS_DISABLEDINT;
  97:Generated_Source\PSoC5/ErikaOS_1_ee_alcancel.c ****   } else
  98:Generated_Source\PSoC5/ErikaOS_1_ee_alcancel.c **** #endif /* EE_SERVICE_PROTECTION__ */
  99:Generated_Source\PSoC5/ErikaOS_1_ee_alcancel.c **** 
 100:Generated_Source\PSoC5/ErikaOS_1_ee_alcancel.c **** #ifdef EE_AS_RPC__
 101:Generated_Source\PSoC5/ErikaOS_1_ee_alcancel.c ****   if ( EE_AS_ID_REMOTE(AlarmID) )
 102:Generated_Source\PSoC5/ErikaOS_1_ee_alcancel.c ****   {
 103:Generated_Source\PSoC5/ErikaOS_1_ee_alcancel.c ****     EE_os_param unmarked_alarm_id;
 104:Generated_Source\PSoC5/ErikaOS_1_ee_alcancel.c ****     unmarked_alarm_id.value_param = EE_AS_UNMARK_REMOTE_ID(AlarmID);
 105:Generated_Source\PSoC5/ErikaOS_1_ee_alcancel.c ****     /* forward the request to another CPU in synchronous way */
 106:Generated_Source\PSoC5/ErikaOS_1_ee_alcancel.c ****     ev = EE_as_rpc(OSServiceId_CancelAlarm, unmarked_alarm_id,
 107:Generated_Source\PSoC5/ErikaOS_1_ee_alcancel.c ****       EE_OS_INVALID_PARAM, EE_OS_INVALID_PARAM);
 108:Generated_Source\PSoC5/ErikaOS_1_ee_alcancel.c ****   } else {
 109:Generated_Source\PSoC5/ErikaOS_1_ee_alcancel.c **** #endif /* EE_AS_RPC__ */
 110:Generated_Source\PSoC5/ErikaOS_1_ee_alcancel.c **** 
 111:Generated_Source\PSoC5/ErikaOS_1_ee_alcancel.c **** /* If local alarm are not defined cut everything else */
 112:Generated_Source\PSoC5/ErikaOS_1_ee_alcancel.c **** #if (defined(EE_MAX_ALARM)) && (EE_MAX_ALARM > 0U)
 113:Generated_Source\PSoC5/ErikaOS_1_ee_alcancel.c **** 
 114:Generated_Source\PSoC5/ErikaOS_1_ee_alcancel.c **** #if (defined(EE_AS_OSAPPLICATIONS__)) && (defined(EE_SERVICE_PROTECTION__))
 115:Generated_Source\PSoC5/ErikaOS_1_ee_alcancel.c ****     if ( AlarmID >= EE_MAX_ALARM ) {
 116:Generated_Source\PSoC5/ErikaOS_1_ee_alcancel.c ****       ev = E_OS_ID;
 117:Generated_Source\PSoC5/ErikaOS_1_ee_alcancel.c ****     } else if ( EE_ALARM_ACCESS_ERR(AlarmID, EE_as_active_app) ) {
 118:Generated_Source\PSoC5/ErikaOS_1_ee_alcancel.c ****       ev = E_OS_ACCESS;
 119:Generated_Source\PSoC5/ErikaOS_1_ee_alcancel.c ****     } else
 120:Generated_Source\PSoC5/ErikaOS_1_ee_alcancel.c **** #elif defined(__OO_EXTENDED_STATUS__)
 121:Generated_Source\PSoC5/ErikaOS_1_ee_alcancel.c ****     if ( AlarmID >= EE_MAX_ALARM ) {
  54              		.loc 1 121 0
  55 0006 0028     		cmp	r0, #0
  56 0008 3CD1     		bne	.L6
 122:Generated_Source\PSoC5/ErikaOS_1_ee_alcancel.c ****       ev = E_OS_ID;
 123:Generated_Source\PSoC5/ErikaOS_1_ee_alcancel.c ****     } else
 124:Generated_Source\PSoC5/ErikaOS_1_ee_alcancel.c **** #endif /* EE_AS_OSAPPLICATIONS__ || E_SERVICE_PROTECTION__ ||
 125:Generated_Source\PSoC5/ErikaOS_1_ee_alcancel.c **** __OO_EXTENDED_STATUS__ */
 126:Generated_Source\PSoC5/ErikaOS_1_ee_alcancel.c ****     if ( EE_oo_counter_object_RAM[AlarmID].used == EE_FALSE ) {
  57              		.loc 1 126 0
  58 000a 0301     		lsls	r3, r0, #4
  59 000c 2249     		ldr	r1, .L11
  60 000e CB58     		ldr	r3, [r1, r3]
  61 0010 002B     		cmp	r3, #0
  62 0012 39D0     		beq	.L7
  68:Generated_Source\PSoC5/ErikaOS_1_ee_alcancel.c ****   /* Error Value */
  63              		.loc 1 68 0
  64 0014 10B4     		push	{r4}
  65              		.cfi_def_cfa_offset 4
  66              		.cfi_offset 4, -4
  67              	.LVL3:
  68              	.LBB35:
ARM GAS  C:\Users\Asus\AppData\Local\Temp\ccF7rYqi.s 			page 9


  69              	.LBB36:
  70              		.file 3 "Generated_Source\\PSoC5\\ErikaOS_1_ee_oo_internal.inc"
   1:Generated_Source\PSoC5/ErikaOS_1_ee_oo_internal.inc **** /* ###*B*###
   2:Generated_Source\PSoC5/ErikaOS_1_ee_oo_internal.inc ****  * ERIKA Enterprise - a tiny RTOS for small microcontrollers
   3:Generated_Source\PSoC5/ErikaOS_1_ee_oo_internal.inc ****  *
   4:Generated_Source\PSoC5/ErikaOS_1_ee_oo_internal.inc ****  * Copyright (C) 2002-2008  Evidence Srl
   5:Generated_Source\PSoC5/ErikaOS_1_ee_oo_internal.inc ****  *
   6:Generated_Source\PSoC5/ErikaOS_1_ee_oo_internal.inc ****  * This file is part of ERIKA Enterprise.
   7:Generated_Source\PSoC5/ErikaOS_1_ee_oo_internal.inc ****  *
   8:Generated_Source\PSoC5/ErikaOS_1_ee_oo_internal.inc ****  * ERIKA Enterprise is free software; you can redistribute it
   9:Generated_Source\PSoC5/ErikaOS_1_ee_oo_internal.inc ****  * and/or modify it under the terms of the GNU General Public License
  10:Generated_Source\PSoC5/ErikaOS_1_ee_oo_internal.inc ****  * version 2 as published by the Free Software Foundation, 
  11:Generated_Source\PSoC5/ErikaOS_1_ee_oo_internal.inc ****  * (with a special exception described below).
  12:Generated_Source\PSoC5/ErikaOS_1_ee_oo_internal.inc ****  *
  13:Generated_Source\PSoC5/ErikaOS_1_ee_oo_internal.inc ****  * Linking this code statically or dynamically with other modules is
  14:Generated_Source\PSoC5/ErikaOS_1_ee_oo_internal.inc ****  * making a combined work based on this code.  Thus, the terms and
  15:Generated_Source\PSoC5/ErikaOS_1_ee_oo_internal.inc ****  * conditions of the GNU General Public License cover the whole
  16:Generated_Source\PSoC5/ErikaOS_1_ee_oo_internal.inc ****  * combination.
  17:Generated_Source\PSoC5/ErikaOS_1_ee_oo_internal.inc ****  *
  18:Generated_Source\PSoC5/ErikaOS_1_ee_oo_internal.inc ****  * As a special exception, the copyright holders of this library give you
  19:Generated_Source\PSoC5/ErikaOS_1_ee_oo_internal.inc ****  * permission to link this code with independent modules to produce an
  20:Generated_Source\PSoC5/ErikaOS_1_ee_oo_internal.inc ****  * executable, regardless of the license terms of these independent
  21:Generated_Source\PSoC5/ErikaOS_1_ee_oo_internal.inc ****  * modules, and to copy and distribute the resulting executable under
  22:Generated_Source\PSoC5/ErikaOS_1_ee_oo_internal.inc ****  * terms of your choice, provided that you also meet, for each linked
  23:Generated_Source\PSoC5/ErikaOS_1_ee_oo_internal.inc ****  * independent module, the terms and conditions of the license of that
  24:Generated_Source\PSoC5/ErikaOS_1_ee_oo_internal.inc ****  * module.  An independent module is a module which is not derived from
  25:Generated_Source\PSoC5/ErikaOS_1_ee_oo_internal.inc ****  * or based on this library.  If you modify this code, you may extend
  26:Generated_Source\PSoC5/ErikaOS_1_ee_oo_internal.inc ****  * this exception to your version of the code, but you are not
  27:Generated_Source\PSoC5/ErikaOS_1_ee_oo_internal.inc ****  * obligated to do so.  If you do not wish to do so, delete this
  28:Generated_Source\PSoC5/ErikaOS_1_ee_oo_internal.inc ****  * exception statement from your version.
  29:Generated_Source\PSoC5/ErikaOS_1_ee_oo_internal.inc ****  *
  30:Generated_Source\PSoC5/ErikaOS_1_ee_oo_internal.inc ****  * ERIKA Enterprise is distributed in the hope that it will be
  31:Generated_Source\PSoC5/ErikaOS_1_ee_oo_internal.inc ****  * useful, but WITHOUT ANY WARRANTY; without even the implied warranty
  32:Generated_Source\PSoC5/ErikaOS_1_ee_oo_internal.inc ****  * of MERCHANTABILITY or FITNESS FOR A PARTICULAR PURPOSE.  See the
  33:Generated_Source\PSoC5/ErikaOS_1_ee_oo_internal.inc ****  * GNU General Public License version 2 for more details.
  34:Generated_Source\PSoC5/ErikaOS_1_ee_oo_internal.inc ****  *
  35:Generated_Source\PSoC5/ErikaOS_1_ee_oo_internal.inc ****  * You should have received a copy of the GNU General Public License
  36:Generated_Source\PSoC5/ErikaOS_1_ee_oo_internal.inc ****  * version 2 along with ERIKA Enterprise; if not, write to the
  37:Generated_Source\PSoC5/ErikaOS_1_ee_oo_internal.inc ****  * Free Software Foundation, Inc., 51 Franklin Street, Fifth Floor,
  38:Generated_Source\PSoC5/ErikaOS_1_ee_oo_internal.inc ****  * Boston, MA 02110-1301 USA.
  39:Generated_Source\PSoC5/ErikaOS_1_ee_oo_internal.inc ****  * ###*E*### */
  40:Generated_Source\PSoC5/ErikaOS_1_ee_oo_internal.inc **** 
  41:Generated_Source\PSoC5/ErikaOS_1_ee_oo_internal.inc **** /*
  42:Generated_Source\PSoC5/ErikaOS_1_ee_oo_internal.inc ****  * Author: 2002 Paolo Gai
  43:Generated_Source\PSoC5/ErikaOS_1_ee_oo_internal.inc ****  * CVS: $Id: ee_internal.h,v 1.6 2006/12/03 22:07:50 pj Exp $
  44:Generated_Source\PSoC5/ErikaOS_1_ee_oo_internal.inc ****  */
  45:Generated_Source\PSoC5/ErikaOS_1_ee_oo_internal.inc **** 
  46:Generated_Source\PSoC5/ErikaOS_1_ee_oo_internal.inc **** /*
  47:Generated_Source\PSoC5/ErikaOS_1_ee_oo_internal.inc ****  * PSoC Port and API Generation
  48:Generated_Source\PSoC5/ErikaOS_1_ee_oo_internal.inc ****  * Carlos Fernando Meier Martinez
  49:Generated_Source\PSoC5/ErikaOS_1_ee_oo_internal.inc ****  * Hochschule Darmstadt, Germany. 2017.
  50:Generated_Source\PSoC5/ErikaOS_1_ee_oo_internal.inc ****  */
  51:Generated_Source\PSoC5/ErikaOS_1_ee_oo_internal.inc **** 
  52:Generated_Source\PSoC5/ErikaOS_1_ee_oo_internal.inc **** #ifndef PKG_KERNEL_OO_INC_EE_OO_INTERNAL_H
  53:Generated_Source\PSoC5/ErikaOS_1_ee_oo_internal.inc **** #define PKG_KERNEL_OO_INC_EE_OO_INTERNAL_H
  54:Generated_Source\PSoC5/ErikaOS_1_ee_oo_internal.inc **** 
  55:Generated_Source\PSoC5/ErikaOS_1_ee_oo_internal.inc **** #include "ErikaOS_1_ee_oo_common.inc"
ARM GAS  C:\Users\Asus\AppData\Local\Temp\ccF7rYqi.s 			page 10


  56:Generated_Source\PSoC5/ErikaOS_1_ee_oo_internal.inc **** #include "ErikaOS_1_ee_oo_intfunc.inc"
  57:Generated_Source\PSoC5/ErikaOS_1_ee_oo_internal.inc **** #include "ErikaOS_1_ee_oo_irq.inc"
  58:Generated_Source\PSoC5/ErikaOS_1_ee_oo_internal.inc **** #if (__OO_configUSE_TRACE_FACILITY == 1)
  59:Generated_Source\PSoC5/ErikaOS_1_ee_oo_internal.inc **** #include "trcKernelPort.h" 
  60:Generated_Source\PSoC5/ErikaOS_1_ee_oo_internal.inc **** #endif
  61:Generated_Source\PSoC5/ErikaOS_1_ee_oo_internal.inc **** /*******************************************************************************
  62:Generated_Source\PSoC5/ErikaOS_1_ee_oo_internal.inc ****  *                    New Error Handling Internal Utilities
  63:Generated_Source\PSoC5/ErikaOS_1_ee_oo_internal.inc ****  ******************************************************************************/
  64:Generated_Source\PSoC5/ErikaOS_1_ee_oo_internal.inc **** 
  65:Generated_Source\PSoC5/ErikaOS_1_ee_oo_internal.inc **** /* Error Parameters Utilities Macros */
  66:Generated_Source\PSoC5/ErikaOS_1_ee_oo_internal.inc **** #define EE_OS_PARAM(param_name)   EE_os_param param_name
  67:Generated_Source\PSoC5/ErikaOS_1_ee_oo_internal.inc **** #define EE_OS_PARAM_VALUE(param_name, param_value)  \
  68:Generated_Source\PSoC5/ErikaOS_1_ee_oo_internal.inc ****   ((param_name).value_param = (param_value))
  69:Generated_Source\PSoC5/ErikaOS_1_ee_oo_internal.inc **** 
  70:Generated_Source\PSoC5/ErikaOS_1_ee_oo_internal.inc **** #define EE_OS_PARAM_REF(param_name, param_field, param_ref) \
  71:Generated_Source\PSoC5/ErikaOS_1_ee_oo_internal.inc ****   ((param_name).param_field = (param_ref))
  72:Generated_Source\PSoC5/ErikaOS_1_ee_oo_internal.inc **** 
  73:Generated_Source\PSoC5/ErikaOS_1_ee_oo_internal.inc **** #ifdef __OO_HAS_ERRORHOOK__
  74:Generated_Source\PSoC5/ErikaOS_1_ee_oo_internal.inc **** /* Error Parameters Data Structure Utilities Macros from user space */
  75:Generated_Source\PSoC5/ErikaOS_1_ee_oo_internal.inc **** #define EE_OS_ERROR_PARAMETERS()  EE_oo_ErrorHook_parameters error_parameters
  76:Generated_Source\PSoC5/ErikaOS_1_ee_oo_internal.inc **** 
  77:Generated_Source\PSoC5/ErikaOS_1_ee_oo_internal.inc **** #define EE_OS_ERROR_PARAMETERS_INIT(param1_in,param2_in,param3_in)  \
  78:Generated_Source\PSoC5/ErikaOS_1_ee_oo_internal.inc ****   EE_oo_ErrorHook_parameters error_parameters = { param1_in, param2_in, \
  79:Generated_Source\PSoC5/ErikaOS_1_ee_oo_internal.inc ****     param3_in }
  80:Generated_Source\PSoC5/ErikaOS_1_ee_oo_internal.inc **** 
  81:Generated_Source\PSoC5/ErikaOS_1_ee_oo_internal.inc **** #define EE_OS_ERROR_PARAMETERS_PARAM1_VALUE(param1_value) \
  82:Generated_Source\PSoC5/ErikaOS_1_ee_oo_internal.inc ****   (error_parameters.param1.value_param = param1_value)
  83:Generated_Source\PSoC5/ErikaOS_1_ee_oo_internal.inc **** #define EE_OS_ERROR_PARAMETERS_PARAM2_VALUE(param2_value) \
  84:Generated_Source\PSoC5/ErikaOS_1_ee_oo_internal.inc ****   (error_parameters.param2.value_param = param2_value)
  85:Generated_Source\PSoC5/ErikaOS_1_ee_oo_internal.inc **** #define EE_OS_ERROR_PARAMETERS_PARAM3_VALUE(param3_value) \
  86:Generated_Source\PSoC5/ErikaOS_1_ee_oo_internal.inc ****   (error_parameters.param3.value_param = param3_value)
  87:Generated_Source\PSoC5/ErikaOS_1_ee_oo_internal.inc **** 
  88:Generated_Source\PSoC5/ErikaOS_1_ee_oo_internal.inc **** #define EE_OS_ERROR_PARAMETERS_PARAM1_REF(param_field,param_ref)  \
  89:Generated_Source\PSoC5/ErikaOS_1_ee_oo_internal.inc ****   (error_parameters.param1.param_field = (param_ref))
  90:Generated_Source\PSoC5/ErikaOS_1_ee_oo_internal.inc **** #define EE_OS_ERROR_PARAMETERS_PARAM2_REF(param_field,param_ref)  \
  91:Generated_Source\PSoC5/ErikaOS_1_ee_oo_internal.inc ****   (error_parameters.param2.param_field = (param_ref))
  92:Generated_Source\PSoC5/ErikaOS_1_ee_oo_internal.inc **** #define EE_OS_ERROR_PARAMETERS_PARAM3_REF(param_field,param_ref)  \
  93:Generated_Source\PSoC5/ErikaOS_1_ee_oo_internal.inc ****   (error_parameters.param3.param_field = (param_ref))
  94:Generated_Source\PSoC5/ErikaOS_1_ee_oo_internal.inc **** #else /* __OO_HAS_ERRORHOOK__ */
  95:Generated_Source\PSoC5/ErikaOS_1_ee_oo_internal.inc **** #define EE_OS_ERROR_PARAMETERS()                                    ((void)0)
  96:Generated_Source\PSoC5/ErikaOS_1_ee_oo_internal.inc **** 
  97:Generated_Source\PSoC5/ErikaOS_1_ee_oo_internal.inc **** #define EE_OS_ERROR_PARAMETERS_INIT(param1_in,param2_in,param3_in)  ((void)0)
  98:Generated_Source\PSoC5/ErikaOS_1_ee_oo_internal.inc **** 
  99:Generated_Source\PSoC5/ErikaOS_1_ee_oo_internal.inc **** #define EE_OS_ERROR_PARAMETERS_PARAM1_VALUE(param1_value)           ((void)0)
 100:Generated_Source\PSoC5/ErikaOS_1_ee_oo_internal.inc **** #define EE_OS_ERROR_PARAMETERS_PARAM2_VALUE(param2_value)           ((void)0)
 101:Generated_Source\PSoC5/ErikaOS_1_ee_oo_internal.inc **** #define EE_OS_ERROR_PARAMETERS_PARAM3_VALUE(param3_value)           ((void)0)
 102:Generated_Source\PSoC5/ErikaOS_1_ee_oo_internal.inc **** 
 103:Generated_Source\PSoC5/ErikaOS_1_ee_oo_internal.inc **** #define EE_OS_ERROR_PARAMETERS_PARAM1_REF(param_field,param_ref)    ((void)0)
 104:Generated_Source\PSoC5/ErikaOS_1_ee_oo_internal.inc **** #define EE_OS_ERROR_PARAMETERS_PARAM2_REF(param_field,param_ref)    ((void)0)
 105:Generated_Source\PSoC5/ErikaOS_1_ee_oo_internal.inc **** #define EE_OS_ERROR_PARAMETERS_PARAM3_REF(param_field,param_ref)    ((void)0)
 106:Generated_Source\PSoC5/ErikaOS_1_ee_oo_internal.inc **** #endif /* __OO_HAS_ERRORHOOK__ */
 107:Generated_Source\PSoC5/ErikaOS_1_ee_oo_internal.inc **** 
 108:Generated_Source\PSoC5/ErikaOS_1_ee_oo_internal.inc **** /* Error Handling */
 109:Generated_Source\PSoC5/ErikaOS_1_ee_oo_internal.inc **** #ifdef __OO_HAS_ERRORHOOK__
 110:Generated_Source\PSoC5/ErikaOS_1_ee_oo_internal.inc **** #ifndef  __OO_ERRORHOOK_NOMACROS__
 111:Generated_Source\PSoC5/ErikaOS_1_ee_oo_internal.inc **** 
 112:Generated_Source\PSoC5/ErikaOS_1_ee_oo_internal.inc **** __INLINE__ void  EE_os_fill_error_data( OSServiceIdType
ARM GAS  C:\Users\Asus\AppData\Local\Temp\ccF7rYqi.s 			page 11


 113:Generated_Source\PSoC5/ErikaOS_1_ee_oo_internal.inc ****   ServiceID, EE_os_param param1, EE_os_param param2, EE_os_param param3 )
 114:Generated_Source\PSoC5/ErikaOS_1_ee_oo_internal.inc **** {
 115:Generated_Source\PSoC5/ErikaOS_1_ee_oo_internal.inc ****   register EE_oo_ErrorHook_parameters * const
 116:Generated_Source\PSoC5/ErikaOS_1_ee_oo_internal.inc ****     p_errorhook_parameter = EE_oo_get_errorhook_data();
 117:Generated_Source\PSoC5/ErikaOS_1_ee_oo_internal.inc ****   (*EE_oo_get_errorhook_service_id()) = ServiceID;
 118:Generated_Source\PSoC5/ErikaOS_1_ee_oo_internal.inc ****   p_errorhook_parameter->param1 = param1;
 119:Generated_Source\PSoC5/ErikaOS_1_ee_oo_internal.inc ****   p_errorhook_parameter->param2 = param2;
 120:Generated_Source\PSoC5/ErikaOS_1_ee_oo_internal.inc ****   p_errorhook_parameter->param3 = param3;
 121:Generated_Source\PSoC5/ErikaOS_1_ee_oo_internal.inc **** }
 122:Generated_Source\PSoC5/ErikaOS_1_ee_oo_internal.inc **** #else /* !__OO_ERRORHOOK_NOMACROS__ */
 123:Generated_Source\PSoC5/ErikaOS_1_ee_oo_internal.inc **** 
 124:Generated_Source\PSoC5/ErikaOS_1_ee_oo_internal.inc **** #define EE_os_fill_error_data(ServiceID,param1,param2,param3) ((void)0)
 125:Generated_Source\PSoC5/ErikaOS_1_ee_oo_internal.inc **** #endif /* !__OO_ERRORHOOK_NOMACROS__ */
 126:Generated_Source\PSoC5/ErikaOS_1_ee_oo_internal.inc **** 
 127:Generated_Source\PSoC5/ErikaOS_1_ee_oo_internal.inc **** __INLINE__ void  EE_os_notify_error( OSServiceIdType ServiceID,
 128:Generated_Source\PSoC5/ErikaOS_1_ee_oo_internal.inc ****   EE_os_param param1, EE_os_param param2, EE_os_param param3,
 129:Generated_Source\PSoC5/ErikaOS_1_ee_oo_internal.inc ****   StatusType Error )
 130:Generated_Source\PSoC5/ErikaOS_1_ee_oo_internal.inc **** {
 131:Generated_Source\PSoC5/ErikaOS_1_ee_oo_internal.inc ****   EE_ORTI_set_lasterror(Error);
 132:Generated_Source\PSoC5/ErikaOS_1_ee_oo_internal.inc ****   if ( EE_ErrorHook_nested_flag == 0U )
 133:Generated_Source\PSoC5/ErikaOS_1_ee_oo_internal.inc ****   {
 134:Generated_Source\PSoC5/ErikaOS_1_ee_oo_internal.inc ****     EE_os_fill_error_data(ServiceID, param1, param2, param3);
 135:Generated_Source\PSoC5/ErikaOS_1_ee_oo_internal.inc ****     EE_ErrorHook_nested_flag = 1U;
 136:Generated_Source\PSoC5/ErikaOS_1_ee_oo_internal.inc ****     EE_oo_call_ErrorHook(Error);
 137:Generated_Source\PSoC5/ErikaOS_1_ee_oo_internal.inc ****     EE_ErrorHook_nested_flag = 0U;
 138:Generated_Source\PSoC5/ErikaOS_1_ee_oo_internal.inc ****   }
 139:Generated_Source\PSoC5/ErikaOS_1_ee_oo_internal.inc **** }
 140:Generated_Source\PSoC5/ErikaOS_1_ee_oo_internal.inc **** 
 141:Generated_Source\PSoC5/ErikaOS_1_ee_oo_internal.inc **** #ifndef __EE_MEMORY_PROTECTION__
 142:Generated_Source\PSoC5/ErikaOS_1_ee_oo_internal.inc **** __INLINE__ void  EE_os_notify_error_from_us(
 143:Generated_Source\PSoC5/ErikaOS_1_ee_oo_internal.inc ****   OSServiceIdType ServiceID, const EE_oo_ErrorHook_parameters * const
 144:Generated_Source\PSoC5/ErikaOS_1_ee_oo_internal.inc ****     error_parameters_ref, StatusType Error )
 145:Generated_Source\PSoC5/ErikaOS_1_ee_oo_internal.inc **** {
 146:Generated_Source\PSoC5/ErikaOS_1_ee_oo_internal.inc ****   if ( error_parameters_ref != NULL ) {
 147:Generated_Source\PSoC5/ErikaOS_1_ee_oo_internal.inc ****     register EE_FREG const flag = EE_hal_begin_nested_primitive();
 148:Generated_Source\PSoC5/ErikaOS_1_ee_oo_internal.inc ****     EE_os_notify_error(ServiceID, error_parameters_ref->param1,
 149:Generated_Source\PSoC5/ErikaOS_1_ee_oo_internal.inc ****       error_parameters_ref->param2, error_parameters_ref->param3, Error);
 150:Generated_Source\PSoC5/ErikaOS_1_ee_oo_internal.inc ****     EE_hal_end_nested_primitive(flag);
 151:Generated_Source\PSoC5/ErikaOS_1_ee_oo_internal.inc ****   }
 152:Generated_Source\PSoC5/ErikaOS_1_ee_oo_internal.inc **** }
 153:Generated_Source\PSoC5/ErikaOS_1_ee_oo_internal.inc **** #else /* !__EE_MEMORY_PROTECTION__ */
 154:Generated_Source\PSoC5/ErikaOS_1_ee_oo_internal.inc **** /* If MemMap.h support is enabled (i.e. because memory protection): use it */
 155:Generated_Source\PSoC5/ErikaOS_1_ee_oo_internal.inc **** #ifdef EE_SUPPORT_MEMMAP_H
 156:Generated_Source\PSoC5/ErikaOS_1_ee_oo_internal.inc **** /* The following code belong to ERIKA API section ee_api_text */
 157:Generated_Source\PSoC5/ErikaOS_1_ee_oo_internal.inc **** #define API_START_SEC_CODE
 158:Generated_Source\PSoC5/ErikaOS_1_ee_oo_internal.inc **** #include "MemMap.inc"
 159:Generated_Source\PSoC5/ErikaOS_1_ee_oo_internal.inc **** #endif /* EE_SUPPORT_MEMMAP_H */
 160:Generated_Source\PSoC5/ErikaOS_1_ee_oo_internal.inc **** 
 161:Generated_Source\PSoC5/ErikaOS_1_ee_oo_internal.inc **** void EE_os_notify_error_from_us( OSServiceIdType ServiceID,
 162:Generated_Source\PSoC5/ErikaOS_1_ee_oo_internal.inc ****   const EE_oo_ErrorHook_parameters * const error_parameters_ref,
 163:Generated_Source\PSoC5/ErikaOS_1_ee_oo_internal.inc ****   StatusType Error );
 164:Generated_Source\PSoC5/ErikaOS_1_ee_oo_internal.inc **** 
 165:Generated_Source\PSoC5/ErikaOS_1_ee_oo_internal.inc **** #ifdef EE_SUPPORT_MEMMAP_H
 166:Generated_Source\PSoC5/ErikaOS_1_ee_oo_internal.inc **** #define API_STOP_SEC_CODE
 167:Generated_Source\PSoC5/ErikaOS_1_ee_oo_internal.inc **** #include "MemMap.inc"
 168:Generated_Source\PSoC5/ErikaOS_1_ee_oo_internal.inc **** #endif /* EE_SUPPORT_MEMMAP_H */
 169:Generated_Source\PSoC5/ErikaOS_1_ee_oo_internal.inc **** #endif /* !__EE_MEMORY_PROTECTION__ */
ARM GAS  C:\Users\Asus\AppData\Local\Temp\ccF7rYqi.s 			page 12


 170:Generated_Source\PSoC5/ErikaOS_1_ee_oo_internal.inc **** #else /* __OO_HAS_ERRORHOOK__ */
 171:Generated_Source\PSoC5/ErikaOS_1_ee_oo_internal.inc **** 
 172:Generated_Source\PSoC5/ErikaOS_1_ee_oo_internal.inc **** /* Macro used for remapping to prevent compiler warnings on unused parameters */
 173:Generated_Source\PSoC5/ErikaOS_1_ee_oo_internal.inc **** #define EE_os_notify_error(k,j,x,y,z) EE_os_notify_error_impl(z)
 174:Generated_Source\PSoC5/ErikaOS_1_ee_oo_internal.inc **** 
 175:Generated_Source\PSoC5/ErikaOS_1_ee_oo_internal.inc **** __INLINE__ void  EE_os_notify_error_impl(StatusType Error)
 176:Generated_Source\PSoC5/ErikaOS_1_ee_oo_internal.inc **** {
 177:Generated_Source\PSoC5/ErikaOS_1_ee_oo_internal.inc ****   EE_ORTI_set_lasterror(Error);
 178:Generated_Source\PSoC5/ErikaOS_1_ee_oo_internal.inc **** }
 179:Generated_Source\PSoC5/ErikaOS_1_ee_oo_internal.inc **** 
 180:Generated_Source\PSoC5/ErikaOS_1_ee_oo_internal.inc **** /* Macro used for remapping to prevent compiler warnings on unused parameters */
 181:Generated_Source\PSoC5/ErikaOS_1_ee_oo_internal.inc **** #define EE_os_notify_error_from_us(x,y,z) EE_os_notify_error_from_us_impl(z)
 182:Generated_Source\PSoC5/ErikaOS_1_ee_oo_internal.inc **** 
 183:Generated_Source\PSoC5/ErikaOS_1_ee_oo_internal.inc **** __INLINE__ void  EE_os_notify_error_from_us_impl(
 184:Generated_Source\PSoC5/ErikaOS_1_ee_oo_internal.inc ****   StatusType Error )
 185:Generated_Source\PSoC5/ErikaOS_1_ee_oo_internal.inc **** {
 186:Generated_Source\PSoC5/ErikaOS_1_ee_oo_internal.inc ****   EE_ORTI_set_lasterror(Error);
 187:Generated_Source\PSoC5/ErikaOS_1_ee_oo_internal.inc **** }
 188:Generated_Source\PSoC5/ErikaOS_1_ee_oo_internal.inc **** #endif /* __OO_HAS_ERRORHOOK__ */
 189:Generated_Source\PSoC5/ErikaOS_1_ee_oo_internal.inc **** 
 190:Generated_Source\PSoC5/ErikaOS_1_ee_oo_internal.inc **** /*******************************************************************************
 191:Generated_Source\PSoC5/ErikaOS_1_ee_oo_internal.inc ****  *                  Kernel Critical Section Utility Macros
 192:Generated_Source\PSoC5/ErikaOS_1_ee_oo_internal.inc ****  ******************************************************************************/
 193:Generated_Source\PSoC5/ErikaOS_1_ee_oo_internal.inc **** #ifndef __EE_MEMORY_PROTECTION__
 194:Generated_Source\PSoC5/ErikaOS_1_ee_oo_internal.inc **** 
 195:Generated_Source\PSoC5/ErikaOS_1_ee_oo_internal.inc **** #define EE_OS_DECLARE_CRITICAL_SECTION()  register EE_FREG flag
 196:Generated_Source\PSoC5/ErikaOS_1_ee_oo_internal.inc **** 
 197:Generated_Source\PSoC5/ErikaOS_1_ee_oo_internal.inc **** #define EE_OS_ENTER_CRITICAL_SECTION()          \
 198:Generated_Source\PSoC5/ErikaOS_1_ee_oo_internal.inc ****   do {                                          \
 199:Generated_Source\PSoC5/ErikaOS_1_ee_oo_internal.inc ****     flag = EE_hal_begin_nested_primitive();     \
 200:Generated_Source\PSoC5/ErikaOS_1_ee_oo_internal.inc ****     EE_as_tp_active_pause_and_update_budgets(); \
 201:Generated_Source\PSoC5/ErikaOS_1_ee_oo_internal.inc ****   } while ( 0 )
 202:Generated_Source\PSoC5/ErikaOS_1_ee_oo_internal.inc **** 
 203:Generated_Source\PSoC5/ErikaOS_1_ee_oo_internal.inc **** #define EE_OS_DECLARE_AND_ENTER_CRITICAL_SECTION()  \
 204:Generated_Source\PSoC5/ErikaOS_1_ee_oo_internal.inc ****   EE_OS_DECLARE_CRITICAL_SECTION();                 \
 205:Generated_Source\PSoC5/ErikaOS_1_ee_oo_internal.inc ****   EE_OS_ENTER_CRITICAL_SECTION()
 206:Generated_Source\PSoC5/ErikaOS_1_ee_oo_internal.inc **** 
 207:Generated_Source\PSoC5/ErikaOS_1_ee_oo_internal.inc **** #define EE_OS_EXIT_CRITICAL_SECTION()             \
 208:Generated_Source\PSoC5/ErikaOS_1_ee_oo_internal.inc ****   do {                                            \
 209:Generated_Source\PSoC5/ErikaOS_1_ee_oo_internal.inc ****     EE_as_tp_active_update_budgets_and_restart(); \
 210:Generated_Source\PSoC5/ErikaOS_1_ee_oo_internal.inc ****     EE_hal_end_nested_primitive(flag);            \
 211:Generated_Source\PSoC5/ErikaOS_1_ee_oo_internal.inc ****   } while ( 0 )
 212:Generated_Source\PSoC5/ErikaOS_1_ee_oo_internal.inc **** 
 213:Generated_Source\PSoC5/ErikaOS_1_ee_oo_internal.inc **** #define EE_OS_FOREVER_CRITICAL_SECTION()          \
 214:Generated_Source\PSoC5/ErikaOS_1_ee_oo_internal.inc ****   do {                                            \
 215:Generated_Source\PSoC5/ErikaOS_1_ee_oo_internal.inc ****     EE_hal_disableIRQ();                          \
 216:Generated_Source\PSoC5/ErikaOS_1_ee_oo_internal.inc ****     EE_as_tp_active_pause_and_update_budgets();   \
 217:Generated_Source\PSoC5/ErikaOS_1_ee_oo_internal.inc ****   } while ( 0 )
 218:Generated_Source\PSoC5/ErikaOS_1_ee_oo_internal.inc **** 
 219:Generated_Source\PSoC5/ErikaOS_1_ee_oo_internal.inc **** #else /* !__EE_MEMORY_PROTECTION__ */
 220:Generated_Source\PSoC5/ErikaOS_1_ee_oo_internal.inc **** /* TP in any case have to be handled in Service Implementation. Syscall
 221:Generated_Source\PSoC5/ErikaOS_1_ee_oo_internal.inc ****    mechanism can be implement in C language and, in that case, a function call
 222:Generated_Source\PSoC5/ErikaOS_1_ee_oo_internal.inc ****    cannot be done in syscall handler. */
 223:Generated_Source\PSoC5/ErikaOS_1_ee_oo_internal.inc **** #define EE_OS_DECLARE_CRITICAL_SECTION()            ((void)0)
 224:Generated_Source\PSoC5/ErikaOS_1_ee_oo_internal.inc **** #define EE_OS_ENTER_CRITICAL_SECTION()              \
 225:Generated_Source\PSoC5/ErikaOS_1_ee_oo_internal.inc ****   EE_as_tp_active_pause_and_update_budgets()
 226:Generated_Source\PSoC5/ErikaOS_1_ee_oo_internal.inc **** #define EE_OS_DECLARE_AND_ENTER_CRITICAL_SECTION()  \
ARM GAS  C:\Users\Asus\AppData\Local\Temp\ccF7rYqi.s 			page 13


 227:Generated_Source\PSoC5/ErikaOS_1_ee_oo_internal.inc ****   EE_as_tp_active_pause_and_update_budgets()
 228:Generated_Source\PSoC5/ErikaOS_1_ee_oo_internal.inc **** #define EE_OS_EXIT_CRITICAL_SECTION()               \
 229:Generated_Source\PSoC5/ErikaOS_1_ee_oo_internal.inc ****   EE_as_tp_active_update_budgets_and_restart()
 230:Generated_Source\PSoC5/ErikaOS_1_ee_oo_internal.inc **** #define EE_OS_FOREVER_CRITICAL_SECTION()			\
 231:Generated_Source\PSoC5/ErikaOS_1_ee_oo_internal.inc ****   EE_as_tp_active_pause_and_update_budgets()
 232:Generated_Source\PSoC5/ErikaOS_1_ee_oo_internal.inc **** #endif /* !__EE_MEMORY_PROTECTION__ */
 233:Generated_Source\PSoC5/ErikaOS_1_ee_oo_internal.inc **** 
 234:Generated_Source\PSoC5/ErikaOS_1_ee_oo_internal.inc **** /* return the first stacked task (the running task) without extracting it 
 235:Generated_Source\PSoC5/ErikaOS_1_ee_oo_internal.inc ****    we suppose that this function can be called ALSO at interrupt ENABLED!!!
 236:Generated_Source\PSoC5/ErikaOS_1_ee_oo_internal.inc ****    (see WaitEvent.c) */
 237:Generated_Source\PSoC5/ErikaOS_1_ee_oo_internal.inc **** #ifndef __PRIVATE_STK_QUERYFIRST__
 238:Generated_Source\PSoC5/ErikaOS_1_ee_oo_internal.inc **** __INLINE__ EE_TID  EE_stk_queryfirst(void)
 239:Generated_Source\PSoC5/ErikaOS_1_ee_oo_internal.inc **** {
 240:Generated_Source\PSoC5/ErikaOS_1_ee_oo_internal.inc ****     return EE_stkfirst;  
 241:Generated_Source\PSoC5/ErikaOS_1_ee_oo_internal.inc **** }
 242:Generated_Source\PSoC5/ErikaOS_1_ee_oo_internal.inc **** #endif /* __PRIVATE_STK_QUERYFIRST__ */
 243:Generated_Source\PSoC5/ErikaOS_1_ee_oo_internal.inc **** 
 244:Generated_Source\PSoC5/ErikaOS_1_ee_oo_internal.inc **** /* This function notifies a tick to a hardware counter.
 245:Generated_Source\PSoC5/ErikaOS_1_ee_oo_internal.inc ****    That is, the counter is
 246:Generated_Source\PSoC5/ErikaOS_1_ee_oo_internal.inc ****    incremented by 1.  It must be called into an ISR2 or into a
 247:Generated_Source\PSoC5/ErikaOS_1_ee_oo_internal.inc ****    task notify that the event linked to the counter occurred.
 248:Generated_Source\PSoC5/ErikaOS_1_ee_oo_internal.inc **** 
 249:Generated_Source\PSoC5/ErikaOS_1_ee_oo_internal.inc ****    The function will also implement the notification of expired alarms
 250:Generated_Source\PSoC5/ErikaOS_1_ee_oo_internal.inc ****    (calling an alarm callback, setting an event, or activating a
 251:Generated_Source\PSoC5/ErikaOS_1_ee_oo_internal.inc ****    task).
 252:Generated_Source\PSoC5/ErikaOS_1_ee_oo_internal.inc **** 
 253:Generated_Source\PSoC5/ErikaOS_1_ee_oo_internal.inc ****    The function can be considered atomic, and NO RESCHEDULING will
 254:Generated_Source\PSoC5/ErikaOS_1_ee_oo_internal.inc ****    take place after the execution of this function. To implement the
 255:Generated_Source\PSoC5/ErikaOS_1_ee_oo_internal.inc ****    rescheduling at task level, you can use the Schedule() or the
 256:Generated_Source\PSoC5/ErikaOS_1_ee_oo_internal.inc ****    ForceSchedule() functions just after this notification.
 257:Generated_Source\PSoC5/ErikaOS_1_ee_oo_internal.inc **** 
 258:Generated_Source\PSoC5/ErikaOS_1_ee_oo_internal.inc ****    see also internal.h
 259:Generated_Source\PSoC5/ErikaOS_1_ee_oo_internal.inc **** */
 260:Generated_Source\PSoC5/ErikaOS_1_ee_oo_internal.inc **** #if (!defined(__OO_NO_ALARMS__)) || (defined(EE_AS_SCHEDULETABLES__))
 261:Generated_Source\PSoC5/ErikaOS_1_ee_oo_internal.inc **** 
 262:Generated_Source\PSoC5/ErikaOS_1_ee_oo_internal.inc **** StatusType EE_oo_IncrementCounterHardware(CounterType CounterID);
 263:Generated_Source\PSoC5/ErikaOS_1_ee_oo_internal.inc **** void       EE_oo_IncrementCounterImplementation(CounterType CounterID);
 264:Generated_Source\PSoC5/ErikaOS_1_ee_oo_internal.inc **** 
 265:Generated_Source\PSoC5/ErikaOS_1_ee_oo_internal.inc **** /* kernel internal API */
 266:Generated_Source\PSoC5/ErikaOS_1_ee_oo_internal.inc **** #define IncrementCounterHardware EE_oo_IncrementCounterHardware
 267:Generated_Source\PSoC5/ErikaOS_1_ee_oo_internal.inc **** 
 268:Generated_Source\PSoC5/ErikaOS_1_ee_oo_internal.inc **** /* Helper function (0 as increment means next tick)*/
 269:Generated_Source\PSoC5/ErikaOS_1_ee_oo_internal.inc **** void EE_oo_counter_object_insert( CounterObjectType ObjectID, TickType
 270:Generated_Source\PSoC5/ErikaOS_1_ee_oo_internal.inc ****   increment );
 271:Generated_Source\PSoC5/ErikaOS_1_ee_oo_internal.inc **** 
 272:Generated_Source\PSoC5/ErikaOS_1_ee_oo_internal.inc **** #if defined (EE_COUNTER_OBJECTS_ROM_SIZE)
 273:Generated_Source\PSoC5/ErikaOS_1_ee_oo_internal.inc **** #if (EE_COUNTER_OBJECTS_ROM_SIZE > 0)
 274:Generated_Source\PSoC5/ErikaOS_1_ee_oo_internal.inc **** __INLINE__ void 
 275:Generated_Source\PSoC5/ErikaOS_1_ee_oo_internal.inc ****   EE_oo_handle_abs_counter_object_insertion( CounterObjectType ObjectID,
 276:Generated_Source\PSoC5/ErikaOS_1_ee_oo_internal.inc ****     TickType absstart, TickType abscycle ) 
 277:Generated_Source\PSoC5/ErikaOS_1_ee_oo_internal.inc **** {
 278:Generated_Source\PSoC5/ErikaOS_1_ee_oo_internal.inc ****   /* These are used to evaluate alarm time handling wrap around */
 279:Generated_Source\PSoC5/ErikaOS_1_ee_oo_internal.inc ****   register TickType           alarm_time;
 280:Generated_Source\PSoC5/ErikaOS_1_ee_oo_internal.inc ****   register TickType           start_rel;
 281:Generated_Source\PSoC5/ErikaOS_1_ee_oo_internal.inc ****   register CounterType const  cnt = EE_oo_counter_object_ROM[ObjectID].c;
 282:Generated_Source\PSoC5/ErikaOS_1_ee_oo_internal.inc **** 
 283:Generated_Source\PSoC5/ErikaOS_1_ee_oo_internal.inc ****   /* first, use the alarm and set the cycle */
ARM GAS  C:\Users\Asus\AppData\Local\Temp\ccF7rYqi.s 			page 14


 284:Generated_Source\PSoC5/ErikaOS_1_ee_oo_internal.inc ****   EE_oo_counter_object_RAM[ObjectID].used = EE_TRUE;
 285:Generated_Source\PSoC5/ErikaOS_1_ee_oo_internal.inc ****   EE_oo_counter_object_RAM[ObjectID].cntcycle = abscycle;
 286:Generated_Source\PSoC5/ErikaOS_1_ee_oo_internal.inc **** 
 287:Generated_Source\PSoC5/ErikaOS_1_ee_oo_internal.inc ****   /* Handling wrap around for alarm time */
 288:Generated_Source\PSoC5/ErikaOS_1_ee_oo_internal.inc ****   start_rel = absstart - EE_counter_RAM[cnt].value;
 289:Generated_Source\PSoC5/ErikaOS_1_ee_oo_internal.inc **** 
 290:Generated_Source\PSoC5/ErikaOS_1_ee_oo_internal.inc ****   /*  When will be here start value will be already checked against counter
 291:Generated_Source\PSoC5/ErikaOS_1_ee_oo_internal.inc ****       max allowed value */
 292:Generated_Source\PSoC5/ErikaOS_1_ee_oo_internal.inc ****   if ( start_rel == 0U ) {
 293:Generated_Source\PSoC5/ErikaOS_1_ee_oo_internal.inc ****     /* start_rel == 0U -> the alarm should start now or next time that counter
 294:Generated_Source\PSoC5/ErikaOS_1_ee_oo_internal.inc ****        has this value. Has been chosen the second option */
 295:Generated_Source\PSoC5/ErikaOS_1_ee_oo_internal.inc ****     alarm_time = EE_counter_ROM[cnt].maxallowedvalue;
 296:Generated_Source\PSoC5/ErikaOS_1_ee_oo_internal.inc ****   } else if ( start_rel < EE_TYPETICK_HALF_VALUE ) {
 297:Generated_Source\PSoC5/ErikaOS_1_ee_oo_internal.inc ****     /* Normal behavior */
 298:Generated_Source\PSoC5/ErikaOS_1_ee_oo_internal.inc ****     alarm_time = start_rel - 1U;
 299:Generated_Source\PSoC5/ErikaOS_1_ee_oo_internal.inc ****   } else {
 300:Generated_Source\PSoC5/ErikaOS_1_ee_oo_internal.inc ****     /* start_rel is "negative" in this case (unsigned wrap around do the
 301:Generated_Source\PSoC5/ErikaOS_1_ee_oo_internal.inc ****        work) */
 302:Generated_Source\PSoC5/ErikaOS_1_ee_oo_internal.inc ****     alarm_time = EE_counter_ROM[cnt].maxallowedvalue + start_rel;
 303:Generated_Source\PSoC5/ErikaOS_1_ee_oo_internal.inc ****   }
 304:Generated_Source\PSoC5/ErikaOS_1_ee_oo_internal.inc **** 
 305:Generated_Source\PSoC5/ErikaOS_1_ee_oo_internal.inc ****   /* Set alarm with a relative amount of time (alarm_time already is a "0 as
 306:Generated_Source\PSoC5/ErikaOS_1_ee_oo_internal.inc ****      next tick" value)*/
 307:Generated_Source\PSoC5/ErikaOS_1_ee_oo_internal.inc ****   EE_oo_counter_object_insert(ObjectID, alarm_time);
 308:Generated_Source\PSoC5/ErikaOS_1_ee_oo_internal.inc **** }
 309:Generated_Source\PSoC5/ErikaOS_1_ee_oo_internal.inc **** 
 310:Generated_Source\PSoC5/ErikaOS_1_ee_oo_internal.inc **** __INLINE__ void 
 311:Generated_Source\PSoC5/ErikaOS_1_ee_oo_internal.inc ****   EE_oo_handle_rel_counter_object_insertion( CounterObjectType ObjectID,
 312:Generated_Source\PSoC5/ErikaOS_1_ee_oo_internal.inc ****     TickType increment, TickType relcycle )
 313:Generated_Source\PSoC5/ErikaOS_1_ee_oo_internal.inc **** {
 314:Generated_Source\PSoC5/ErikaOS_1_ee_oo_internal.inc **** 
 315:Generated_Source\PSoC5/ErikaOS_1_ee_oo_internal.inc ****   /* first, use the alarm and set the cycle */
 316:Generated_Source\PSoC5/ErikaOS_1_ee_oo_internal.inc ****   EE_oo_counter_object_RAM[ObjectID].used = EE_TRUE;
 317:Generated_Source\PSoC5/ErikaOS_1_ee_oo_internal.inc ****   EE_oo_counter_object_RAM[ObjectID].cntcycle = relcycle;
 318:Generated_Source\PSoC5/ErikaOS_1_ee_oo_internal.inc **** 
 319:Generated_Source\PSoC5/ErikaOS_1_ee_oo_internal.inc ****   /* then, insert the task into the delta queue with an increment equal
 320:Generated_Source\PSoC5/ErikaOS_1_ee_oo_internal.inc ****      (increment - 1U) increment equal to 0 means next tick */
 321:Generated_Source\PSoC5/ErikaOS_1_ee_oo_internal.inc ****   EE_oo_counter_object_insert(ObjectID, (increment - 1U));
 322:Generated_Source\PSoC5/ErikaOS_1_ee_oo_internal.inc **** }
 323:Generated_Source\PSoC5/ErikaOS_1_ee_oo_internal.inc **** 
 324:Generated_Source\PSoC5/ErikaOS_1_ee_oo_internal.inc **** /* cancellation */
 325:Generated_Source\PSoC5/ErikaOS_1_ee_oo_internal.inc **** __INLINE__ void  EE_oo_handle_counter_object_cancellation(
 326:Generated_Source\PSoC5/ErikaOS_1_ee_oo_internal.inc ****   CounterObjectType ObjectID )
 327:Generated_Source\PSoC5/ErikaOS_1_ee_oo_internal.inc **** {
 328:Generated_Source\PSoC5/ErikaOS_1_ee_oo_internal.inc ****   register CounterObjectType current, previous;
 329:Generated_Source\PSoC5/ErikaOS_1_ee_oo_internal.inc ****   register CounterType       ct      = EE_oo_counter_object_ROM[ObjectID].c;
  71              		.loc 3 329 0
  72 0016 00EB4001 		add	r1, r0, r0, lsl #1
  73 001a 8B00     		lsls	r3, r1, #2
  74 001c 1F49     		ldr	r1, .L11+4
  75 001e CC58     		ldr	r4, [r1, r3]
  76              	.LVL4:
 330:Generated_Source\PSoC5/ErikaOS_1_ee_oo_internal.inc **** 
 331:Generated_Source\PSoC5/ErikaOS_1_ee_oo_internal.inc ****   /* to compute the relative value in ticks, we have to follow the counter
 332:Generated_Source\PSoC5/ErikaOS_1_ee_oo_internal.inc ****      delay chain */
 333:Generated_Source\PSoC5/ErikaOS_1_ee_oo_internal.inc ****   current = EE_counter_RAM[ct].first;
  77              		.loc 3 333 0
ARM GAS  C:\Users\Asus\AppData\Local\Temp\ccF7rYqi.s 			page 15


  78 0020 1F4B     		ldr	r3, .L11+8
  79 0022 03EBC403 		add	r3, r3, r4, lsl #3
  80 0026 5968     		ldr	r1, [r3, #4]
  81              	.LVL5:
 334:Generated_Source\PSoC5/ErikaOS_1_ee_oo_internal.inc **** 
 335:Generated_Source\PSoC5/ErikaOS_1_ee_oo_internal.inc ****   if ( current == ObjectID ) {
  82              		.loc 3 335 0
  83 0028 8842     		cmp	r0, r1
  84 002a 09D1     		bne	.L3
 336:Generated_Source\PSoC5/ErikaOS_1_ee_oo_internal.inc ****     /* the alarm is the first one in the delta queue */
 337:Generated_Source\PSoC5/ErikaOS_1_ee_oo_internal.inc ****     EE_counter_RAM[ct].first = EE_oo_counter_object_RAM[ObjectID].next;
  85              		.loc 3 337 0
  86 002c 1A4B     		ldr	r3, .L11
  87 002e 03EB0013 		add	r3, r3, r0, lsl #4
  88 0032 D968     		ldr	r1, [r3, #12]
  89              	.LVL6:
  90 0034 1A4B     		ldr	r3, .L11+8
  91              	.LVL7:
  92 0036 03EBC404 		add	r4, r3, r4, lsl #3
  93              	.LVL8:
  94 003a 6160     		str	r1, [r4, #4]
  95              	.LVL9:
  96 003c 0DE0     		b	.L4
  97              	.LVL10:
  98              	.L8:
 338:Generated_Source\PSoC5/ErikaOS_1_ee_oo_internal.inc ****   } else {
 339:Generated_Source\PSoC5/ErikaOS_1_ee_oo_internal.inc ****     /* the alarm is not the first one in the delta queue */
 340:Generated_Source\PSoC5/ErikaOS_1_ee_oo_internal.inc ****     /* Find it */
 341:Generated_Source\PSoC5/ErikaOS_1_ee_oo_internal.inc ****     do {
 342:Generated_Source\PSoC5/ErikaOS_1_ee_oo_internal.inc ****       previous = current;
 343:Generated_Source\PSoC5/ErikaOS_1_ee_oo_internal.inc ****       current = EE_oo_counter_object_RAM[current].next;
  99              		.loc 3 343 0
 100 003e 1946     		mov	r1, r3
 101              	.LVL11:
 102              	.L3:
 103 0040 154B     		ldr	r3, .L11
 104 0042 03EB0113 		add	r3, r3, r1, lsl #4
 105 0046 DB68     		ldr	r3, [r3, #12]
 106              	.LVL12:
 344:Generated_Source\PSoC5/ErikaOS_1_ee_oo_internal.inc ****     } while ( current != ObjectID );
 107              		.loc 3 344 0
 108 0048 9842     		cmp	r0, r3
 109 004a F8D1     		bne	.L8
 345:Generated_Source\PSoC5/ErikaOS_1_ee_oo_internal.inc ****     /* remove it from the queue */
 346:Generated_Source\PSoC5/ErikaOS_1_ee_oo_internal.inc ****     EE_oo_counter_object_RAM[previous].next =
 347:Generated_Source\PSoC5/ErikaOS_1_ee_oo_internal.inc ****       EE_oo_counter_object_RAM[ObjectID].next;
 110              		.loc 3 347 0
 111 004c 124B     		ldr	r3, .L11
 112              	.LVL13:
 113 004e 03EB0014 		add	r4, r3, r0, lsl #4
 114              	.LVL14:
 115 0052 E468     		ldr	r4, [r4, #12]
 346:Generated_Source\PSoC5/ErikaOS_1_ee_oo_internal.inc ****       EE_oo_counter_object_RAM[ObjectID].next;
 116              		.loc 3 346 0
 117 0054 03EB0111 		add	r1, r3, r1, lsl #4
 118              	.LVL15:
 119 0058 CC60     		str	r4, [r1, #12]
ARM GAS  C:\Users\Asus\AppData\Local\Temp\ccF7rYqi.s 			page 16


 120              	.LVL16:
 121              	.L4:
 348:Generated_Source\PSoC5/ErikaOS_1_ee_oo_internal.inc ****   }
 349:Generated_Source\PSoC5/ErikaOS_1_ee_oo_internal.inc ****   /* Adjust delta value */
 350:Generated_Source\PSoC5/ErikaOS_1_ee_oo_internal.inc ****   if ( EE_oo_counter_object_RAM[ObjectID].next != INVALID_COUNTER_OBJECT ) {
 122              		.loc 3 350 0
 123 005a 0F4B     		ldr	r3, .L11
 124 005c 03EB0013 		add	r3, r3, r0, lsl #4
 125 0060 DC68     		ldr	r4, [r3, #12]
 126 0062 B4F1FF3F 		cmp	r4, #-1
 127 0066 08D0     		beq	.L5
 351:Generated_Source\PSoC5/ErikaOS_1_ee_oo_internal.inc ****     EE_oo_counter_object_RAM[EE_oo_counter_object_RAM[ObjectID].next].delta +=
 352:Generated_Source\PSoC5/ErikaOS_1_ee_oo_internal.inc ****       EE_oo_counter_object_RAM[ObjectID].delta;
 128              		.loc 3 352 0
 129 0068 0B4B     		ldr	r3, .L11
 130 006a 03EB0011 		add	r1, r3, r0, lsl #4
 131 006e 8968     		ldr	r1, [r1, #8]
 351:Generated_Source\PSoC5/ErikaOS_1_ee_oo_internal.inc ****     EE_oo_counter_object_RAM[EE_oo_counter_object_RAM[ObjectID].next].delta +=
 132              		.loc 3 351 0
 133 0070 03EB0413 		add	r3, r3, r4, lsl #4
 134 0074 9C68     		ldr	r4, [r3, #8]
 135 0076 2144     		add	r1, r1, r4
 136 0078 9960     		str	r1, [r3, #8]
 137              	.L5:
 353:Generated_Source\PSoC5/ErikaOS_1_ee_oo_internal.inc ****   }
 354:Generated_Source\PSoC5/ErikaOS_1_ee_oo_internal.inc **** 
 355:Generated_Source\PSoC5/ErikaOS_1_ee_oo_internal.inc ****   EE_oo_counter_object_RAM[ObjectID].used = EE_FALSE;
 138              		.loc 3 355 0
 139 007a 0301     		lsls	r3, r0, #4
 140 007c 0020     		movs	r0, #0
 141              	.LVL17:
 142 007e 0649     		ldr	r1, .L11
 143 0080 C850     		str	r0, [r1, r3]
 144 0082 05E0     		b	.L2
 145              	.LVL18:
 146              	.L6:
 147              		.cfi_def_cfa_offset 0
 148              		.cfi_restore 4
 149              	.LBE36:
 150              	.LBE35:
 122:Generated_Source\PSoC5/ErikaOS_1_ee_alcancel.c ****     } else
 151              		.loc 1 122 0
 152 0084 0320     		movs	r0, #3
 153              	.LVL19:
 154 0086 00E0     		b	.L10
 155              	.LVL20:
 156              	.L7:
 127:Generated_Source\PSoC5/ErikaOS_1_ee_alcancel.c ****       ev = E_OS_NOFUNC;
 157              		.loc 1 127 0
 158 0088 0520     		movs	r0, #5
 159              	.LVL21:
 160              	.L10:
 161              	.LBB37:
 162              	.LBB38:
 163              	.LBB39:
 232:Generated_Source\PSoC5/ErikaOS_1_cortex_mx_ee_cpu.inc **** #endif	/* !__KEIL__ */
 164              		.loc 2 232 0
ARM GAS  C:\Users\Asus\AppData\Local\Temp\ccF7rYqi.s 			page 17


 165              		.syntax unified
 166              	@ 232 "Generated_Source\PSoC5\ErikaOS_1_cortex_mx_ee_cpu.inc" 1
 167 008a 82F31088 		msr primask, r2
 168              	@ 0 "" 2
 169              	.LVL22:
 170              		.thumb
 171              		.syntax unified
 172              	.LBE39:
 173              	.LBE38:
 174              	.LBE37:
 128:Generated_Source\PSoC5/ErikaOS_1_ee_alcancel.c ****     } else {
 129:Generated_Source\PSoC5/ErikaOS_1_ee_alcancel.c ****       /* Actually cancel the alarm */
 130:Generated_Source\PSoC5/ErikaOS_1_ee_alcancel.c ****       EE_oo_handle_counter_object_cancellation( AlarmID );
 131:Generated_Source\PSoC5/ErikaOS_1_ee_alcancel.c ****       ev = E_OK;
 132:Generated_Source\PSoC5/ErikaOS_1_ee_alcancel.c ****     }
 133:Generated_Source\PSoC5/ErikaOS_1_ee_alcancel.c **** #else  /* EE_MAX_ALARM > 0U */
 134:Generated_Source\PSoC5/ErikaOS_1_ee_alcancel.c ****     {
 135:Generated_Source\PSoC5/ErikaOS_1_ee_alcancel.c ****       ev = E_OS_ID;
 136:Generated_Source\PSoC5/ErikaOS_1_ee_alcancel.c ****     }
 137:Generated_Source\PSoC5/ErikaOS_1_ee_alcancel.c **** #endif /* EE_MAX_ALARM > 0U */
 138:Generated_Source\PSoC5/ErikaOS_1_ee_alcancel.c **** 
 139:Generated_Source\PSoC5/ErikaOS_1_ee_alcancel.c **** #ifdef EE_AS_RPC__
 140:Generated_Source\PSoC5/ErikaOS_1_ee_alcancel.c ****   }
 141:Generated_Source\PSoC5/ErikaOS_1_ee_alcancel.c **** #endif /* EE_AS_RPC__ */
 142:Generated_Source\PSoC5/ErikaOS_1_ee_alcancel.c **** 
 143:Generated_Source\PSoC5/ErikaOS_1_ee_alcancel.c ****   if ( ev != E_OK ) {
 144:Generated_Source\PSoC5/ErikaOS_1_ee_alcancel.c ****     EE_ORTI_set_lasterror(ev);
 145:Generated_Source\PSoC5/ErikaOS_1_ee_alcancel.c ****     EE_oo_notify_error_CancelAlarm(AlarmID, ev);
 146:Generated_Source\PSoC5/ErikaOS_1_ee_alcancel.c ****   }
 147:Generated_Source\PSoC5/ErikaOS_1_ee_alcancel.c **** 
 148:Generated_Source\PSoC5/ErikaOS_1_ee_alcancel.c ****   EE_ORTI_set_service_out(EE_SERVICETRACE_CANCELALARM);
 149:Generated_Source\PSoC5/ErikaOS_1_ee_alcancel.c ****   EE_OS_EXIT_CRITICAL_SECTION();
 150:Generated_Source\PSoC5/ErikaOS_1_ee_alcancel.c **** 
 151:Generated_Source\PSoC5/ErikaOS_1_ee_alcancel.c ****   return ev;
 152:Generated_Source\PSoC5/ErikaOS_1_ee_alcancel.c **** }
 175              		.loc 1 152 0
 176 008e 7047     		bx	lr
 177              	.LVL23:
 178              	.L2:
 179              		.cfi_def_cfa_offset 4
 180              		.cfi_offset 4, -4
 181              	.LBB42:
 182              	.LBB41:
 183              	.LBB40:
 232:Generated_Source\PSoC5/ErikaOS_1_cortex_mx_ee_cpu.inc **** #endif	/* !__KEIL__ */
 184              		.loc 2 232 0
 185              		.syntax unified
 186              	@ 232 "Generated_Source\PSoC5\ErikaOS_1_cortex_mx_ee_cpu.inc" 1
 187 0090 82F31088 		msr primask, r2
 188              	@ 0 "" 2
 189              	.LVL24:
 190              		.thumb
 191              		.syntax unified
 192              	.LBE40:
 193              	.LBE41:
 194              	.LBE42:
 195              		.loc 1 152 0
ARM GAS  C:\Users\Asus\AppData\Local\Temp\ccF7rYqi.s 			page 18


 196 0094 10BC     		pop	{r4}
 197              		.cfi_restore 4
 198              		.cfi_def_cfa_offset 0
 199 0096 7047     		bx	lr
 200              	.L12:
 201              		.align	2
 202              	.L11:
 203 0098 00000000 		.word	EE_oo_counter_object_RAM
 204 009c 00000000 		.word	EE_oo_counter_object_ROM
 205 00a0 00000000 		.word	EE_counter_RAM
 206              		.cfi_endproc
 207              	.LFE70:
 208              		.size	EE_oo_CancelAlarm, .-EE_oo_CancelAlarm
 209              		.text
 210              	.Letext0:
 211              		.file 4 "Generated_Source\\PSoC5\\ErikaOS_1_common_ee_types.inc"
 212              		.file 5 "Generated_Source\\PSoC5\\ErikaOS_1_ee_oo_common.inc"
 213              		.file 6 "Generated_Source\\PSoC5\\ErikaOS_1_cortex_mx_ee_internal.inc"
 214              		.file 7 "Generated_Source\\PSoC5\\ErikaOS_1_common_ee_primitives.inc"
 215              		.file 8 "Generated_Source\\PSoC5\\ErikaOS_1_cortex_mx_ee_context.inc"
 216              		.file 9 "Generated_Source\\PSoC5\\ErikaOS_1_ee_oo_intfunc.inc"
 217              		.file 10 "Generated_Source\\PSoC5\\ErikaOS_1_ee_as_internal.inc"