ARM GAS  C:\Users\Asus\AppData\Local\Temp\cc4NRN5T.s 			page 1


   1              		.syntax unified
   2              		.cpu cortex-m3
   3              		.fpu softvfp
   4              		.eabi_attribute 20, 1
   5              		.eabi_attribute 21, 1
   6              		.eabi_attribute 23, 3
   7              		.eabi_attribute 24, 1
   8              		.eabi_attribute 25, 1
   9              		.eabi_attribute 26, 1
  10              		.eabi_attribute 30, 1
  11              		.eabi_attribute 34, 1
  12              		.eabi_attribute 18, 4
  13              		.thumb
  14              		.syntax unified
  15              		.file	"ErikaOS_1_ee_altick.c"
  16              		.text
  17              	.Ltext0:
  18              		.cfi_sections	.debug_frame
  19              		.section	.text.EE_oo_handle_action_callback,"ax",%progbits
  20              		.align	2
  21              		.thumb
  22              		.thumb_func
  23              		.type	EE_oo_handle_action_callback, %function
  24              	EE_oo_handle_action_callback:
  25              	.LFB73:
  26              		.file 1 "Generated_Source\\PSoC5\\ErikaOS_1_ee_altick.c"
   1:Generated_Source\PSoC5/ErikaOS_1_ee_altick.c **** /* ###*B*###
   2:Generated_Source\PSoC5/ErikaOS_1_ee_altick.c ****  * ERIKA Enterprise - a tiny RTOS for small microcontrollers
   3:Generated_Source\PSoC5/ErikaOS_1_ee_altick.c ****  *
   4:Generated_Source\PSoC5/ErikaOS_1_ee_altick.c ****  * Copyright (C) 2002-2008  Evidence Srl
   5:Generated_Source\PSoC5/ErikaOS_1_ee_altick.c ****  *
   6:Generated_Source\PSoC5/ErikaOS_1_ee_altick.c ****  * This file is part of ERIKA Enterprise.
   7:Generated_Source\PSoC5/ErikaOS_1_ee_altick.c ****  *
   8:Generated_Source\PSoC5/ErikaOS_1_ee_altick.c ****  * ERIKA Enterprise is free software; you can redistribute it
   9:Generated_Source\PSoC5/ErikaOS_1_ee_altick.c ****  * and/or modify it under the terms of the GNU General Public License
  10:Generated_Source\PSoC5/ErikaOS_1_ee_altick.c ****  * version 2 as published by the Free Software Foundation, 
  11:Generated_Source\PSoC5/ErikaOS_1_ee_altick.c ****  * (with a special exception described below).
  12:Generated_Source\PSoC5/ErikaOS_1_ee_altick.c ****  *
  13:Generated_Source\PSoC5/ErikaOS_1_ee_altick.c ****  * Linking this code statically or dynamically with other modules is
  14:Generated_Source\PSoC5/ErikaOS_1_ee_altick.c ****  * making a combined work based on this code.  Thus, the terms and
  15:Generated_Source\PSoC5/ErikaOS_1_ee_altick.c ****  * conditions of the GNU General Public License cover the whole
  16:Generated_Source\PSoC5/ErikaOS_1_ee_altick.c ****  * combination.
  17:Generated_Source\PSoC5/ErikaOS_1_ee_altick.c ****  *
  18:Generated_Source\PSoC5/ErikaOS_1_ee_altick.c ****  * As a special exception, the copyright holders of this library give you
  19:Generated_Source\PSoC5/ErikaOS_1_ee_altick.c ****  * permission to link this code with independent modules to produce an
  20:Generated_Source\PSoC5/ErikaOS_1_ee_altick.c ****  * executable, regardless of the license terms of these independent
  21:Generated_Source\PSoC5/ErikaOS_1_ee_altick.c ****  * modules, and to copy and distribute the resulting executable under
  22:Generated_Source\PSoC5/ErikaOS_1_ee_altick.c ****  * terms of your choice, provided that you also meet, for each linked
  23:Generated_Source\PSoC5/ErikaOS_1_ee_altick.c ****  * independent module, the terms and conditions of the license of that
  24:Generated_Source\PSoC5/ErikaOS_1_ee_altick.c ****  * module.  An independent module is a module which is not derived from
  25:Generated_Source\PSoC5/ErikaOS_1_ee_altick.c ****  * or based on this library.  If you modify this code, you may extend
  26:Generated_Source\PSoC5/ErikaOS_1_ee_altick.c ****  * this exception to your version of the code, but you are not
  27:Generated_Source\PSoC5/ErikaOS_1_ee_altick.c ****  * obligated to do so.  If you do not wish to do so, delete this
  28:Generated_Source\PSoC5/ErikaOS_1_ee_altick.c ****  * exception statement from your version.
  29:Generated_Source\PSoC5/ErikaOS_1_ee_altick.c ****  *
  30:Generated_Source\PSoC5/ErikaOS_1_ee_altick.c ****  * ERIKA Enterprise is distributed in the hope that it will be
  31:Generated_Source\PSoC5/ErikaOS_1_ee_altick.c ****  * useful, but WITHOUT ANY WARRANTY; without even the implied warranty
ARM GAS  C:\Users\Asus\AppData\Local\Temp\cc4NRN5T.s 			page 2


  32:Generated_Source\PSoC5/ErikaOS_1_ee_altick.c ****  * of MERCHANTABILITY or FITNESS FOR A PARTICULAR PURPOSE.  See the
  33:Generated_Source\PSoC5/ErikaOS_1_ee_altick.c ****  * GNU General Public License version 2 for more details.
  34:Generated_Source\PSoC5/ErikaOS_1_ee_altick.c ****  *
  35:Generated_Source\PSoC5/ErikaOS_1_ee_altick.c ****  * You should have received a copy of the GNU General Public License
  36:Generated_Source\PSoC5/ErikaOS_1_ee_altick.c ****  * version 2 along with ERIKA Enterprise; if not, write to the
  37:Generated_Source\PSoC5/ErikaOS_1_ee_altick.c ****  * Free Software Foundation, Inc., 51 Franklin Street, Fifth Floor,
  38:Generated_Source\PSoC5/ErikaOS_1_ee_altick.c ****  * Boston, MA 02110-1301 USA.
  39:Generated_Source\PSoC5/ErikaOS_1_ee_altick.c ****  * ###*E*### */
  40:Generated_Source\PSoC5/ErikaOS_1_ee_altick.c **** 
  41:Generated_Source\PSoC5/ErikaOS_1_ee_altick.c **** /*
  42:Generated_Source\PSoC5/ErikaOS_1_ee_altick.c ****  * Author: 2002 Paolo Gai
  43:Generated_Source\PSoC5/ErikaOS_1_ee_altick.c ****  * CVS: $Id: ee_altick.c,v 1.5 2006/06/08 20:40:42 pj Exp $
  44:Generated_Source\PSoC5/ErikaOS_1_ee_altick.c ****  */
  45:Generated_Source\PSoC5/ErikaOS_1_ee_altick.c **** 
  46:Generated_Source\PSoC5/ErikaOS_1_ee_altick.c **** /*
  47:Generated_Source\PSoC5/ErikaOS_1_ee_altick.c ****  * PSoC Port and API Generation
  48:Generated_Source\PSoC5/ErikaOS_1_ee_altick.c ****  * Carlos Fernando Meier Martinez
  49:Generated_Source\PSoC5/ErikaOS_1_ee_altick.c ****  * Hochschule Darmstadt, Germany. 2017.
  50:Generated_Source\PSoC5/ErikaOS_1_ee_altick.c ****  */
  51:Generated_Source\PSoC5/ErikaOS_1_ee_altick.c **** #include "ErikaOS_1_ee_tracing.h"
  52:Generated_Source\PSoC5/ErikaOS_1_ee_altick.c **** 
  53:Generated_Source\PSoC5/ErikaOS_1_ee_altick.c **** #include "ErikaOS_1_ee_internal.inc"
  54:Generated_Source\PSoC5/ErikaOS_1_ee_altick.c **** #if (__OO_configUSE_TRACE_FACILITY == 1)
  55:Generated_Source\PSoC5/ErikaOS_1_ee_altick.c **** #include "trcKernelPort.h"
  56:Generated_Source\PSoC5/ErikaOS_1_ee_altick.c **** #endif
  57:Generated_Source\PSoC5/ErikaOS_1_ee_altick.c **** 
  58:Generated_Source\PSoC5/ErikaOS_1_ee_altick.c **** #if (defined(__OO_BCC1__) || defined(__OO_BCC2__) || defined(__OO_ECC1__) || defined(__OO_ECC2__)) 
  59:Generated_Source\PSoC5/ErikaOS_1_ee_altick.c **** 
  60:Generated_Source\PSoC5/ErikaOS_1_ee_altick.c **** /* If local alarm or schedule tables are not defined: cut everything */
  61:Generated_Source\PSoC5/ErikaOS_1_ee_altick.c **** #if ( (defined(EE_MAX_ALARM)) && (EE_MAX_ALARM > 0U) ) 			\
  62:Generated_Source\PSoC5/ErikaOS_1_ee_altick.c ****   || ( (defined(EE_MAX_SCHEDULETABLE)) && (EE_MAX_SCHEDULETABLE > 0U) )
  63:Generated_Source\PSoC5/ErikaOS_1_ee_altick.c **** #define EE_KEEP_ALARM_QUEUE_CODE
  64:Generated_Source\PSoC5/ErikaOS_1_ee_altick.c **** #endif /* (EE_MAX_ALARM > 0) || (EE_MAX_SCHEDULETABLE > 0U) */
  65:Generated_Source\PSoC5/ErikaOS_1_ee_altick.c **** 
  66:Generated_Source\PSoC5/ErikaOS_1_ee_altick.c **** #if (defined(RTDRUID_CONFIGURATOR_NUMBER))				\
  67:Generated_Source\PSoC5/ErikaOS_1_ee_altick.c ****  && (RTDRUID_CONFIGURATOR_NUMBER >= RTDRUID_CONFNUM_NO_ORTI_VARS)
  68:Generated_Source\PSoC5/ErikaOS_1_ee_altick.c **** 
  69:Generated_Source\PSoC5/ErikaOS_1_ee_altick.c **** /* ORTI variables */
  70:Generated_Source\PSoC5/ErikaOS_1_ee_altick.c **** #if (defined(__OO_ORTI_ALARMTIME__)) && (defined(EE_KEEP_ALARM_QUEUE_CODE))
  71:Generated_Source\PSoC5/ErikaOS_1_ee_altick.c **** static EE_TYPETICK EE_ORTI_alarmtime[EE_MAX_ALARM
  72:Generated_Source\PSoC5/ErikaOS_1_ee_altick.c **** #ifdef EE_AS_SCHEDULETABLES__
  73:Generated_Source\PSoC5/ErikaOS_1_ee_altick.c ****   + EE_MAX_SCHEDULETABLE
  74:Generated_Source\PSoC5/ErikaOS_1_ee_altick.c **** #endif /* EE_AS_SCHEDULETABLES__ */
  75:Generated_Source\PSoC5/ErikaOS_1_ee_altick.c ****   ];
  76:Generated_Source\PSoC5/ErikaOS_1_ee_altick.c **** #endif /* __OO_ORTI_ALARMTIME__ && EE_KEEP_ALARM_QUEUE_CODE */
  77:Generated_Source\PSoC5/ErikaOS_1_ee_altick.c **** 
  78:Generated_Source\PSoC5/ErikaOS_1_ee_altick.c **** #endif /* RTDRUID_CONFIGURATOR_NUMBER */
  79:Generated_Source\PSoC5/ErikaOS_1_ee_altick.c **** 
  80:Generated_Source\PSoC5/ErikaOS_1_ee_altick.c **** #ifdef EE_AS_SCHEDULETABLES__
  81:Generated_Source\PSoC5/ErikaOS_1_ee_altick.c **** #if (defined(EE_MAX_SCHEDULETABLE)) && (EE_MAX_SCHEDULETABLE > 0)
  82:Generated_Source\PSoC5/ErikaOS_1_ee_altick.c **** #define EE_KEEP_ALARM_QUEUE_CODE
  83:Generated_Source\PSoC5/ErikaOS_1_ee_altick.c **** #endif /* EE_MAX_SCHEDULETABLE > 0 */
  84:Generated_Source\PSoC5/ErikaOS_1_ee_altick.c **** #endif /* EE_AS_SCHEDULETABLES__ */
  85:Generated_Source\PSoC5/ErikaOS_1_ee_altick.c **** 
  86:Generated_Source\PSoC5/ErikaOS_1_ee_altick.c **** #ifdef EE_KEEP_ALARM_QUEUE_CODE
  87:Generated_Source\PSoC5/ErikaOS_1_ee_altick.c **** /* Increment equal to 0 means next tick. Has been used this convention to
  88:Generated_Source\PSoC5/ErikaOS_1_ee_altick.c ****    utilize all values from zero to counter.maxallowedvalue range */
ARM GAS  C:\Users\Asus\AppData\Local\Temp\cc4NRN5T.s 			page 3


  89:Generated_Source\PSoC5/ErikaOS_1_ee_altick.c **** void EE_oo_counter_object_insert( CounterObjectType ObjectID,
  90:Generated_Source\PSoC5/ErikaOS_1_ee_altick.c ****   TickType increment )
  91:Generated_Source\PSoC5/ErikaOS_1_ee_altick.c **** {
  92:Generated_Source\PSoC5/ErikaOS_1_ee_altick.c ****   register CounterObjectType  current, previous;
  93:Generated_Source\PSoC5/ErikaOS_1_ee_altick.c ****   register CounterType        ctr = EE_oo_counter_object_ROM[ObjectID].c;
  94:Generated_Source\PSoC5/ErikaOS_1_ee_altick.c **** 
  95:Generated_Source\PSoC5/ErikaOS_1_ee_altick.c **** #ifdef __OO_ORTI_ALARMTIME__
  96:Generated_Source\PSoC5/ErikaOS_1_ee_altick.c ****   EE_ORTI_alarmtime[ObjectID] = increment + 1U + EE_counter_RAM[ctr].value;
  97:Generated_Source\PSoC5/ErikaOS_1_ee_altick.c **** #endif /* __OO_ORTI_ALARMTIME__ */
  98:Generated_Source\PSoC5/ErikaOS_1_ee_altick.c **** 
  99:Generated_Source\PSoC5/ErikaOS_1_ee_altick.c ****   current = EE_counter_RAM[ctr].first;
 100:Generated_Source\PSoC5/ErikaOS_1_ee_altick.c **** 
 101:Generated_Source\PSoC5/ErikaOS_1_ee_altick.c ****   if ( current == INVALID_COUNTER_OBJECT ) {
 102:Generated_Source\PSoC5/ErikaOS_1_ee_altick.c ****     /* The alarm becomes the first into the delta queue, because the queue was
 103:Generated_Source\PSoC5/ErikaOS_1_ee_altick.c ****        empty */
 104:Generated_Source\PSoC5/ErikaOS_1_ee_altick.c ****     EE_counter_RAM[ctr].first = ObjectID;
 105:Generated_Source\PSoC5/ErikaOS_1_ee_altick.c ****   } else if ( EE_oo_counter_object_RAM[current].delta > increment ) {
 106:Generated_Source\PSoC5/ErikaOS_1_ee_altick.c ****     /* The alarm becomes the first into the delta queue, because increment is
 107:Generated_Source\PSoC5/ErikaOS_1_ee_altick.c ****        less than previous delta */
 108:Generated_Source\PSoC5/ErikaOS_1_ee_altick.c ****     EE_counter_RAM[ctr].first = ObjectID;
 109:Generated_Source\PSoC5/ErikaOS_1_ee_altick.c ****     EE_oo_counter_object_RAM[current].delta -= increment;
 110:Generated_Source\PSoC5/ErikaOS_1_ee_altick.c ****   } else {
 111:Generated_Source\PSoC5/ErikaOS_1_ee_altick.c ****     /* The alarm is not the first into the delta queue */
 112:Generated_Source\PSoC5/ErikaOS_1_ee_altick.c **** 
 113:Generated_Source\PSoC5/ErikaOS_1_ee_altick.c ****     /* Follow the delta chain until I reach the right place */
 114:Generated_Source\PSoC5/ErikaOS_1_ee_altick.c ****     do {
 115:Generated_Source\PSoC5/ErikaOS_1_ee_altick.c ****       increment -= EE_oo_counter_object_RAM[current].delta;
 116:Generated_Source\PSoC5/ErikaOS_1_ee_altick.c ****       previous = current;
 117:Generated_Source\PSoC5/ErikaOS_1_ee_altick.c ****       current = EE_oo_counter_object_RAM[current].next;
 118:Generated_Source\PSoC5/ErikaOS_1_ee_altick.c ****     } while( (current != INVALID_COUNTER_OBJECT) &&
 119:Generated_Source\PSoC5/ErikaOS_1_ee_altick.c ****              (EE_oo_counter_object_RAM[current].delta <= increment) );
 120:Generated_Source\PSoC5/ErikaOS_1_ee_altick.c **** 
 121:Generated_Source\PSoC5/ErikaOS_1_ee_altick.c ****     /* Insert the alarm between previous and current */
 122:Generated_Source\PSoC5/ErikaOS_1_ee_altick.c ****     if ( current != INVALID_COUNTER_OBJECT ) {
 123:Generated_Source\PSoC5/ErikaOS_1_ee_altick.c ****       EE_oo_counter_object_RAM[current].delta -= increment;
 124:Generated_Source\PSoC5/ErikaOS_1_ee_altick.c ****     }
 125:Generated_Source\PSoC5/ErikaOS_1_ee_altick.c ****     EE_oo_counter_object_RAM[previous].next = ObjectID;
 126:Generated_Source\PSoC5/ErikaOS_1_ee_altick.c ****   }
 127:Generated_Source\PSoC5/ErikaOS_1_ee_altick.c **** 
 128:Generated_Source\PSoC5/ErikaOS_1_ee_altick.c ****   EE_oo_counter_object_RAM[ObjectID].delta = increment;
 129:Generated_Source\PSoC5/ErikaOS_1_ee_altick.c ****   EE_oo_counter_object_RAM[ObjectID].next = current;
 130:Generated_Source\PSoC5/ErikaOS_1_ee_altick.c **** }
 131:Generated_Source\PSoC5/ErikaOS_1_ee_altick.c **** #endif /* EE_KEEP_ALARM_QUEUE_CODE */
 132:Generated_Source\PSoC5/ErikaOS_1_ee_altick.c **** 
 133:Generated_Source\PSoC5/ErikaOS_1_ee_altick.c **** /* If counters are not defined cut everything */
 134:Generated_Source\PSoC5/ErikaOS_1_ee_altick.c **** 
 135:Generated_Source\PSoC5/ErikaOS_1_ee_altick.c **** #if (defined(EE_MAX_COUNTER)) && (EE_MAX_COUNTER > 0U)
 136:Generated_Source\PSoC5/ErikaOS_1_ee_altick.c **** 
 137:Generated_Source\PSoC5/ErikaOS_1_ee_altick.c **** static void EE_oo_handle_action_task(EE_oo_action_ROM_type const * const p_action);
 138:Generated_Source\PSoC5/ErikaOS_1_ee_altick.c **** 
 139:Generated_Source\PSoC5/ErikaOS_1_ee_altick.c **** static void EE_oo_handle_action_task(EE_oo_action_ROM_type const * const
 140:Generated_Source\PSoC5/ErikaOS_1_ee_altick.c ****   p_action)
 141:Generated_Source\PSoC5/ErikaOS_1_ee_altick.c **** {
 142:Generated_Source\PSoC5/ErikaOS_1_ee_altick.c ****   /* Error Value */
 143:Generated_Source\PSoC5/ErikaOS_1_ee_altick.c ****   register StatusType ev;
 144:Generated_Source\PSoC5/ErikaOS_1_ee_altick.c **** /* Activate the task; NOTE: no pre-emption at all...
 145:Generated_Source\PSoC5/ErikaOS_1_ee_altick.c ****    This code was directly copied from ActivateTask */
ARM GAS  C:\Users\Asus\AppData\Local\Temp\cc4NRN5T.s 			page 4


 146:Generated_Source\PSoC5/ErikaOS_1_ee_altick.c ****   register TaskType TaskID = 0;
 147:Generated_Source\PSoC5/ErikaOS_1_ee_altick.c **** 
 148:Generated_Source\PSoC5/ErikaOS_1_ee_altick.c ****   if ( p_action != NULL ) {
 149:Generated_Source\PSoC5/ErikaOS_1_ee_altick.c ****     TaskID = p_action->action_task;
 150:Generated_Source\PSoC5/ErikaOS_1_ee_altick.c ****   }
 151:Generated_Source\PSoC5/ErikaOS_1_ee_altick.c **** 
 152:Generated_Source\PSoC5/ErikaOS_1_ee_altick.c **** #ifdef EE_AS_RPC__
 153:Generated_Source\PSoC5/ErikaOS_1_ee_altick.c ****   if ( EE_IS_TID_REMOTE(TaskID) ) {
 154:Generated_Source\PSoC5/ErikaOS_1_ee_altick.c ****     EE_os_param unmarked_tid;
 155:Generated_Source\PSoC5/ErikaOS_1_ee_altick.c ****     unmarked_tid.value_param = (EE_UREG)EE_UNMARK_REMOTE_TID(TaskID);
 156:Generated_Source\PSoC5/ErikaOS_1_ee_altick.c ****     /* forward the request to another CPU in synchronous way */
 157:Generated_Source\PSoC5/ErikaOS_1_ee_altick.c ****     ev = EE_as_rpc(OSServiceId_ActivateTask, unmarked_tid,
 158:Generated_Source\PSoC5/ErikaOS_1_ee_altick.c ****       EE_OS_INVALID_PARAM, EE_OS_INVALID_PARAM);
 159:Generated_Source\PSoC5/ErikaOS_1_ee_altick.c ****   } else {
 160:Generated_Source\PSoC5/ErikaOS_1_ee_altick.c **** #elif defined(__RN_TASK__)
 161:Generated_Source\PSoC5/ErikaOS_1_ee_altick.c ****   if ( EE_IS_TID_REMOTE(TaskID) ) {
 162:Generated_Source\PSoC5/ErikaOS_1_ee_altick.c ****     register EE_TYPERN_PARAM par;
 163:Generated_Source\PSoC5/ErikaOS_1_ee_altick.c ****     par.pending = 1U;
 164:Generated_Source\PSoC5/ErikaOS_1_ee_altick.c ****     /* forward the request to another CPU whether the thread do
 165:Generated_Source\PSoC5/ErikaOS_1_ee_altick.c ****        not become to the current CPU */
 166:Generated_Source\PSoC5/ErikaOS_1_ee_altick.c ****     (void)EE_rn_send(EE_UNMARK_REMOTE_TID(TaskID), EE_RN_TASK, par);
 167:Generated_Source\PSoC5/ErikaOS_1_ee_altick.c ****     ev = E_OK;
 168:Generated_Source\PSoC5/ErikaOS_1_ee_altick.c ****   } else {
 169:Generated_Source\PSoC5/ErikaOS_1_ee_altick.c **** #endif /* EE_AS_RPC__ || __RN_TASK__ */
 170:Generated_Source\PSoC5/ErikaOS_1_ee_altick.c **** 
 171:Generated_Source\PSoC5/ErikaOS_1_ee_altick.c **** #ifdef __OO_EXTENDED_STATUS__
 172:Generated_Source\PSoC5/ErikaOS_1_ee_altick.c ****     /* check if the task Id is valid */
 173:Generated_Source\PSoC5/ErikaOS_1_ee_altick.c ****     if ( (TaskID < 0) || (TaskID >= EE_MAX_TASK) ) {
 174:Generated_Source\PSoC5/ErikaOS_1_ee_altick.c ****       ev = E_OS_ID;
 175:Generated_Source\PSoC5/ErikaOS_1_ee_altick.c ****       /* XXX: This means a configuration Error it should never happens! */
 176:Generated_Source\PSoC5/ErikaOS_1_ee_altick.c ****     } else
 177:Generated_Source\PSoC5/ErikaOS_1_ee_altick.c **** #endif /* __OO_EXTENDED_STATUS__ */
 178:Generated_Source\PSoC5/ErikaOS_1_ee_altick.c **** 
 179:Generated_Source\PSoC5/ErikaOS_1_ee_altick.c ****     /* check for pending activations */
 180:Generated_Source\PSoC5/ErikaOS_1_ee_altick.c ****     if ( EE_th_rnact[TaskID] == 0U ) {
 181:Generated_Source\PSoC5/ErikaOS_1_ee_altick.c ****       ev = E_OS_LIMIT;
 182:Generated_Source\PSoC5/ErikaOS_1_ee_altick.c ****     } else {
 183:Generated_Source\PSoC5/ErikaOS_1_ee_altick.c ****       /* [SWS_Os_00469]: The Operating System module shall start an
 184:Generated_Source\PSoC5/ErikaOS_1_ee_altick.c ****           OsTaskTimeFrame when a task is activated successfully.
 185:Generated_Source\PSoC5/ErikaOS_1_ee_altick.c ****           (SRS_Os_11008) */
 186:Generated_Source\PSoC5/ErikaOS_1_ee_altick.c ****       /* [SWS_Os_00466]: If an attempt is made to activate a task before the
 187:Generated_Source\PSoC5/ErikaOS_1_ee_altick.c ****           end of an OsTaskTimeFrame then the Operating System module shall not
 188:Generated_Source\PSoC5/ErikaOS_1_ee_altick.c ****           perform the activation AND shall call the ProtectionHook()
 189:Generated_Source\PSoC5/ErikaOS_1_ee_altick.c ****           with E_OS_PROTECTION_ARRIVAL. */
 190:Generated_Source\PSoC5/ErikaOS_1_ee_altick.c ****       /* Check Interarrival Frame */
 191:Generated_Source\PSoC5/ErikaOS_1_ee_altick.c ****       if ( EE_as_tp_handle_interarrival(EE_AS_TP_ID_FROM_TASK(TaskID)) ) {
 192:Generated_Source\PSoC5/ErikaOS_1_ee_altick.c ****         /* insert the task in the ready queue */
 193:Generated_Source\PSoC5/ErikaOS_1_ee_altick.c ****         EE_oo_task_in_ready_queue(TaskID);
 194:Generated_Source\PSoC5/ErikaOS_1_ee_altick.c ****       }
 195:Generated_Source\PSoC5/ErikaOS_1_ee_altick.c ****       ev = E_OK;
 196:Generated_Source\PSoC5/ErikaOS_1_ee_altick.c ****     }
 197:Generated_Source\PSoC5/ErikaOS_1_ee_altick.c **** #if (defined(EE_AS_RPC__)) || (defined(__RN_TASK__))
 198:Generated_Source\PSoC5/ErikaOS_1_ee_altick.c ****   }
 199:Generated_Source\PSoC5/ErikaOS_1_ee_altick.c **** #endif /* EE_AS_RPC__ || __RN_TASK__ */
 200:Generated_Source\PSoC5/ErikaOS_1_ee_altick.c **** 
 201:Generated_Source\PSoC5/ErikaOS_1_ee_altick.c ****   if ( ev != E_OK ) {
 202:Generated_Source\PSoC5/ErikaOS_1_ee_altick.c **** #ifdef __OO_HAS_ERRORHOOK__
ARM GAS  C:\Users\Asus\AppData\Local\Temp\cc4NRN5T.s 			page 5


 203:Generated_Source\PSoC5/ErikaOS_1_ee_altick.c ****     EE_OS_PARAM(os_task_id);
 204:Generated_Source\PSoC5/ErikaOS_1_ee_altick.c ****     EE_OS_PARAM(os_action_type);
 205:Generated_Source\PSoC5/ErikaOS_1_ee_altick.c ****     EE_OS_PARAM_VALUE(os_task_id,(EE_UREG)TaskID);
 206:Generated_Source\PSoC5/ErikaOS_1_ee_altick.c ****     EE_OS_PARAM_VALUE(os_action_type,(EE_UREG)EE_ACTION_TASK);
 207:Generated_Source\PSoC5/ErikaOS_1_ee_altick.c **** #endif /* __OO_HAS_ERRORHOOK__ */
 208:Generated_Source\PSoC5/ErikaOS_1_ee_altick.c ****     EE_os_notify_error(OSId_Action, os_task_id, EE_OS_INVALID_PARAM,
 209:Generated_Source\PSoC5/ErikaOS_1_ee_altick.c ****       os_action_type, ev);
 210:Generated_Source\PSoC5/ErikaOS_1_ee_altick.c ****   }
 211:Generated_Source\PSoC5/ErikaOS_1_ee_altick.c **** }
 212:Generated_Source\PSoC5/ErikaOS_1_ee_altick.c **** 
 213:Generated_Source\PSoC5/ErikaOS_1_ee_altick.c **** #if (defined(__OO_ECC1__)) || (defined(__OO_ECC2__))
 214:Generated_Source\PSoC5/ErikaOS_1_ee_altick.c **** static void EE_oo_handle_action_event(EE_oo_action_ROM_type const * const p_action);
 215:Generated_Source\PSoC5/ErikaOS_1_ee_altick.c ****   
 216:Generated_Source\PSoC5/ErikaOS_1_ee_altick.c **** static void EE_oo_handle_action_event(EE_oo_action_ROM_type const * const
 217:Generated_Source\PSoC5/ErikaOS_1_ee_altick.c ****   p_action)
 218:Generated_Source\PSoC5/ErikaOS_1_ee_altick.c **** {
 219:Generated_Source\PSoC5/ErikaOS_1_ee_altick.c ****   /* Error Value */
 220:Generated_Source\PSoC5/ErikaOS_1_ee_altick.c ****   register StatusType     ev;
 221:Generated_Source\PSoC5/ErikaOS_1_ee_altick.c ****   /* Set an event for a task... NOTE: no pre-emption at all...
 222:Generated_Source\PSoC5/ErikaOS_1_ee_altick.c ****      This code was directly copied from SetEvent */
 223:Generated_Source\PSoC5/ErikaOS_1_ee_altick.c ****   register TaskType       TaskID  = 0;
 224:Generated_Source\PSoC5/ErikaOS_1_ee_altick.c ****   register EventMaskType  Mask    = 0U;
 225:Generated_Source\PSoC5/ErikaOS_1_ee_altick.c **** 
 226:Generated_Source\PSoC5/ErikaOS_1_ee_altick.c ****   if ( p_action != NULL ) {
 227:Generated_Source\PSoC5/ErikaOS_1_ee_altick.c ****     TaskID = p_action->action_task;
 228:Generated_Source\PSoC5/ErikaOS_1_ee_altick.c ****     Mask = p_action->action_mask;
 229:Generated_Source\PSoC5/ErikaOS_1_ee_altick.c ****   }
 230:Generated_Source\PSoC5/ErikaOS_1_ee_altick.c **** 
 231:Generated_Source\PSoC5/ErikaOS_1_ee_altick.c **** #ifdef EE_AS_RPC__
 232:Generated_Source\PSoC5/ErikaOS_1_ee_altick.c ****   if ( EE_IS_TID_REMOTE(TaskID) ) {
 233:Generated_Source\PSoC5/ErikaOS_1_ee_altick.c ****     EE_os_param unmarked_tid, as_mask;
 234:Generated_Source\PSoC5/ErikaOS_1_ee_altick.c **** 
 235:Generated_Source\PSoC5/ErikaOS_1_ee_altick.c ****     unmarked_tid.value_param = EE_UNMARK_REMOTE_TID(TaskID);
 236:Generated_Source\PSoC5/ErikaOS_1_ee_altick.c ****     as_mask.value_param      = Mask;
 237:Generated_Source\PSoC5/ErikaOS_1_ee_altick.c **** 
 238:Generated_Source\PSoC5/ErikaOS_1_ee_altick.c ****     /* forward the request to another CPU in synchronous way */
 239:Generated_Source\PSoC5/ErikaOS_1_ee_altick.c ****     ev = EE_as_rpc(OSServiceId_SetEvent, unmarked_tid,
 240:Generated_Source\PSoC5/ErikaOS_1_ee_altick.c ****       as_mask, EE_OS_INVALID_PARAM);
 241:Generated_Source\PSoC5/ErikaOS_1_ee_altick.c ****   } else {
 242:Generated_Source\PSoC5/ErikaOS_1_ee_altick.c **** #elif defined( __RN_EVENT__ )
 243:Generated_Source\PSoC5/ErikaOS_1_ee_altick.c ****   if ( EE_IS_TID_REMOTE(TaskID) ) {
 244:Generated_Source\PSoC5/ErikaOS_1_ee_altick.c ****     register EE_TYPERN_PARAM par;
 245:Generated_Source\PSoC5/ErikaOS_1_ee_altick.c ****     par.ev = Mask;
 246:Generated_Source\PSoC5/ErikaOS_1_ee_altick.c ****     /* forward the request to another CPU whether the thread do
 247:Generated_Source\PSoC5/ErikaOS_1_ee_altick.c ****        not become to the current CPU */
 248:Generated_Source\PSoC5/ErikaOS_1_ee_altick.c ****     (void)EE_rn_send((EE_SREG)EE_UNMARK_REMOTE_TID(TaskID), EE_RN_EVENT, par);
 249:Generated_Source\PSoC5/ErikaOS_1_ee_altick.c ****     ev = E_OK;
 250:Generated_Source\PSoC5/ErikaOS_1_ee_altick.c ****   } else {
 251:Generated_Source\PSoC5/ErikaOS_1_ee_altick.c **** #endif /* EE_AS_RPC__ || __RN_EVENT__ */
 252:Generated_Source\PSoC5/ErikaOS_1_ee_altick.c **** 
 253:Generated_Source\PSoC5/ErikaOS_1_ee_altick.c **** #ifdef __OO_EXTENDED_STATUS__    
 254:Generated_Source\PSoC5/ErikaOS_1_ee_altick.c ****     /* check if the task Id is valid */
 255:Generated_Source\PSoC5/ErikaOS_1_ee_altick.c ****     if ( (TaskID < 0) || (TaskID >= EE_MAX_TASK) ) {
 256:Generated_Source\PSoC5/ErikaOS_1_ee_altick.c ****       ev = E_OS_ID;
 257:Generated_Source\PSoC5/ErikaOS_1_ee_altick.c ****     } else if ( EE_th_is_extended[TaskID] == EE_FALSE ) {
 258:Generated_Source\PSoC5/ErikaOS_1_ee_altick.c ****       ev = E_OS_ACCESS;
 259:Generated_Source\PSoC5/ErikaOS_1_ee_altick.c ****     } else
ARM GAS  C:\Users\Asus\AppData\Local\Temp\cc4NRN5T.s 			page 6


 260:Generated_Source\PSoC5/ErikaOS_1_ee_altick.c ****     /* XXX: These means a configuration Error: it should never happens! */
 261:Generated_Source\PSoC5/ErikaOS_1_ee_altick.c **** #endif /* __OO_EXTENDED_STATUS__ */
 262:Generated_Source\PSoC5/ErikaOS_1_ee_altick.c **** 
 263:Generated_Source\PSoC5/ErikaOS_1_ee_altick.c ****     if ( EE_th_status[TaskID] == SUSPENDED ) {
 264:Generated_Source\PSoC5/ErikaOS_1_ee_altick.c ****       ev = E_OS_STATE;
 265:Generated_Source\PSoC5/ErikaOS_1_ee_altick.c ****     } else {
 266:Generated_Source\PSoC5/ErikaOS_1_ee_altick.c ****       /* [SWS_Os_00472] The Operating System module shall start an
 267:Generated_Source\PSoC5/ErikaOS_1_ee_altick.c ****           OsTaskTimeFrame when a task is released successfully.
 268:Generated_Source\PSoC5/ErikaOS_1_ee_altick.c ****           (SRS_Os_11008) */
 269:Generated_Source\PSoC5/ErikaOS_1_ee_altick.c ****       /* [SWS_Os_00467] If an attempt is made to release a task before the end
 270:Generated_Source\PSoC5/ErikaOS_1_ee_altick.c ****           of an OsTaskTimeFrame then the Operating System module shall not
 271:Generated_Source\PSoC5/ErikaOS_1_ee_altick.c ****           perform the release AND shall call the ProtectionHook() with
 272:Generated_Source\PSoC5/ErikaOS_1_ee_altick.c ****           E_OS_PROTECTION_ARRIVAL AND the EVENT SHALL BE SET. */
 273:Generated_Source\PSoC5/ErikaOS_1_ee_altick.c ****       /* Set the event mask only if the task is not suspended */
 274:Generated_Source\PSoC5/ErikaOS_1_ee_altick.c ****       EE_th_event_active[TaskID] |= Mask;
 275:Generated_Source\PSoC5/ErikaOS_1_ee_altick.c ****       /* Check Interarrival Frame */
 276:Generated_Source\PSoC5/ErikaOS_1_ee_altick.c ****       if ( EE_as_tp_handle_interarrival(EE_AS_TP_ID_FROM_TASK(TaskID)) )
 277:Generated_Source\PSoC5/ErikaOS_1_ee_altick.c ****       {
 278:Generated_Source\PSoC5/ErikaOS_1_ee_altick.c ****         /* Check if the task was waiting for an event we just set
 279:Generated_Source\PSoC5/ErikaOS_1_ee_altick.c ****          *
 280:Generated_Source\PSoC5/ErikaOS_1_ee_altick.c ****          * WARNING:
 281:Generated_Source\PSoC5/ErikaOS_1_ee_altick.c ****          * the test with status==WAITING is FUNDAMENTAL to avoid double
 282:Generated_Source\PSoC5/ErikaOS_1_ee_altick.c ****          * insertion of the task in the ready queue!!! Example, when I call
 283:Generated_Source\PSoC5/ErikaOS_1_ee_altick.c ****          * two times the same setevent... the first time the task must go in
 284:Generated_Source\PSoC5/ErikaOS_1_ee_altick.c ****          * the ready queue, the second time NOT!!!
 285:Generated_Source\PSoC5/ErikaOS_1_ee_altick.c ****          */
 286:Generated_Source\PSoC5/ErikaOS_1_ee_altick.c ****         if ( ((EE_th_event_waitmask[TaskID] & Mask) != 0U) &&
 287:Generated_Source\PSoC5/ErikaOS_1_ee_altick.c ****           (EE_th_status[TaskID] == WAITING) )
 288:Generated_Source\PSoC5/ErikaOS_1_ee_altick.c ****         {
 289:Generated_Source\PSoC5/ErikaOS_1_ee_altick.c ****           /* if yes, the task must go back into the READY state */
 290:Generated_Source\PSoC5/ErikaOS_1_ee_altick.c ****           EE_th_status[TaskID] = READY;
 291:Generated_Source\PSoC5/ErikaOS_1_ee_altick.c ****           /* insert the task in the ready queue */
 292:Generated_Source\PSoC5/ErikaOS_1_ee_altick.c ****           EE_rq_insert(TaskID);
 293:Generated_Source\PSoC5/ErikaOS_1_ee_altick.c ****         }
 294:Generated_Source\PSoC5/ErikaOS_1_ee_altick.c ****       }
 295:Generated_Source\PSoC5/ErikaOS_1_ee_altick.c **** 
 296:Generated_Source\PSoC5/ErikaOS_1_ee_altick.c ****       ev = E_OK;
 297:Generated_Source\PSoC5/ErikaOS_1_ee_altick.c ****     }
 298:Generated_Source\PSoC5/ErikaOS_1_ee_altick.c **** #if (defined(EE_AS_RPC__)) || (defined(__RN_TASK__))
 299:Generated_Source\PSoC5/ErikaOS_1_ee_altick.c ****   }
 300:Generated_Source\PSoC5/ErikaOS_1_ee_altick.c **** #endif /* EE_AS_RPC__ || __RN_TASK__ */
 301:Generated_Source\PSoC5/ErikaOS_1_ee_altick.c **** 
 302:Generated_Source\PSoC5/ErikaOS_1_ee_altick.c ****   if ( ev != E_OK ) {
 303:Generated_Source\PSoC5/ErikaOS_1_ee_altick.c **** #ifdef __OO_HAS_ERRORHOOK__
 304:Generated_Source\PSoC5/ErikaOS_1_ee_altick.c ****     EE_OS_PARAM(os_task_id);
 305:Generated_Source\PSoC5/ErikaOS_1_ee_altick.c ****     EE_OS_PARAM(os_mask);
 306:Generated_Source\PSoC5/ErikaOS_1_ee_altick.c ****     EE_OS_PARAM(os_action_type);
 307:Generated_Source\PSoC5/ErikaOS_1_ee_altick.c ****     EE_OS_PARAM_VALUE(os_task_id,(EE_UREG)TaskID);
 308:Generated_Source\PSoC5/ErikaOS_1_ee_altick.c ****     EE_OS_PARAM_VALUE(os_mask,Mask);
 309:Generated_Source\PSoC5/ErikaOS_1_ee_altick.c ****     EE_OS_PARAM_VALUE(os_action_type,(EE_UREG)EE_ACTION_EVENT);
 310:Generated_Source\PSoC5/ErikaOS_1_ee_altick.c **** #endif /* __OO_HAS_ERRORHOOK__ */
 311:Generated_Source\PSoC5/ErikaOS_1_ee_altick.c ****     EE_os_notify_error(OSId_Action, os_task_id, os_mask,
 312:Generated_Source\PSoC5/ErikaOS_1_ee_altick.c ****       os_action_type, ev);
 313:Generated_Source\PSoC5/ErikaOS_1_ee_altick.c ****   }
 314:Generated_Source\PSoC5/ErikaOS_1_ee_altick.c **** }
 315:Generated_Source\PSoC5/ErikaOS_1_ee_altick.c **** #endif /* __OO_ECC1__ || __OO_ECC2__ */
 316:Generated_Source\PSoC5/ErikaOS_1_ee_altick.c **** 
ARM GAS  C:\Users\Asus\AppData\Local\Temp\cc4NRN5T.s 			page 7


 317:Generated_Source\PSoC5/ErikaOS_1_ee_altick.c **** static void EE_oo_handle_action_callback ( const EE_oo_action_ROM_type *
 318:Generated_Source\PSoC5/ErikaOS_1_ee_altick.c **** 					   const p_action );
 319:Generated_Source\PSoC5/ErikaOS_1_ee_altick.c **** 
 320:Generated_Source\PSoC5/ErikaOS_1_ee_altick.c **** #if (defined(EE_AS_OSAPPLICATIONS__)) && (defined(EE_SERVICE_PROTECTION__))
 321:Generated_Source\PSoC5/ErikaOS_1_ee_altick.c **** static void EE_oo_handle_action_callback ( const EE_oo_action_ROM_type *
 322:Generated_Source\PSoC5/ErikaOS_1_ee_altick.c ****   const p_action )
 323:Generated_Source\PSoC5/ErikaOS_1_ee_altick.c **** {
 324:Generated_Source\PSoC5/ErikaOS_1_ee_altick.c ****   /* Handle Alarm callback execution context */
 325:Generated_Source\PSoC5/ErikaOS_1_ee_altick.c ****   EE_TYPECONTEXT prev_context = EE_as_execution_context;
 326:Generated_Source\PSoC5/ErikaOS_1_ee_altick.c **** 
 327:Generated_Source\PSoC5/ErikaOS_1_ee_altick.c ****   EE_as_execution_context = AlarmCallback_Context;
 328:Generated_Source\PSoC5/ErikaOS_1_ee_altick.c ****   (p_action->f)();
 329:Generated_Source\PSoC5/ErikaOS_1_ee_altick.c ****   EE_as_execution_context = prev_context;
 330:Generated_Source\PSoC5/ErikaOS_1_ee_altick.c **** }
 331:Generated_Source\PSoC5/ErikaOS_1_ee_altick.c **** #else /* EE_AS_OSAPPLICATIONS__ && EE_SERVICE_PROTECTION__ */
 332:Generated_Source\PSoC5/ErikaOS_1_ee_altick.c **** static void EE_oo_handle_action_callback ( const EE_oo_action_ROM_type *
 333:Generated_Source\PSoC5/ErikaOS_1_ee_altick.c ****   const p_action ) {
  27              		.loc 1 333 0
  28              		.cfi_startproc
  29              		@ args = 0, pretend = 0, frame = 0
  30              		@ frame_needed = 0, uses_anonymous_args = 0
  31              	.LVL0:
 334:Generated_Source\PSoC5/ErikaOS_1_ee_altick.c ****   if ( p_action != NULL ) {
  32              		.loc 1 334 0
  33 0000 18B1     		cbz	r0, .L4
 333:Generated_Source\PSoC5/ErikaOS_1_ee_altick.c ****   if ( p_action != NULL ) {
  34              		.loc 1 333 0
  35 0002 08B5     		push	{r3, lr}
  36              		.cfi_def_cfa_offset 8
  37              		.cfi_offset 3, -8
  38              		.cfi_offset 14, -4
 335:Generated_Source\PSoC5/ErikaOS_1_ee_altick.c ****     (p_action->f)();
  39              		.loc 1 335 0
  40 0004 C368     		ldr	r3, [r0, #12]
  41 0006 9847     		blx	r3
  42              	.LVL1:
  43 0008 08BD     		pop	{r3, pc}
  44              	.LVL2:
  45              	.L4:
  46              		.cfi_def_cfa_offset 0
  47              		.cfi_restore 3
  48              		.cfi_restore 14
  49 000a 7047     		bx	lr
  50              		.cfi_endproc
  51              	.LFE73:
  52              		.size	EE_oo_handle_action_callback, .-EE_oo_handle_action_callback
  53              		.section	.text.EE_oo_handle_action_task,"ax",%progbits
  54              		.align	2
  55              		.thumb
  56              		.thumb_func
  57              		.type	EE_oo_handle_action_task, %function
  58              	EE_oo_handle_action_task:
  59              	.LFB71:
 141:Generated_Source\PSoC5/ErikaOS_1_ee_altick.c ****   /* Error Value */
  60              		.loc 1 141 0
  61              		.cfi_startproc
  62              		@ args = 0, pretend = 0, frame = 0
ARM GAS  C:\Users\Asus\AppData\Local\Temp\cc4NRN5T.s 			page 8


  63              		@ frame_needed = 0, uses_anonymous_args = 0
  64              	.LVL3:
  65 0000 08B5     		push	{r3, lr}
  66              		.cfi_def_cfa_offset 8
  67              		.cfi_offset 3, -8
  68              		.cfi_offset 14, -4
  69              	.LVL4:
 148:Generated_Source\PSoC5/ErikaOS_1_ee_altick.c ****     TaskID = p_action->action_task;
  70              		.loc 1 148 0
  71 0002 08B1     		cbz	r0, .L9
 149:Generated_Source\PSoC5/ErikaOS_1_ee_altick.c ****   }
  72              		.loc 1 149 0
  73 0004 4068     		ldr	r0, [r0, #4]
  74              	.LVL5:
  75 0006 00E0     		b	.L6
  76              	.LVL6:
  77              	.L9:
 146:Generated_Source\PSoC5/ErikaOS_1_ee_altick.c **** 
  78              		.loc 1 146 0
  79 0008 0020     		movs	r0, #0
  80              	.LVL7:
  81              	.L6:
 173:Generated_Source\PSoC5/ErikaOS_1_ee_altick.c ****       ev = E_OS_ID;
  82              		.loc 1 173 0
  83 000a 0428     		cmp	r0, #4
  84 000c 16D8     		bhi	.L5
 180:Generated_Source\PSoC5/ErikaOS_1_ee_altick.c ****       ev = E_OS_LIMIT;
  85              		.loc 1 180 0
  86 000e 0C4B     		ldr	r3, .L11
  87 0010 53F82030 		ldr	r3, [r3, r0, lsl #2]
  88 0014 93B1     		cbz	r3, .L5
  89              	.LVL8:
  90              	.LBB64:
  91              	.LBB65:
  92              		.file 2 "Generated_Source\\PSoC5\\ErikaOS_1_ee_oo_internal.inc"
   1:Generated_Source\PSoC5/ErikaOS_1_ee_oo_internal.inc **** /* ###*B*###
   2:Generated_Source\PSoC5/ErikaOS_1_ee_oo_internal.inc ****  * ERIKA Enterprise - a tiny RTOS for small microcontrollers
   3:Generated_Source\PSoC5/ErikaOS_1_ee_oo_internal.inc ****  *
   4:Generated_Source\PSoC5/ErikaOS_1_ee_oo_internal.inc ****  * Copyright (C) 2002-2008  Evidence Srl
   5:Generated_Source\PSoC5/ErikaOS_1_ee_oo_internal.inc ****  *
   6:Generated_Source\PSoC5/ErikaOS_1_ee_oo_internal.inc ****  * This file is part of ERIKA Enterprise.
   7:Generated_Source\PSoC5/ErikaOS_1_ee_oo_internal.inc ****  *
   8:Generated_Source\PSoC5/ErikaOS_1_ee_oo_internal.inc ****  * ERIKA Enterprise is free software; you can redistribute it
   9:Generated_Source\PSoC5/ErikaOS_1_ee_oo_internal.inc ****  * and/or modify it under the terms of the GNU General Public License
  10:Generated_Source\PSoC5/ErikaOS_1_ee_oo_internal.inc ****  * version 2 as published by the Free Software Foundation, 
  11:Generated_Source\PSoC5/ErikaOS_1_ee_oo_internal.inc ****  * (with a special exception described below).
  12:Generated_Source\PSoC5/ErikaOS_1_ee_oo_internal.inc ****  *
  13:Generated_Source\PSoC5/ErikaOS_1_ee_oo_internal.inc ****  * Linking this code statically or dynamically with other modules is
  14:Generated_Source\PSoC5/ErikaOS_1_ee_oo_internal.inc ****  * making a combined work based on this code.  Thus, the terms and
  15:Generated_Source\PSoC5/ErikaOS_1_ee_oo_internal.inc ****  * conditions of the GNU General Public License cover the whole
  16:Generated_Source\PSoC5/ErikaOS_1_ee_oo_internal.inc ****  * combination.
  17:Generated_Source\PSoC5/ErikaOS_1_ee_oo_internal.inc ****  *
  18:Generated_Source\PSoC5/ErikaOS_1_ee_oo_internal.inc ****  * As a special exception, the copyright holders of this library give you
  19:Generated_Source\PSoC5/ErikaOS_1_ee_oo_internal.inc ****  * permission to link this code with independent modules to produce an
  20:Generated_Source\PSoC5/ErikaOS_1_ee_oo_internal.inc ****  * executable, regardless of the license terms of these independent
  21:Generated_Source\PSoC5/ErikaOS_1_ee_oo_internal.inc ****  * modules, and to copy and distribute the resulting executable under
  22:Generated_Source\PSoC5/ErikaOS_1_ee_oo_internal.inc ****  * terms of your choice, provided that you also meet, for each linked
ARM GAS  C:\Users\Asus\AppData\Local\Temp\cc4NRN5T.s 			page 9


  23:Generated_Source\PSoC5/ErikaOS_1_ee_oo_internal.inc ****  * independent module, the terms and conditions of the license of that
  24:Generated_Source\PSoC5/ErikaOS_1_ee_oo_internal.inc ****  * module.  An independent module is a module which is not derived from
  25:Generated_Source\PSoC5/ErikaOS_1_ee_oo_internal.inc ****  * or based on this library.  If you modify this code, you may extend
  26:Generated_Source\PSoC5/ErikaOS_1_ee_oo_internal.inc ****  * this exception to your version of the code, but you are not
  27:Generated_Source\PSoC5/ErikaOS_1_ee_oo_internal.inc ****  * obligated to do so.  If you do not wish to do so, delete this
  28:Generated_Source\PSoC5/ErikaOS_1_ee_oo_internal.inc ****  * exception statement from your version.
  29:Generated_Source\PSoC5/ErikaOS_1_ee_oo_internal.inc ****  *
  30:Generated_Source\PSoC5/ErikaOS_1_ee_oo_internal.inc ****  * ERIKA Enterprise is distributed in the hope that it will be
  31:Generated_Source\PSoC5/ErikaOS_1_ee_oo_internal.inc ****  * useful, but WITHOUT ANY WARRANTY; without even the implied warranty
  32:Generated_Source\PSoC5/ErikaOS_1_ee_oo_internal.inc ****  * of MERCHANTABILITY or FITNESS FOR A PARTICULAR PURPOSE.  See the
  33:Generated_Source\PSoC5/ErikaOS_1_ee_oo_internal.inc ****  * GNU General Public License version 2 for more details.
  34:Generated_Source\PSoC5/ErikaOS_1_ee_oo_internal.inc ****  *
  35:Generated_Source\PSoC5/ErikaOS_1_ee_oo_internal.inc ****  * You should have received a copy of the GNU General Public License
  36:Generated_Source\PSoC5/ErikaOS_1_ee_oo_internal.inc ****  * version 2 along with ERIKA Enterprise; if not, write to the
  37:Generated_Source\PSoC5/ErikaOS_1_ee_oo_internal.inc ****  * Free Software Foundation, Inc., 51 Franklin Street, Fifth Floor,
  38:Generated_Source\PSoC5/ErikaOS_1_ee_oo_internal.inc ****  * Boston, MA 02110-1301 USA.
  39:Generated_Source\PSoC5/ErikaOS_1_ee_oo_internal.inc ****  * ###*E*### */
  40:Generated_Source\PSoC5/ErikaOS_1_ee_oo_internal.inc **** 
  41:Generated_Source\PSoC5/ErikaOS_1_ee_oo_internal.inc **** /*
  42:Generated_Source\PSoC5/ErikaOS_1_ee_oo_internal.inc ****  * Author: 2002 Paolo Gai
  43:Generated_Source\PSoC5/ErikaOS_1_ee_oo_internal.inc ****  * CVS: $Id: ee_internal.h,v 1.6 2006/12/03 22:07:50 pj Exp $
  44:Generated_Source\PSoC5/ErikaOS_1_ee_oo_internal.inc ****  */
  45:Generated_Source\PSoC5/ErikaOS_1_ee_oo_internal.inc **** 
  46:Generated_Source\PSoC5/ErikaOS_1_ee_oo_internal.inc **** /*
  47:Generated_Source\PSoC5/ErikaOS_1_ee_oo_internal.inc ****  * PSoC Port and API Generation
  48:Generated_Source\PSoC5/ErikaOS_1_ee_oo_internal.inc ****  * Carlos Fernando Meier Martinez
  49:Generated_Source\PSoC5/ErikaOS_1_ee_oo_internal.inc ****  * Hochschule Darmstadt, Germany. 2017.
  50:Generated_Source\PSoC5/ErikaOS_1_ee_oo_internal.inc ****  */
  51:Generated_Source\PSoC5/ErikaOS_1_ee_oo_internal.inc **** 
  52:Generated_Source\PSoC5/ErikaOS_1_ee_oo_internal.inc **** #ifndef PKG_KERNEL_OO_INC_EE_OO_INTERNAL_H
  53:Generated_Source\PSoC5/ErikaOS_1_ee_oo_internal.inc **** #define PKG_KERNEL_OO_INC_EE_OO_INTERNAL_H
  54:Generated_Source\PSoC5/ErikaOS_1_ee_oo_internal.inc **** 
  55:Generated_Source\PSoC5/ErikaOS_1_ee_oo_internal.inc **** #include "ErikaOS_1_ee_oo_common.inc"
  56:Generated_Source\PSoC5/ErikaOS_1_ee_oo_internal.inc **** #include "ErikaOS_1_ee_oo_intfunc.inc"
  57:Generated_Source\PSoC5/ErikaOS_1_ee_oo_internal.inc **** #include "ErikaOS_1_ee_oo_irq.inc"
  58:Generated_Source\PSoC5/ErikaOS_1_ee_oo_internal.inc **** #if (__OO_configUSE_TRACE_FACILITY == 1)
  59:Generated_Source\PSoC5/ErikaOS_1_ee_oo_internal.inc **** #include "trcKernelPort.h" 
  60:Generated_Source\PSoC5/ErikaOS_1_ee_oo_internal.inc **** #endif
  61:Generated_Source\PSoC5/ErikaOS_1_ee_oo_internal.inc **** /*******************************************************************************
  62:Generated_Source\PSoC5/ErikaOS_1_ee_oo_internal.inc ****  *                    New Error Handling Internal Utilities
  63:Generated_Source\PSoC5/ErikaOS_1_ee_oo_internal.inc ****  ******************************************************************************/
  64:Generated_Source\PSoC5/ErikaOS_1_ee_oo_internal.inc **** 
  65:Generated_Source\PSoC5/ErikaOS_1_ee_oo_internal.inc **** /* Error Parameters Utilities Macros */
  66:Generated_Source\PSoC5/ErikaOS_1_ee_oo_internal.inc **** #define EE_OS_PARAM(param_name)   EE_os_param param_name
  67:Generated_Source\PSoC5/ErikaOS_1_ee_oo_internal.inc **** #define EE_OS_PARAM_VALUE(param_name, param_value)  \
  68:Generated_Source\PSoC5/ErikaOS_1_ee_oo_internal.inc ****   ((param_name).value_param = (param_value))
  69:Generated_Source\PSoC5/ErikaOS_1_ee_oo_internal.inc **** 
  70:Generated_Source\PSoC5/ErikaOS_1_ee_oo_internal.inc **** #define EE_OS_PARAM_REF(param_name, param_field, param_ref) \
  71:Generated_Source\PSoC5/ErikaOS_1_ee_oo_internal.inc ****   ((param_name).param_field = (param_ref))
  72:Generated_Source\PSoC5/ErikaOS_1_ee_oo_internal.inc **** 
  73:Generated_Source\PSoC5/ErikaOS_1_ee_oo_internal.inc **** #ifdef __OO_HAS_ERRORHOOK__
  74:Generated_Source\PSoC5/ErikaOS_1_ee_oo_internal.inc **** /* Error Parameters Data Structure Utilities Macros from user space */
  75:Generated_Source\PSoC5/ErikaOS_1_ee_oo_internal.inc **** #define EE_OS_ERROR_PARAMETERS()  EE_oo_ErrorHook_parameters error_parameters
  76:Generated_Source\PSoC5/ErikaOS_1_ee_oo_internal.inc **** 
  77:Generated_Source\PSoC5/ErikaOS_1_ee_oo_internal.inc **** #define EE_OS_ERROR_PARAMETERS_INIT(param1_in,param2_in,param3_in)  \
  78:Generated_Source\PSoC5/ErikaOS_1_ee_oo_internal.inc ****   EE_oo_ErrorHook_parameters error_parameters = { param1_in, param2_in, \
  79:Generated_Source\PSoC5/ErikaOS_1_ee_oo_internal.inc ****     param3_in }
ARM GAS  C:\Users\Asus\AppData\Local\Temp\cc4NRN5T.s 			page 10


  80:Generated_Source\PSoC5/ErikaOS_1_ee_oo_internal.inc **** 
  81:Generated_Source\PSoC5/ErikaOS_1_ee_oo_internal.inc **** #define EE_OS_ERROR_PARAMETERS_PARAM1_VALUE(param1_value) \
  82:Generated_Source\PSoC5/ErikaOS_1_ee_oo_internal.inc ****   (error_parameters.param1.value_param = param1_value)
  83:Generated_Source\PSoC5/ErikaOS_1_ee_oo_internal.inc **** #define EE_OS_ERROR_PARAMETERS_PARAM2_VALUE(param2_value) \
  84:Generated_Source\PSoC5/ErikaOS_1_ee_oo_internal.inc ****   (error_parameters.param2.value_param = param2_value)
  85:Generated_Source\PSoC5/ErikaOS_1_ee_oo_internal.inc **** #define EE_OS_ERROR_PARAMETERS_PARAM3_VALUE(param3_value) \
  86:Generated_Source\PSoC5/ErikaOS_1_ee_oo_internal.inc ****   (error_parameters.param3.value_param = param3_value)
  87:Generated_Source\PSoC5/ErikaOS_1_ee_oo_internal.inc **** 
  88:Generated_Source\PSoC5/ErikaOS_1_ee_oo_internal.inc **** #define EE_OS_ERROR_PARAMETERS_PARAM1_REF(param_field,param_ref)  \
  89:Generated_Source\PSoC5/ErikaOS_1_ee_oo_internal.inc ****   (error_parameters.param1.param_field = (param_ref))
  90:Generated_Source\PSoC5/ErikaOS_1_ee_oo_internal.inc **** #define EE_OS_ERROR_PARAMETERS_PARAM2_REF(param_field,param_ref)  \
  91:Generated_Source\PSoC5/ErikaOS_1_ee_oo_internal.inc ****   (error_parameters.param2.param_field = (param_ref))
  92:Generated_Source\PSoC5/ErikaOS_1_ee_oo_internal.inc **** #define EE_OS_ERROR_PARAMETERS_PARAM3_REF(param_field,param_ref)  \
  93:Generated_Source\PSoC5/ErikaOS_1_ee_oo_internal.inc ****   (error_parameters.param3.param_field = (param_ref))
  94:Generated_Source\PSoC5/ErikaOS_1_ee_oo_internal.inc **** #else /* __OO_HAS_ERRORHOOK__ */
  95:Generated_Source\PSoC5/ErikaOS_1_ee_oo_internal.inc **** #define EE_OS_ERROR_PARAMETERS()                                    ((void)0)
  96:Generated_Source\PSoC5/ErikaOS_1_ee_oo_internal.inc **** 
  97:Generated_Source\PSoC5/ErikaOS_1_ee_oo_internal.inc **** #define EE_OS_ERROR_PARAMETERS_INIT(param1_in,param2_in,param3_in)  ((void)0)
  98:Generated_Source\PSoC5/ErikaOS_1_ee_oo_internal.inc **** 
  99:Generated_Source\PSoC5/ErikaOS_1_ee_oo_internal.inc **** #define EE_OS_ERROR_PARAMETERS_PARAM1_VALUE(param1_value)           ((void)0)
 100:Generated_Source\PSoC5/ErikaOS_1_ee_oo_internal.inc **** #define EE_OS_ERROR_PARAMETERS_PARAM2_VALUE(param2_value)           ((void)0)
 101:Generated_Source\PSoC5/ErikaOS_1_ee_oo_internal.inc **** #define EE_OS_ERROR_PARAMETERS_PARAM3_VALUE(param3_value)           ((void)0)
 102:Generated_Source\PSoC5/ErikaOS_1_ee_oo_internal.inc **** 
 103:Generated_Source\PSoC5/ErikaOS_1_ee_oo_internal.inc **** #define EE_OS_ERROR_PARAMETERS_PARAM1_REF(param_field,param_ref)    ((void)0)
 104:Generated_Source\PSoC5/ErikaOS_1_ee_oo_internal.inc **** #define EE_OS_ERROR_PARAMETERS_PARAM2_REF(param_field,param_ref)    ((void)0)
 105:Generated_Source\PSoC5/ErikaOS_1_ee_oo_internal.inc **** #define EE_OS_ERROR_PARAMETERS_PARAM3_REF(param_field,param_ref)    ((void)0)
 106:Generated_Source\PSoC5/ErikaOS_1_ee_oo_internal.inc **** #endif /* __OO_HAS_ERRORHOOK__ */
 107:Generated_Source\PSoC5/ErikaOS_1_ee_oo_internal.inc **** 
 108:Generated_Source\PSoC5/ErikaOS_1_ee_oo_internal.inc **** /* Error Handling */
 109:Generated_Source\PSoC5/ErikaOS_1_ee_oo_internal.inc **** #ifdef __OO_HAS_ERRORHOOK__
 110:Generated_Source\PSoC5/ErikaOS_1_ee_oo_internal.inc **** #ifndef  __OO_ERRORHOOK_NOMACROS__
 111:Generated_Source\PSoC5/ErikaOS_1_ee_oo_internal.inc **** 
 112:Generated_Source\PSoC5/ErikaOS_1_ee_oo_internal.inc **** __INLINE__ void  EE_os_fill_error_data( OSServiceIdType
 113:Generated_Source\PSoC5/ErikaOS_1_ee_oo_internal.inc ****   ServiceID, EE_os_param param1, EE_os_param param2, EE_os_param param3 )
 114:Generated_Source\PSoC5/ErikaOS_1_ee_oo_internal.inc **** {
 115:Generated_Source\PSoC5/ErikaOS_1_ee_oo_internal.inc ****   register EE_oo_ErrorHook_parameters * const
 116:Generated_Source\PSoC5/ErikaOS_1_ee_oo_internal.inc ****     p_errorhook_parameter = EE_oo_get_errorhook_data();
 117:Generated_Source\PSoC5/ErikaOS_1_ee_oo_internal.inc ****   (*EE_oo_get_errorhook_service_id()) = ServiceID;
 118:Generated_Source\PSoC5/ErikaOS_1_ee_oo_internal.inc ****   p_errorhook_parameter->param1 = param1;
 119:Generated_Source\PSoC5/ErikaOS_1_ee_oo_internal.inc ****   p_errorhook_parameter->param2 = param2;
 120:Generated_Source\PSoC5/ErikaOS_1_ee_oo_internal.inc ****   p_errorhook_parameter->param3 = param3;
 121:Generated_Source\PSoC5/ErikaOS_1_ee_oo_internal.inc **** }
 122:Generated_Source\PSoC5/ErikaOS_1_ee_oo_internal.inc **** #else /* !__OO_ERRORHOOK_NOMACROS__ */
 123:Generated_Source\PSoC5/ErikaOS_1_ee_oo_internal.inc **** 
 124:Generated_Source\PSoC5/ErikaOS_1_ee_oo_internal.inc **** #define EE_os_fill_error_data(ServiceID,param1,param2,param3) ((void)0)
 125:Generated_Source\PSoC5/ErikaOS_1_ee_oo_internal.inc **** #endif /* !__OO_ERRORHOOK_NOMACROS__ */
 126:Generated_Source\PSoC5/ErikaOS_1_ee_oo_internal.inc **** 
 127:Generated_Source\PSoC5/ErikaOS_1_ee_oo_internal.inc **** __INLINE__ void  EE_os_notify_error( OSServiceIdType ServiceID,
 128:Generated_Source\PSoC5/ErikaOS_1_ee_oo_internal.inc ****   EE_os_param param1, EE_os_param param2, EE_os_param param3,
 129:Generated_Source\PSoC5/ErikaOS_1_ee_oo_internal.inc ****   StatusType Error )
 130:Generated_Source\PSoC5/ErikaOS_1_ee_oo_internal.inc **** {
 131:Generated_Source\PSoC5/ErikaOS_1_ee_oo_internal.inc ****   EE_ORTI_set_lasterror(Error);
 132:Generated_Source\PSoC5/ErikaOS_1_ee_oo_internal.inc ****   if ( EE_ErrorHook_nested_flag == 0U )
 133:Generated_Source\PSoC5/ErikaOS_1_ee_oo_internal.inc ****   {
 134:Generated_Source\PSoC5/ErikaOS_1_ee_oo_internal.inc ****     EE_os_fill_error_data(ServiceID, param1, param2, param3);
 135:Generated_Source\PSoC5/ErikaOS_1_ee_oo_internal.inc ****     EE_ErrorHook_nested_flag = 1U;
 136:Generated_Source\PSoC5/ErikaOS_1_ee_oo_internal.inc ****     EE_oo_call_ErrorHook(Error);
ARM GAS  C:\Users\Asus\AppData\Local\Temp\cc4NRN5T.s 			page 11


 137:Generated_Source\PSoC5/ErikaOS_1_ee_oo_internal.inc ****     EE_ErrorHook_nested_flag = 0U;
 138:Generated_Source\PSoC5/ErikaOS_1_ee_oo_internal.inc ****   }
 139:Generated_Source\PSoC5/ErikaOS_1_ee_oo_internal.inc **** }
 140:Generated_Source\PSoC5/ErikaOS_1_ee_oo_internal.inc **** 
 141:Generated_Source\PSoC5/ErikaOS_1_ee_oo_internal.inc **** #ifndef __EE_MEMORY_PROTECTION__
 142:Generated_Source\PSoC5/ErikaOS_1_ee_oo_internal.inc **** __INLINE__ void  EE_os_notify_error_from_us(
 143:Generated_Source\PSoC5/ErikaOS_1_ee_oo_internal.inc ****   OSServiceIdType ServiceID, const EE_oo_ErrorHook_parameters * const
 144:Generated_Source\PSoC5/ErikaOS_1_ee_oo_internal.inc ****     error_parameters_ref, StatusType Error )
 145:Generated_Source\PSoC5/ErikaOS_1_ee_oo_internal.inc **** {
 146:Generated_Source\PSoC5/ErikaOS_1_ee_oo_internal.inc ****   if ( error_parameters_ref != NULL ) {
 147:Generated_Source\PSoC5/ErikaOS_1_ee_oo_internal.inc ****     register EE_FREG const flag = EE_hal_begin_nested_primitive();
 148:Generated_Source\PSoC5/ErikaOS_1_ee_oo_internal.inc ****     EE_os_notify_error(ServiceID, error_parameters_ref->param1,
 149:Generated_Source\PSoC5/ErikaOS_1_ee_oo_internal.inc ****       error_parameters_ref->param2, error_parameters_ref->param3, Error);
 150:Generated_Source\PSoC5/ErikaOS_1_ee_oo_internal.inc ****     EE_hal_end_nested_primitive(flag);
 151:Generated_Source\PSoC5/ErikaOS_1_ee_oo_internal.inc ****   }
 152:Generated_Source\PSoC5/ErikaOS_1_ee_oo_internal.inc **** }
 153:Generated_Source\PSoC5/ErikaOS_1_ee_oo_internal.inc **** #else /* !__EE_MEMORY_PROTECTION__ */
 154:Generated_Source\PSoC5/ErikaOS_1_ee_oo_internal.inc **** /* If MemMap.h support is enabled (i.e. because memory protection): use it */
 155:Generated_Source\PSoC5/ErikaOS_1_ee_oo_internal.inc **** #ifdef EE_SUPPORT_MEMMAP_H
 156:Generated_Source\PSoC5/ErikaOS_1_ee_oo_internal.inc **** /* The following code belong to ERIKA API section ee_api_text */
 157:Generated_Source\PSoC5/ErikaOS_1_ee_oo_internal.inc **** #define API_START_SEC_CODE
 158:Generated_Source\PSoC5/ErikaOS_1_ee_oo_internal.inc **** #include "MemMap.inc"
 159:Generated_Source\PSoC5/ErikaOS_1_ee_oo_internal.inc **** #endif /* EE_SUPPORT_MEMMAP_H */
 160:Generated_Source\PSoC5/ErikaOS_1_ee_oo_internal.inc **** 
 161:Generated_Source\PSoC5/ErikaOS_1_ee_oo_internal.inc **** void EE_os_notify_error_from_us( OSServiceIdType ServiceID,
 162:Generated_Source\PSoC5/ErikaOS_1_ee_oo_internal.inc ****   const EE_oo_ErrorHook_parameters * const error_parameters_ref,
 163:Generated_Source\PSoC5/ErikaOS_1_ee_oo_internal.inc ****   StatusType Error );
 164:Generated_Source\PSoC5/ErikaOS_1_ee_oo_internal.inc **** 
 165:Generated_Source\PSoC5/ErikaOS_1_ee_oo_internal.inc **** #ifdef EE_SUPPORT_MEMMAP_H
 166:Generated_Source\PSoC5/ErikaOS_1_ee_oo_internal.inc **** #define API_STOP_SEC_CODE
 167:Generated_Source\PSoC5/ErikaOS_1_ee_oo_internal.inc **** #include "MemMap.inc"
 168:Generated_Source\PSoC5/ErikaOS_1_ee_oo_internal.inc **** #endif /* EE_SUPPORT_MEMMAP_H */
 169:Generated_Source\PSoC5/ErikaOS_1_ee_oo_internal.inc **** #endif /* !__EE_MEMORY_PROTECTION__ */
 170:Generated_Source\PSoC5/ErikaOS_1_ee_oo_internal.inc **** #else /* __OO_HAS_ERRORHOOK__ */
 171:Generated_Source\PSoC5/ErikaOS_1_ee_oo_internal.inc **** 
 172:Generated_Source\PSoC5/ErikaOS_1_ee_oo_internal.inc **** /* Macro used for remapping to prevent compiler warnings on unused parameters */
 173:Generated_Source\PSoC5/ErikaOS_1_ee_oo_internal.inc **** #define EE_os_notify_error(k,j,x,y,z) EE_os_notify_error_impl(z)
 174:Generated_Source\PSoC5/ErikaOS_1_ee_oo_internal.inc **** 
 175:Generated_Source\PSoC5/ErikaOS_1_ee_oo_internal.inc **** __INLINE__ void  EE_os_notify_error_impl(StatusType Error)
 176:Generated_Source\PSoC5/ErikaOS_1_ee_oo_internal.inc **** {
 177:Generated_Source\PSoC5/ErikaOS_1_ee_oo_internal.inc ****   EE_ORTI_set_lasterror(Error);
 178:Generated_Source\PSoC5/ErikaOS_1_ee_oo_internal.inc **** }
 179:Generated_Source\PSoC5/ErikaOS_1_ee_oo_internal.inc **** 
 180:Generated_Source\PSoC5/ErikaOS_1_ee_oo_internal.inc **** /* Macro used for remapping to prevent compiler warnings on unused parameters */
 181:Generated_Source\PSoC5/ErikaOS_1_ee_oo_internal.inc **** #define EE_os_notify_error_from_us(x,y,z) EE_os_notify_error_from_us_impl(z)
 182:Generated_Source\PSoC5/ErikaOS_1_ee_oo_internal.inc **** 
 183:Generated_Source\PSoC5/ErikaOS_1_ee_oo_internal.inc **** __INLINE__ void  EE_os_notify_error_from_us_impl(
 184:Generated_Source\PSoC5/ErikaOS_1_ee_oo_internal.inc ****   StatusType Error )
 185:Generated_Source\PSoC5/ErikaOS_1_ee_oo_internal.inc **** {
 186:Generated_Source\PSoC5/ErikaOS_1_ee_oo_internal.inc ****   EE_ORTI_set_lasterror(Error);
 187:Generated_Source\PSoC5/ErikaOS_1_ee_oo_internal.inc **** }
 188:Generated_Source\PSoC5/ErikaOS_1_ee_oo_internal.inc **** #endif /* __OO_HAS_ERRORHOOK__ */
 189:Generated_Source\PSoC5/ErikaOS_1_ee_oo_internal.inc **** 
 190:Generated_Source\PSoC5/ErikaOS_1_ee_oo_internal.inc **** /*******************************************************************************
 191:Generated_Source\PSoC5/ErikaOS_1_ee_oo_internal.inc ****  *                  Kernel Critical Section Utility Macros
 192:Generated_Source\PSoC5/ErikaOS_1_ee_oo_internal.inc ****  ******************************************************************************/
 193:Generated_Source\PSoC5/ErikaOS_1_ee_oo_internal.inc **** #ifndef __EE_MEMORY_PROTECTION__
ARM GAS  C:\Users\Asus\AppData\Local\Temp\cc4NRN5T.s 			page 12


 194:Generated_Source\PSoC5/ErikaOS_1_ee_oo_internal.inc **** 
 195:Generated_Source\PSoC5/ErikaOS_1_ee_oo_internal.inc **** #define EE_OS_DECLARE_CRITICAL_SECTION()  register EE_FREG flag
 196:Generated_Source\PSoC5/ErikaOS_1_ee_oo_internal.inc **** 
 197:Generated_Source\PSoC5/ErikaOS_1_ee_oo_internal.inc **** #define EE_OS_ENTER_CRITICAL_SECTION()          \
 198:Generated_Source\PSoC5/ErikaOS_1_ee_oo_internal.inc ****   do {                                          \
 199:Generated_Source\PSoC5/ErikaOS_1_ee_oo_internal.inc ****     flag = EE_hal_begin_nested_primitive();     \
 200:Generated_Source\PSoC5/ErikaOS_1_ee_oo_internal.inc ****     EE_as_tp_active_pause_and_update_budgets(); \
 201:Generated_Source\PSoC5/ErikaOS_1_ee_oo_internal.inc ****   } while ( 0 )
 202:Generated_Source\PSoC5/ErikaOS_1_ee_oo_internal.inc **** 
 203:Generated_Source\PSoC5/ErikaOS_1_ee_oo_internal.inc **** #define EE_OS_DECLARE_AND_ENTER_CRITICAL_SECTION()  \
 204:Generated_Source\PSoC5/ErikaOS_1_ee_oo_internal.inc ****   EE_OS_DECLARE_CRITICAL_SECTION();                 \
 205:Generated_Source\PSoC5/ErikaOS_1_ee_oo_internal.inc ****   EE_OS_ENTER_CRITICAL_SECTION()
 206:Generated_Source\PSoC5/ErikaOS_1_ee_oo_internal.inc **** 
 207:Generated_Source\PSoC5/ErikaOS_1_ee_oo_internal.inc **** #define EE_OS_EXIT_CRITICAL_SECTION()             \
 208:Generated_Source\PSoC5/ErikaOS_1_ee_oo_internal.inc ****   do {                                            \
 209:Generated_Source\PSoC5/ErikaOS_1_ee_oo_internal.inc ****     EE_as_tp_active_update_budgets_and_restart(); \
 210:Generated_Source\PSoC5/ErikaOS_1_ee_oo_internal.inc ****     EE_hal_end_nested_primitive(flag);            \
 211:Generated_Source\PSoC5/ErikaOS_1_ee_oo_internal.inc ****   } while ( 0 )
 212:Generated_Source\PSoC5/ErikaOS_1_ee_oo_internal.inc **** 
 213:Generated_Source\PSoC5/ErikaOS_1_ee_oo_internal.inc **** #define EE_OS_FOREVER_CRITICAL_SECTION()          \
 214:Generated_Source\PSoC5/ErikaOS_1_ee_oo_internal.inc ****   do {                                            \
 215:Generated_Source\PSoC5/ErikaOS_1_ee_oo_internal.inc ****     EE_hal_disableIRQ();                          \
 216:Generated_Source\PSoC5/ErikaOS_1_ee_oo_internal.inc ****     EE_as_tp_active_pause_and_update_budgets();   \
 217:Generated_Source\PSoC5/ErikaOS_1_ee_oo_internal.inc ****   } while ( 0 )
 218:Generated_Source\PSoC5/ErikaOS_1_ee_oo_internal.inc **** 
 219:Generated_Source\PSoC5/ErikaOS_1_ee_oo_internal.inc **** #else /* !__EE_MEMORY_PROTECTION__ */
 220:Generated_Source\PSoC5/ErikaOS_1_ee_oo_internal.inc **** /* TP in any case have to be handled in Service Implementation. Syscall
 221:Generated_Source\PSoC5/ErikaOS_1_ee_oo_internal.inc ****    mechanism can be implement in C language and, in that case, a function call
 222:Generated_Source\PSoC5/ErikaOS_1_ee_oo_internal.inc ****    cannot be done in syscall handler. */
 223:Generated_Source\PSoC5/ErikaOS_1_ee_oo_internal.inc **** #define EE_OS_DECLARE_CRITICAL_SECTION()            ((void)0)
 224:Generated_Source\PSoC5/ErikaOS_1_ee_oo_internal.inc **** #define EE_OS_ENTER_CRITICAL_SECTION()              \
 225:Generated_Source\PSoC5/ErikaOS_1_ee_oo_internal.inc ****   EE_as_tp_active_pause_and_update_budgets()
 226:Generated_Source\PSoC5/ErikaOS_1_ee_oo_internal.inc **** #define EE_OS_DECLARE_AND_ENTER_CRITICAL_SECTION()  \
 227:Generated_Source\PSoC5/ErikaOS_1_ee_oo_internal.inc ****   EE_as_tp_active_pause_and_update_budgets()
 228:Generated_Source\PSoC5/ErikaOS_1_ee_oo_internal.inc **** #define EE_OS_EXIT_CRITICAL_SECTION()               \
 229:Generated_Source\PSoC5/ErikaOS_1_ee_oo_internal.inc ****   EE_as_tp_active_update_budgets_and_restart()
 230:Generated_Source\PSoC5/ErikaOS_1_ee_oo_internal.inc **** #define EE_OS_FOREVER_CRITICAL_SECTION()			\
 231:Generated_Source\PSoC5/ErikaOS_1_ee_oo_internal.inc ****   EE_as_tp_active_pause_and_update_budgets()
 232:Generated_Source\PSoC5/ErikaOS_1_ee_oo_internal.inc **** #endif /* !__EE_MEMORY_PROTECTION__ */
 233:Generated_Source\PSoC5/ErikaOS_1_ee_oo_internal.inc **** 
 234:Generated_Source\PSoC5/ErikaOS_1_ee_oo_internal.inc **** /* return the first stacked task (the running task) without extracting it 
 235:Generated_Source\PSoC5/ErikaOS_1_ee_oo_internal.inc ****    we suppose that this function can be called ALSO at interrupt ENABLED!!!
 236:Generated_Source\PSoC5/ErikaOS_1_ee_oo_internal.inc ****    (see WaitEvent.c) */
 237:Generated_Source\PSoC5/ErikaOS_1_ee_oo_internal.inc **** #ifndef __PRIVATE_STK_QUERYFIRST__
 238:Generated_Source\PSoC5/ErikaOS_1_ee_oo_internal.inc **** __INLINE__ EE_TID  EE_stk_queryfirst(void)
 239:Generated_Source\PSoC5/ErikaOS_1_ee_oo_internal.inc **** {
 240:Generated_Source\PSoC5/ErikaOS_1_ee_oo_internal.inc ****     return EE_stkfirst;  
 241:Generated_Source\PSoC5/ErikaOS_1_ee_oo_internal.inc **** }
 242:Generated_Source\PSoC5/ErikaOS_1_ee_oo_internal.inc **** #endif /* __PRIVATE_STK_QUERYFIRST__ */
 243:Generated_Source\PSoC5/ErikaOS_1_ee_oo_internal.inc **** 
 244:Generated_Source\PSoC5/ErikaOS_1_ee_oo_internal.inc **** /* This function notifies a tick to a hardware counter.
 245:Generated_Source\PSoC5/ErikaOS_1_ee_oo_internal.inc ****    That is, the counter is
 246:Generated_Source\PSoC5/ErikaOS_1_ee_oo_internal.inc ****    incremented by 1.  It must be called into an ISR2 or into a
 247:Generated_Source\PSoC5/ErikaOS_1_ee_oo_internal.inc ****    task notify that the event linked to the counter occurred.
 248:Generated_Source\PSoC5/ErikaOS_1_ee_oo_internal.inc **** 
 249:Generated_Source\PSoC5/ErikaOS_1_ee_oo_internal.inc ****    The function will also implement the notification of expired alarms
 250:Generated_Source\PSoC5/ErikaOS_1_ee_oo_internal.inc ****    (calling an alarm callback, setting an event, or activating a
ARM GAS  C:\Users\Asus\AppData\Local\Temp\cc4NRN5T.s 			page 13


 251:Generated_Source\PSoC5/ErikaOS_1_ee_oo_internal.inc ****    task).
 252:Generated_Source\PSoC5/ErikaOS_1_ee_oo_internal.inc **** 
 253:Generated_Source\PSoC5/ErikaOS_1_ee_oo_internal.inc ****    The function can be considered atomic, and NO RESCHEDULING will
 254:Generated_Source\PSoC5/ErikaOS_1_ee_oo_internal.inc ****    take place after the execution of this function. To implement the
 255:Generated_Source\PSoC5/ErikaOS_1_ee_oo_internal.inc ****    rescheduling at task level, you can use the Schedule() or the
 256:Generated_Source\PSoC5/ErikaOS_1_ee_oo_internal.inc ****    ForceSchedule() functions just after this notification.
 257:Generated_Source\PSoC5/ErikaOS_1_ee_oo_internal.inc **** 
 258:Generated_Source\PSoC5/ErikaOS_1_ee_oo_internal.inc ****    see also internal.h
 259:Generated_Source\PSoC5/ErikaOS_1_ee_oo_internal.inc **** */
 260:Generated_Source\PSoC5/ErikaOS_1_ee_oo_internal.inc **** #if (!defined(__OO_NO_ALARMS__)) || (defined(EE_AS_SCHEDULETABLES__))
 261:Generated_Source\PSoC5/ErikaOS_1_ee_oo_internal.inc **** 
 262:Generated_Source\PSoC5/ErikaOS_1_ee_oo_internal.inc **** StatusType EE_oo_IncrementCounterHardware(CounterType CounterID);
 263:Generated_Source\PSoC5/ErikaOS_1_ee_oo_internal.inc **** void       EE_oo_IncrementCounterImplementation(CounterType CounterID);
 264:Generated_Source\PSoC5/ErikaOS_1_ee_oo_internal.inc **** 
 265:Generated_Source\PSoC5/ErikaOS_1_ee_oo_internal.inc **** /* kernel internal API */
 266:Generated_Source\PSoC5/ErikaOS_1_ee_oo_internal.inc **** #define IncrementCounterHardware EE_oo_IncrementCounterHardware
 267:Generated_Source\PSoC5/ErikaOS_1_ee_oo_internal.inc **** 
 268:Generated_Source\PSoC5/ErikaOS_1_ee_oo_internal.inc **** /* Helper function (0 as increment means next tick)*/
 269:Generated_Source\PSoC5/ErikaOS_1_ee_oo_internal.inc **** void EE_oo_counter_object_insert( CounterObjectType ObjectID, TickType
 270:Generated_Source\PSoC5/ErikaOS_1_ee_oo_internal.inc ****   increment );
 271:Generated_Source\PSoC5/ErikaOS_1_ee_oo_internal.inc **** 
 272:Generated_Source\PSoC5/ErikaOS_1_ee_oo_internal.inc **** #if defined (EE_COUNTER_OBJECTS_ROM_SIZE)
 273:Generated_Source\PSoC5/ErikaOS_1_ee_oo_internal.inc **** #if (EE_COUNTER_OBJECTS_ROM_SIZE > 0)
 274:Generated_Source\PSoC5/ErikaOS_1_ee_oo_internal.inc **** __INLINE__ void 
 275:Generated_Source\PSoC5/ErikaOS_1_ee_oo_internal.inc ****   EE_oo_handle_abs_counter_object_insertion( CounterObjectType ObjectID,
 276:Generated_Source\PSoC5/ErikaOS_1_ee_oo_internal.inc ****     TickType absstart, TickType abscycle ) 
 277:Generated_Source\PSoC5/ErikaOS_1_ee_oo_internal.inc **** {
 278:Generated_Source\PSoC5/ErikaOS_1_ee_oo_internal.inc ****   /* These are used to evaluate alarm time handling wrap around */
 279:Generated_Source\PSoC5/ErikaOS_1_ee_oo_internal.inc ****   register TickType           alarm_time;
 280:Generated_Source\PSoC5/ErikaOS_1_ee_oo_internal.inc ****   register TickType           start_rel;
 281:Generated_Source\PSoC5/ErikaOS_1_ee_oo_internal.inc ****   register CounterType const  cnt = EE_oo_counter_object_ROM[ObjectID].c;
 282:Generated_Source\PSoC5/ErikaOS_1_ee_oo_internal.inc **** 
 283:Generated_Source\PSoC5/ErikaOS_1_ee_oo_internal.inc ****   /* first, use the alarm and set the cycle */
 284:Generated_Source\PSoC5/ErikaOS_1_ee_oo_internal.inc ****   EE_oo_counter_object_RAM[ObjectID].used = EE_TRUE;
 285:Generated_Source\PSoC5/ErikaOS_1_ee_oo_internal.inc ****   EE_oo_counter_object_RAM[ObjectID].cntcycle = abscycle;
 286:Generated_Source\PSoC5/ErikaOS_1_ee_oo_internal.inc **** 
 287:Generated_Source\PSoC5/ErikaOS_1_ee_oo_internal.inc ****   /* Handling wrap around for alarm time */
 288:Generated_Source\PSoC5/ErikaOS_1_ee_oo_internal.inc ****   start_rel = absstart - EE_counter_RAM[cnt].value;
 289:Generated_Source\PSoC5/ErikaOS_1_ee_oo_internal.inc **** 
 290:Generated_Source\PSoC5/ErikaOS_1_ee_oo_internal.inc ****   /*  When will be here start value will be already checked against counter
 291:Generated_Source\PSoC5/ErikaOS_1_ee_oo_internal.inc ****       max allowed value */
 292:Generated_Source\PSoC5/ErikaOS_1_ee_oo_internal.inc ****   if ( start_rel == 0U ) {
 293:Generated_Source\PSoC5/ErikaOS_1_ee_oo_internal.inc ****     /* start_rel == 0U -> the alarm should start now or next time that counter
 294:Generated_Source\PSoC5/ErikaOS_1_ee_oo_internal.inc ****        has this value. Has been chosen the second option */
 295:Generated_Source\PSoC5/ErikaOS_1_ee_oo_internal.inc ****     alarm_time = EE_counter_ROM[cnt].maxallowedvalue;
 296:Generated_Source\PSoC5/ErikaOS_1_ee_oo_internal.inc ****   } else if ( start_rel < EE_TYPETICK_HALF_VALUE ) {
 297:Generated_Source\PSoC5/ErikaOS_1_ee_oo_internal.inc ****     /* Normal behavior */
 298:Generated_Source\PSoC5/ErikaOS_1_ee_oo_internal.inc ****     alarm_time = start_rel - 1U;
 299:Generated_Source\PSoC5/ErikaOS_1_ee_oo_internal.inc ****   } else {
 300:Generated_Source\PSoC5/ErikaOS_1_ee_oo_internal.inc ****     /* start_rel is "negative" in this case (unsigned wrap around do the
 301:Generated_Source\PSoC5/ErikaOS_1_ee_oo_internal.inc ****        work) */
 302:Generated_Source\PSoC5/ErikaOS_1_ee_oo_internal.inc ****     alarm_time = EE_counter_ROM[cnt].maxallowedvalue + start_rel;
 303:Generated_Source\PSoC5/ErikaOS_1_ee_oo_internal.inc ****   }
 304:Generated_Source\PSoC5/ErikaOS_1_ee_oo_internal.inc **** 
 305:Generated_Source\PSoC5/ErikaOS_1_ee_oo_internal.inc ****   /* Set alarm with a relative amount of time (alarm_time already is a "0 as
 306:Generated_Source\PSoC5/ErikaOS_1_ee_oo_internal.inc ****      next tick" value)*/
 307:Generated_Source\PSoC5/ErikaOS_1_ee_oo_internal.inc ****   EE_oo_counter_object_insert(ObjectID, alarm_time);
ARM GAS  C:\Users\Asus\AppData\Local\Temp\cc4NRN5T.s 			page 14


 308:Generated_Source\PSoC5/ErikaOS_1_ee_oo_internal.inc **** }
 309:Generated_Source\PSoC5/ErikaOS_1_ee_oo_internal.inc **** 
 310:Generated_Source\PSoC5/ErikaOS_1_ee_oo_internal.inc **** __INLINE__ void 
 311:Generated_Source\PSoC5/ErikaOS_1_ee_oo_internal.inc ****   EE_oo_handle_rel_counter_object_insertion( CounterObjectType ObjectID,
 312:Generated_Source\PSoC5/ErikaOS_1_ee_oo_internal.inc ****     TickType increment, TickType relcycle )
 313:Generated_Source\PSoC5/ErikaOS_1_ee_oo_internal.inc **** {
 314:Generated_Source\PSoC5/ErikaOS_1_ee_oo_internal.inc **** 
 315:Generated_Source\PSoC5/ErikaOS_1_ee_oo_internal.inc ****   /* first, use the alarm and set the cycle */
 316:Generated_Source\PSoC5/ErikaOS_1_ee_oo_internal.inc ****   EE_oo_counter_object_RAM[ObjectID].used = EE_TRUE;
 317:Generated_Source\PSoC5/ErikaOS_1_ee_oo_internal.inc ****   EE_oo_counter_object_RAM[ObjectID].cntcycle = relcycle;
 318:Generated_Source\PSoC5/ErikaOS_1_ee_oo_internal.inc **** 
 319:Generated_Source\PSoC5/ErikaOS_1_ee_oo_internal.inc ****   /* then, insert the task into the delta queue with an increment equal
 320:Generated_Source\PSoC5/ErikaOS_1_ee_oo_internal.inc ****      (increment - 1U) increment equal to 0 means next tick */
 321:Generated_Source\PSoC5/ErikaOS_1_ee_oo_internal.inc ****   EE_oo_counter_object_insert(ObjectID, (increment - 1U));
 322:Generated_Source\PSoC5/ErikaOS_1_ee_oo_internal.inc **** }
 323:Generated_Source\PSoC5/ErikaOS_1_ee_oo_internal.inc **** 
 324:Generated_Source\PSoC5/ErikaOS_1_ee_oo_internal.inc **** /* cancellation */
 325:Generated_Source\PSoC5/ErikaOS_1_ee_oo_internal.inc **** __INLINE__ void  EE_oo_handle_counter_object_cancellation(
 326:Generated_Source\PSoC5/ErikaOS_1_ee_oo_internal.inc ****   CounterObjectType ObjectID )
 327:Generated_Source\PSoC5/ErikaOS_1_ee_oo_internal.inc **** {
 328:Generated_Source\PSoC5/ErikaOS_1_ee_oo_internal.inc ****   register CounterObjectType current, previous;
 329:Generated_Source\PSoC5/ErikaOS_1_ee_oo_internal.inc ****   register CounterType       ct      = EE_oo_counter_object_ROM[ObjectID].c;
 330:Generated_Source\PSoC5/ErikaOS_1_ee_oo_internal.inc **** 
 331:Generated_Source\PSoC5/ErikaOS_1_ee_oo_internal.inc ****   /* to compute the relative value in ticks, we have to follow the counter
 332:Generated_Source\PSoC5/ErikaOS_1_ee_oo_internal.inc ****      delay chain */
 333:Generated_Source\PSoC5/ErikaOS_1_ee_oo_internal.inc ****   current = EE_counter_RAM[ct].first;
 334:Generated_Source\PSoC5/ErikaOS_1_ee_oo_internal.inc **** 
 335:Generated_Source\PSoC5/ErikaOS_1_ee_oo_internal.inc ****   if ( current == ObjectID ) {
 336:Generated_Source\PSoC5/ErikaOS_1_ee_oo_internal.inc ****     /* the alarm is the first one in the delta queue */
 337:Generated_Source\PSoC5/ErikaOS_1_ee_oo_internal.inc ****     EE_counter_RAM[ct].first = EE_oo_counter_object_RAM[ObjectID].next;
 338:Generated_Source\PSoC5/ErikaOS_1_ee_oo_internal.inc ****   } else {
 339:Generated_Source\PSoC5/ErikaOS_1_ee_oo_internal.inc ****     /* the alarm is not the first one in the delta queue */
 340:Generated_Source\PSoC5/ErikaOS_1_ee_oo_internal.inc ****     /* Find it */
 341:Generated_Source\PSoC5/ErikaOS_1_ee_oo_internal.inc ****     do {
 342:Generated_Source\PSoC5/ErikaOS_1_ee_oo_internal.inc ****       previous = current;
 343:Generated_Source\PSoC5/ErikaOS_1_ee_oo_internal.inc ****       current = EE_oo_counter_object_RAM[current].next;
 344:Generated_Source\PSoC5/ErikaOS_1_ee_oo_internal.inc ****     } while ( current != ObjectID );
 345:Generated_Source\PSoC5/ErikaOS_1_ee_oo_internal.inc ****     /* remove it from the queue */
 346:Generated_Source\PSoC5/ErikaOS_1_ee_oo_internal.inc ****     EE_oo_counter_object_RAM[previous].next =
 347:Generated_Source\PSoC5/ErikaOS_1_ee_oo_internal.inc ****       EE_oo_counter_object_RAM[ObjectID].next;
 348:Generated_Source\PSoC5/ErikaOS_1_ee_oo_internal.inc ****   }
 349:Generated_Source\PSoC5/ErikaOS_1_ee_oo_internal.inc ****   /* Adjust delta value */
 350:Generated_Source\PSoC5/ErikaOS_1_ee_oo_internal.inc ****   if ( EE_oo_counter_object_RAM[ObjectID].next != INVALID_COUNTER_OBJECT ) {
 351:Generated_Source\PSoC5/ErikaOS_1_ee_oo_internal.inc ****     EE_oo_counter_object_RAM[EE_oo_counter_object_RAM[ObjectID].next].delta +=
 352:Generated_Source\PSoC5/ErikaOS_1_ee_oo_internal.inc ****       EE_oo_counter_object_RAM[ObjectID].delta;
 353:Generated_Source\PSoC5/ErikaOS_1_ee_oo_internal.inc ****   }
 354:Generated_Source\PSoC5/ErikaOS_1_ee_oo_internal.inc **** 
 355:Generated_Source\PSoC5/ErikaOS_1_ee_oo_internal.inc ****   EE_oo_counter_object_RAM[ObjectID].used = EE_FALSE;
 356:Generated_Source\PSoC5/ErikaOS_1_ee_oo_internal.inc **** }
 357:Generated_Source\PSoC5/ErikaOS_1_ee_oo_internal.inc **** #endif /* EE_COUNTER_OBJECTS_ROM_SIZE */
 358:Generated_Source\PSoC5/ErikaOS_1_ee_oo_internal.inc **** #endif /* EE_COUNTER_OBJECTS_ROM_SIZE > 0 */
 359:Generated_Source\PSoC5/ErikaOS_1_ee_oo_internal.inc **** #endif /* !__OO_NO_ALARMS__ || EE_AS_SCHEDULETABLES__ */
 360:Generated_Source\PSoC5/ErikaOS_1_ee_oo_internal.inc **** 
 361:Generated_Source\PSoC5/ErikaOS_1_ee_oo_internal.inc **** /*************************************************************************
 362:Generated_Source\PSoC5/ErikaOS_1_ee_oo_internal.inc ****  HAL extensions
 363:Generated_Source\PSoC5/ErikaOS_1_ee_oo_internal.inc ****  *************************************************************************/
 364:Generated_Source\PSoC5/ErikaOS_1_ee_oo_internal.inc **** 
ARM GAS  C:\Users\Asus\AppData\Local\Temp\cc4NRN5T.s 			page 15


 365:Generated_Source\PSoC5/ErikaOS_1_ee_oo_internal.inc ****  /* these are the functions that have been inserted to support tha OO layer
 366:Generated_Source\PSoC5/ErikaOS_1_ee_oo_internal.inc ****     under the EE HAL.
 367:Generated_Source\PSoC5/ErikaOS_1_ee_oo_internal.inc ****     
 368:Generated_Source\PSoC5/ErikaOS_1_ee_oo_internal.inc ****     - all the functions for interrupt handling (13.3)
 369:Generated_Source\PSoC5/ErikaOS_1_ee_oo_internal.inc ****     - EE_hal_begin_nested_primitive
 370:Generated_Source\PSoC5/ErikaOS_1_ee_oo_internal.inc ****       EE_hal_end_nested_primitive 
 371:Generated_Source\PSoC5/ErikaOS_1_ee_oo_internal.inc ****       (for primitives that can be called both into a task and into an ISR2
 372:Generated_Source\PSoC5/ErikaOS_1_ee_oo_internal.inc ****     - EE_hal_terminate_task(EE_TID t)
 373:Generated_Source\PSoC5/ErikaOS_1_ee_oo_internal.inc ****     - EE_hal_terminate_savestk(EE_TID t)
 374:Generated_Source\PSoC5/ErikaOS_1_ee_oo_internal.inc ****       EE_oo_preemption_point() execute task preemption if is needed
 375:Generated_Source\PSoC5/ErikaOS_1_ee_oo_internal.inc ****     - EE_oo_shutdown() if not redefined it does for(;;);
 376:Generated_Source\PSoC5/ErikaOS_1_ee_oo_internal.inc ****     - All the alarm constants listed in 13.6.4
 377:Generated_Source\PSoC5/ErikaOS_1_ee_oo_internal.inc ****  */
 378:Generated_Source\PSoC5/ErikaOS_1_ee_oo_internal.inc **** 
 379:Generated_Source\PSoC5/ErikaOS_1_ee_oo_internal.inc **** 
 380:Generated_Source\PSoC5/ErikaOS_1_ee_oo_internal.inc **** /***************************************************************************
 381:Generated_Source\PSoC5/ErikaOS_1_ee_oo_internal.inc ****  * Internal data structures and functions
 382:Generated_Source\PSoC5/ErikaOS_1_ee_oo_internal.inc ****  ***************************************************************************/
 383:Generated_Source\PSoC5/ErikaOS_1_ee_oo_internal.inc **** 
 384:Generated_Source\PSoC5/ErikaOS_1_ee_oo_internal.inc **** /*
 385:Generated_Source\PSoC5/ErikaOS_1_ee_oo_internal.inc ****     Call Hooks utilities
 386:Generated_Source\PSoC5/ErikaOS_1_ee_oo_internal.inc ****  */
 387:Generated_Source\PSoC5/ErikaOS_1_ee_oo_internal.inc **** 
 388:Generated_Source\PSoC5/ErikaOS_1_ee_oo_internal.inc **** #ifdef __OO_HAS_PRETASKHOOK__
 389:Generated_Source\PSoC5/ErikaOS_1_ee_oo_internal.inc **** __INLINE__ void  EE_oo_call_PreTaskHook(void)
 390:Generated_Source\PSoC5/ErikaOS_1_ee_oo_internal.inc **** {
 391:Generated_Source\PSoC5/ErikaOS_1_ee_oo_internal.inc ****   EE_as_set_execution_context( PreTaskHook_Context );
 392:Generated_Source\PSoC5/ErikaOS_1_ee_oo_internal.inc ****   /* Set the execution context on TASK */
 393:Generated_Source\PSoC5/ErikaOS_1_ee_oo_internal.inc ****   EE_as_set_execution_context( TASK_Context );
 394:Generated_Source\PSoC5/ErikaOS_1_ee_oo_internal.inc **** }
 395:Generated_Source\PSoC5/ErikaOS_1_ee_oo_internal.inc **** 
 396:Generated_Source\PSoC5/ErikaOS_1_ee_oo_internal.inc **** #else /* __OO_HAS_PRETASKHOOK__ */
 397:Generated_Source\PSoC5/ErikaOS_1_ee_oo_internal.inc **** __INLINE__ void  EE_oo_call_PreTaskHook(void)
 398:Generated_Source\PSoC5/ErikaOS_1_ee_oo_internal.inc **** {
 399:Generated_Source\PSoC5/ErikaOS_1_ee_oo_internal.inc ****   /* Set the execution context on TASK */
 400:Generated_Source\PSoC5/ErikaOS_1_ee_oo_internal.inc ****   EE_as_set_execution_context( TASK_Context );
 401:Generated_Source\PSoC5/ErikaOS_1_ee_oo_internal.inc **** }
 402:Generated_Source\PSoC5/ErikaOS_1_ee_oo_internal.inc **** #endif /* __OO_HAS_PRETASKHOOK__ */
 403:Generated_Source\PSoC5/ErikaOS_1_ee_oo_internal.inc **** 
 404:Generated_Source\PSoC5/ErikaOS_1_ee_oo_internal.inc **** #if defined(__OO_HAS_POSTTASKHOOK__)
 405:Generated_Source\PSoC5/ErikaOS_1_ee_oo_internal.inc **** __INLINE__ void  EE_oo_call_PostTaskHook(void)
 406:Generated_Source\PSoC5/ErikaOS_1_ee_oo_internal.inc **** {
 407:Generated_Source\PSoC5/ErikaOS_1_ee_oo_internal.inc ****   EE_as_set_execution_context( PostTaskHook_Context );
 408:Generated_Source\PSoC5/ErikaOS_1_ee_oo_internal.inc **** }
 409:Generated_Source\PSoC5/ErikaOS_1_ee_oo_internal.inc **** #else /* __OO_HAS_POSTTASKHOOK__ */
 410:Generated_Source\PSoC5/ErikaOS_1_ee_oo_internal.inc **** __INLINE__ void  EE_oo_call_PostTaskHook(void) {}
 411:Generated_Source\PSoC5/ErikaOS_1_ee_oo_internal.inc **** #endif /* __OO_HAS_POSTTASKHOOK__ */
 412:Generated_Source\PSoC5/ErikaOS_1_ee_oo_internal.inc **** 
 413:Generated_Source\PSoC5/ErikaOS_1_ee_oo_internal.inc **** 
 414:Generated_Source\PSoC5/ErikaOS_1_ee_oo_internal.inc **** /* StartOS Flag defined inside ee_startos.c to check that the system has correctly started */
 415:Generated_Source\PSoC5/ErikaOS_1_ee_oo_internal.inc **** extern EE_UREG volatile EE_oo_started;
 416:Generated_Source\PSoC5/ErikaOS_1_ee_oo_internal.inc **** 
 417:Generated_Source\PSoC5/ErikaOS_1_ee_oo_internal.inc **** 
 418:Generated_Source\PSoC5/ErikaOS_1_ee_oo_internal.inc **** /* Used to check if we are in disable interrupt error. It return
 419:Generated_Source\PSoC5/ErikaOS_1_ee_oo_internal.inc ****    'signed register type' because usually it is native integer type. */
 420:Generated_Source\PSoC5/ErikaOS_1_ee_oo_internal.inc **** __INLINE__ EE_TYPEBOOL  EE_oo_check_disableint_error(void)
 421:Generated_Source\PSoC5/ErikaOS_1_ee_oo_internal.inc **** {
ARM GAS  C:\Users\Asus\AppData\Local\Temp\cc4NRN5T.s 			page 16


 422:Generated_Source\PSoC5/ErikaOS_1_ee_oo_internal.inc ****   return ( EE_oo_IRQ_disable_count != 0U );
 423:Generated_Source\PSoC5/ErikaOS_1_ee_oo_internal.inc **** }
 424:Generated_Source\PSoC5/ErikaOS_1_ee_oo_internal.inc **** 
 425:Generated_Source\PSoC5/ErikaOS_1_ee_oo_internal.inc **** #if (defined(__OO_BCC2__)) || (defined(__OO_ECC2__))
 426:Generated_Source\PSoC5/ErikaOS_1_ee_oo_internal.inc **** /* A lookup table to speedup ready queue handling */
 427:Generated_Source\PSoC5/ErikaOS_1_ee_oo_internal.inc **** extern const EE_INT8 EE_rq_lookup[256];
 428:Generated_Source\PSoC5/ErikaOS_1_ee_oo_internal.inc **** /* Lookup functions */
 429:Generated_Source\PSoC5/ErikaOS_1_ee_oo_internal.inc **** #if defined(__OO_ECC2__)
 430:Generated_Source\PSoC5/ErikaOS_1_ee_oo_internal.inc **** __INLINE__ EE_INT8  EE_rq_get_first_not_empty_queue( void )
 431:Generated_Source\PSoC5/ErikaOS_1_ee_oo_internal.inc **** {
 432:Generated_Source\PSoC5/ErikaOS_1_ee_oo_internal.inc ****   /* Lookup at bits 15-9 */
 433:Generated_Source\PSoC5/ErikaOS_1_ee_oo_internal.inc ****   EE_INT8 x = EE_rq_lookup[(EE_rq_bitmask & 0xFF00U) >> 8];
 434:Generated_Source\PSoC5/ErikaOS_1_ee_oo_internal.inc ****   if (x == (EE_INT8)-1) {
 435:Generated_Source\PSoC5/ErikaOS_1_ee_oo_internal.inc ****     x = EE_rq_lookup[EE_rq_bitmask];
 436:Generated_Source\PSoC5/ErikaOS_1_ee_oo_internal.inc ****   } else {
 437:Generated_Source\PSoC5/ErikaOS_1_ee_oo_internal.inc ****     x += (EE_INT8)8;
 438:Generated_Source\PSoC5/ErikaOS_1_ee_oo_internal.inc ****   }
 439:Generated_Source\PSoC5/ErikaOS_1_ee_oo_internal.inc ****   return x;
 440:Generated_Source\PSoC5/ErikaOS_1_ee_oo_internal.inc **** }
 441:Generated_Source\PSoC5/ErikaOS_1_ee_oo_internal.inc **** #else /* __OO_ECC2__ */
 442:Generated_Source\PSoC5/ErikaOS_1_ee_oo_internal.inc **** __INLINE__ EE_INT8  EE_rq_get_first_not_empty_queue( void )
 443:Generated_Source\PSoC5/ErikaOS_1_ee_oo_internal.inc **** {
 444:Generated_Source\PSoC5/ErikaOS_1_ee_oo_internal.inc ****   return EE_rq_lookup[EE_rq_bitmask];
 445:Generated_Source\PSoC5/ErikaOS_1_ee_oo_internal.inc **** }
 446:Generated_Source\PSoC5/ErikaOS_1_ee_oo_internal.inc **** #endif /* __OO_ECC2__ */
 447:Generated_Source\PSoC5/ErikaOS_1_ee_oo_internal.inc **** #endif /* __OO_BCC2__ || __OO_ECC2__ */
 448:Generated_Source\PSoC5/ErikaOS_1_ee_oo_internal.inc **** 
 449:Generated_Source\PSoC5/ErikaOS_1_ee_oo_internal.inc **** /* Internal Queue management functions */
 450:Generated_Source\PSoC5/ErikaOS_1_ee_oo_internal.inc **** 
 451:Generated_Source\PSoC5/ErikaOS_1_ee_oo_internal.inc **** /* return the first ready task without extracting it */
 452:Generated_Source\PSoC5/ErikaOS_1_ee_oo_internal.inc **** #ifndef __PRIVATE_RQ_QUERYFIRST__
 453:Generated_Source\PSoC5/ErikaOS_1_ee_oo_internal.inc **** #if (defined(__OO_BCC1__)) || (defined(__OO_ECC1__))
 454:Generated_Source\PSoC5/ErikaOS_1_ee_oo_internal.inc **** __INLINE__ EE_TID  EE_rq_queryfirst(void)
 455:Generated_Source\PSoC5/ErikaOS_1_ee_oo_internal.inc **** { return EE_rq_first; }
 456:Generated_Source\PSoC5/ErikaOS_1_ee_oo_internal.inc **** #endif
 457:Generated_Source\PSoC5/ErikaOS_1_ee_oo_internal.inc **** 
 458:Generated_Source\PSoC5/ErikaOS_1_ee_oo_internal.inc **** #if (defined(__OO_BCC2__)) || (defined(__OO_ECC2__))
 459:Generated_Source\PSoC5/ErikaOS_1_ee_oo_internal.inc **** EE_TID EE_rq_queryfirst(void);
 460:Generated_Source\PSoC5/ErikaOS_1_ee_oo_internal.inc **** #endif
 461:Generated_Source\PSoC5/ErikaOS_1_ee_oo_internal.inc **** #endif
 462:Generated_Source\PSoC5/ErikaOS_1_ee_oo_internal.inc **** 
 463:Generated_Source\PSoC5/ErikaOS_1_ee_oo_internal.inc **** /* __INLINE__ EE_TID  EE_stk_queryfirst(void) in intfunc.h */
 464:Generated_Source\PSoC5/ErikaOS_1_ee_oo_internal.inc **** 
 465:Generated_Source\PSoC5/ErikaOS_1_ee_oo_internal.inc **** /* Extract the RUNNING task from the stack, and return the new head */
 466:Generated_Source\PSoC5/ErikaOS_1_ee_oo_internal.inc **** #ifndef __PRIVATE_STK_GETFIRST__
 467:Generated_Source\PSoC5/ErikaOS_1_ee_oo_internal.inc **** __INLINE__ EE_TID  EE_stk_getfirst(void)
 468:Generated_Source\PSoC5/ErikaOS_1_ee_oo_internal.inc **** {
 469:Generated_Source\PSoC5/ErikaOS_1_ee_oo_internal.inc ****   return (EE_stkfirst = EE_th_next[EE_stkfirst]);
 470:Generated_Source\PSoC5/ErikaOS_1_ee_oo_internal.inc **** }
 471:Generated_Source\PSoC5/ErikaOS_1_ee_oo_internal.inc **** #endif /* __PRIVATE_STK_GETFIRST__ */
 472:Generated_Source\PSoC5/ErikaOS_1_ee_oo_internal.inc **** 
 473:Generated_Source\PSoC5/ErikaOS_1_ee_oo_internal.inc **** /* insert a task into the stack data structures */
 474:Generated_Source\PSoC5/ErikaOS_1_ee_oo_internal.inc **** #ifndef __PRIVATE_STK_INSERTFIRST__
 475:Generated_Source\PSoC5/ErikaOS_1_ee_oo_internal.inc **** __INLINE__ void  EE_stk_insertfirst(EE_TID t)
 476:Generated_Source\PSoC5/ErikaOS_1_ee_oo_internal.inc **** {
 477:Generated_Source\PSoC5/ErikaOS_1_ee_oo_internal.inc ****     EE_th_next[t] = EE_stkfirst;
 478:Generated_Source\PSoC5/ErikaOS_1_ee_oo_internal.inc ****     EE_stkfirst = t;
ARM GAS  C:\Users\Asus\AppData\Local\Temp\cc4NRN5T.s 			page 17


 479:Generated_Source\PSoC5/ErikaOS_1_ee_oo_internal.inc **** }
 480:Generated_Source\PSoC5/ErikaOS_1_ee_oo_internal.inc **** #endif
 481:Generated_Source\PSoC5/ErikaOS_1_ee_oo_internal.inc **** 
 482:Generated_Source\PSoC5/ErikaOS_1_ee_oo_internal.inc **** /* insert a task into the ready queue */
 483:Generated_Source\PSoC5/ErikaOS_1_ee_oo_internal.inc **** #ifndef __PRIVATE_RQ_INSERT__
 484:Generated_Source\PSoC5/ErikaOS_1_ee_oo_internal.inc **** void EE_rq_insert(EE_TID t);
 485:Generated_Source\PSoC5/ErikaOS_1_ee_oo_internal.inc **** #endif
 486:Generated_Source\PSoC5/ErikaOS_1_ee_oo_internal.inc **** 
 487:Generated_Source\PSoC5/ErikaOS_1_ee_oo_internal.inc **** /* put the first ready task into the stack */
 488:Generated_Source\PSoC5/ErikaOS_1_ee_oo_internal.inc **** #ifndef __PRIVATE_RQ2STK_EXCHANGE__
 489:Generated_Source\PSoC5/ErikaOS_1_ee_oo_internal.inc **** EE_TID EE_rq2stk_exchange(void);
 490:Generated_Source\PSoC5/ErikaOS_1_ee_oo_internal.inc **** #endif
 491:Generated_Source\PSoC5/ErikaOS_1_ee_oo_internal.inc **** 
 492:Generated_Source\PSoC5/ErikaOS_1_ee_oo_internal.inc **** #ifndef __OO_NO_RESOURCES__
 493:Generated_Source\PSoC5/ErikaOS_1_ee_oo_internal.inc **** /*
 494:Generated_Source\PSoC5/ErikaOS_1_ee_oo_internal.inc ****     Method to release all resources locked by a Thread,
 495:Generated_Source\PSoC5/ErikaOS_1_ee_oo_internal.inc ****     used to fulfill AS requirement OS070
 496:Generated_Source\PSoC5/ErikaOS_1_ee_oo_internal.inc ****  */
 497:Generated_Source\PSoC5/ErikaOS_1_ee_oo_internal.inc **** #if ((!defined(__OO_EXTENDED_STATUS__)) && \
 498:Generated_Source\PSoC5/ErikaOS_1_ee_oo_internal.inc ****     (!defined(__PRIVATE_RELEASEALLRESOURCE__))) && \
 499:Generated_Source\PSoC5/ErikaOS_1_ee_oo_internal.inc ****     (!defined(__OO_ISR2_RESOURCES__))
 500:Generated_Source\PSoC5/ErikaOS_1_ee_oo_internal.inc **** __INLINE__ void  EE_oo_release_all_resources(EE_TID tid)
 501:Generated_Source\PSoC5/ErikaOS_1_ee_oo_internal.inc **** {
 502:Generated_Source\PSoC5/ErikaOS_1_ee_oo_internal.inc ****   /* release the internal resource. a EE_TYPEPRIO is a bit mask with only one
 503:Generated_Source\PSoC5/ErikaOS_1_ee_oo_internal.inc ****      bit set to one.
 504:Generated_Source\PSoC5/ErikaOS_1_ee_oo_internal.inc ****      If i subtract one to this I obtain a bit mask with all
 505:Generated_Source\PSoC5/ErikaOS_1_ee_oo_internal.inc ****      ones before the starting one and all zeros after 
 506:Generated_Source\PSoC5/ErikaOS_1_ee_oo_internal.inc ****      (exactly what I want to release resources!)
 507:Generated_Source\PSoC5/ErikaOS_1_ee_oo_internal.inc ****   */
 508:Generated_Source\PSoC5/ErikaOS_1_ee_oo_internal.inc ****   EE_sys_ceiling &= (EE_th_dispatch_prio[tid] - 1U);
 509:Generated_Source\PSoC5/ErikaOS_1_ee_oo_internal.inc **** }
 510:Generated_Source\PSoC5/ErikaOS_1_ee_oo_internal.inc **** #else
 511:Generated_Source\PSoC5/ErikaOS_1_ee_oo_internal.inc **** EE_UREG EE_oo_release_all_resources(EE_TID tid);
 512:Generated_Source\PSoC5/ErikaOS_1_ee_oo_internal.inc **** #endif /* !__OO_EXTENDED_STATUS__ && !__OO_ISR2_RESOURCES__ */
 513:Generated_Source\PSoC5/ErikaOS_1_ee_oo_internal.inc **** #else /* __OO_NO_RESOURCES__ */
 514:Generated_Source\PSoC5/ErikaOS_1_ee_oo_internal.inc **** #define EE_oo_release_all_resources(tid)    ((void)0)
 515:Generated_Source\PSoC5/ErikaOS_1_ee_oo_internal.inc **** #endif /* __OO_NO_RESOURCES__ */
 516:Generated_Source\PSoC5/ErikaOS_1_ee_oo_internal.inc **** 
 517:Generated_Source\PSoC5/ErikaOS_1_ee_oo_internal.inc **** #ifndef __PRIVATE_THREANTERMINATED__
 518:Generated_Source\PSoC5/ErikaOS_1_ee_oo_internal.inc **** /* this the function that will be called if a Task doesn't end calling
 519:Generated_Source\PSoC5/ErikaOS_1_ee_oo_internal.inc ****    TerminateTask */
 520:Generated_Source\PSoC5/ErikaOS_1_ee_oo_internal.inc **** 
 521:Generated_Source\PSoC5/ErikaOS_1_ee_oo_internal.inc **** extern void EE_thread_not_terminated( void );
 522:Generated_Source\PSoC5/ErikaOS_1_ee_oo_internal.inc **** #endif /* __PRIVATE_THREANTERMINATED__ */
 523:Generated_Source\PSoC5/ErikaOS_1_ee_oo_internal.inc **** 
 524:Generated_Source\PSoC5/ErikaOS_1_ee_oo_internal.inc **** /* This call terminates a thread instance. It must be called as the
 525:Generated_Source\PSoC5/ErikaOS_1_ee_oo_internal.inc ****    LAST function call BEFORE the `}' that ends a thread. If the
 526:Generated_Source\PSoC5/ErikaOS_1_ee_oo_internal.inc ****    primitive is not inserted at the end of */
 527:Generated_Source\PSoC5/ErikaOS_1_ee_oo_internal.inc **** #ifndef __PRIVATE_THREAD_END_INSTANCE__
 528:Generated_Source\PSoC5/ErikaOS_1_ee_oo_internal.inc **** void EE_thread_end_instance(void);
 529:Generated_Source\PSoC5/ErikaOS_1_ee_oo_internal.inc **** #endif
 530:Generated_Source\PSoC5/ErikaOS_1_ee_oo_internal.inc **** 
 531:Generated_Source\PSoC5/ErikaOS_1_ee_oo_internal.inc **** #if (defined(__OO_ISR2_RESOURCES__)) || (defined(EE_AS_USER_SPINLOCKS__))
 532:Generated_Source\PSoC5/ErikaOS_1_ee_oo_internal.inc **** /* Index used to give ISR2 Temporary TID value and to access at
 533:Generated_Source\PSoC5/ErikaOS_1_ee_oo_internal.inc ****    EE_isr2_nesting_level array */
 534:Generated_Source\PSoC5/ErikaOS_1_ee_oo_internal.inc **** extern EE_UREG EE_isr2_index;
 535:Generated_Source\PSoC5/ErikaOS_1_ee_oo_internal.inc **** 
ARM GAS  C:\Users\Asus\AppData\Local\Temp\cc4NRN5T.s 			page 18


 536:Generated_Source\PSoC5/ErikaOS_1_ee_oo_internal.inc **** /* Assign a fake TID to an ISR2 to eventually handle resources clean-up */
 537:Generated_Source\PSoC5/ErikaOS_1_ee_oo_internal.inc **** EE_TID  EE_oo_assign_TID_to_ISR2(void);
 538:Generated_Source\PSoC5/ErikaOS_1_ee_oo_internal.inc **** 
 539:Generated_Source\PSoC5/ErikaOS_1_ee_oo_internal.inc **** /* Get the last assigned fake ISR2 TID */
 540:Generated_Source\PSoC5/ErikaOS_1_ee_oo_internal.inc **** __INLINE__ EE_TID  EE_oo_get_ISR2_TID(void) {
 541:Generated_Source\PSoC5/ErikaOS_1_ee_oo_internal.inc ****   return (EE_isr2_index != EE_UREG_MINUS1)?
 542:Generated_Source\PSoC5/ErikaOS_1_ee_oo_internal.inc ****     (EE_MAX_TASK + (EE_TID)EE_isr2_index): EE_NIL;
 543:Generated_Source\PSoC5/ErikaOS_1_ee_oo_internal.inc **** }
 544:Generated_Source\PSoC5/ErikaOS_1_ee_oo_internal.inc **** #endif /* __OO_ISR2_RESOURCES__ || EE_AS_USER_SPINLOCKS__ */
 545:Generated_Source\PSoC5/ErikaOS_1_ee_oo_internal.inc **** 
 546:Generated_Source\PSoC5/ErikaOS_1_ee_oo_internal.inc **** #if (defined(__OO_ECC1__)) || (defined(__OO_ECC2__))
 547:Generated_Source\PSoC5/ErikaOS_1_ee_oo_internal.inc **** /*
 548:Generated_Source\PSoC5/ErikaOS_1_ee_oo_internal.inc ****     Reset Active Events  THREAD utility method.
 549:Generated_Source\PSoC5/ErikaOS_1_ee_oo_internal.inc **** 
 550:Generated_Source\PSoC5/ErikaOS_1_ee_oo_internal.inc ****     When an extended task is transferred from suspended state
 551:Generated_Source\PSoC5/ErikaOS_1_ee_oo_internal.inc ****     into ready state all its events have to be cleared cleared
 552:Generated_Source\PSoC5/ErikaOS_1_ee_oo_internal.inc **** */
 553:Generated_Source\PSoC5/ErikaOS_1_ee_oo_internal.inc **** __INLINE__ void  EE_oo_reset_th_event_active(TaskType tnotactive)
 554:Generated_Source\PSoC5/ErikaOS_1_ee_oo_internal.inc **** {
 555:Generated_Source\PSoC5/ErikaOS_1_ee_oo_internal.inc ****     EE_th_event_active[tnotactive] = 0U;
 556:Generated_Source\PSoC5/ErikaOS_1_ee_oo_internal.inc **** }
 557:Generated_Source\PSoC5/ErikaOS_1_ee_oo_internal.inc **** 
 558:Generated_Source\PSoC5/ErikaOS_1_ee_oo_internal.inc **** /* 
 559:Generated_Source\PSoC5/ErikaOS_1_ee_oo_internal.inc ****   This method actually do a CONTEXT SWITCH, with the highest priority TASK
 560:Generated_Source\PSoC5/ErikaOS_1_ee_oo_internal.inc **** */
 561:Generated_Source\PSoC5/ErikaOS_1_ee_oo_internal.inc **** #ifdef __MULTI__
 562:Generated_Source\PSoC5/ErikaOS_1_ee_oo_internal.inc **** __INLINE__ void  EE_oo_run_next_task(void)
 563:Generated_Source\PSoC5/ErikaOS_1_ee_oo_internal.inc **** {
 564:Generated_Source\PSoC5/ErikaOS_1_ee_oo_internal.inc ****     register TaskType tmp;
 565:Generated_Source\PSoC5/ErikaOS_1_ee_oo_internal.inc ****     /* swap from ready queue to stack queue */
 566:Generated_Source\PSoC5/ErikaOS_1_ee_oo_internal.inc ****     tmp = EE_rq2stk_exchange();
 567:Generated_Source\PSoC5/ErikaOS_1_ee_oo_internal.inc ****     if ( EE_th_waswaiting[tmp] ) {
 568:Generated_Source\PSoC5/ErikaOS_1_ee_oo_internal.inc ****       /* if the task was waiting switch the context to restart it */
 569:Generated_Source\PSoC5/ErikaOS_1_ee_oo_internal.inc ****       EE_th_waswaiting[tmp] = EE_FALSE;
 570:Generated_Source\PSoC5/ErikaOS_1_ee_oo_internal.inc ****       /* Call the PreTaskHook, here no stub will do that for you */
 571:Generated_Source\PSoC5/ErikaOS_1_ee_oo_internal.inc ****       EE_oo_call_PreTaskHook();
 572:Generated_Source\PSoC5/ErikaOS_1_ee_oo_internal.inc ****       EE_hal_stkchange(tmp);
 573:Generated_Source\PSoC5/ErikaOS_1_ee_oo_internal.inc ****     } else {
 574:Generated_Source\PSoC5/ErikaOS_1_ee_oo_internal.inc ****       /* the next task have to be started */
 575:Generated_Source\PSoC5/ErikaOS_1_ee_oo_internal.inc ****       EE_hal_ready2stacked(tmp);
 576:Generated_Source\PSoC5/ErikaOS_1_ee_oo_internal.inc ****     }
 577:Generated_Source\PSoC5/ErikaOS_1_ee_oo_internal.inc **** }
 578:Generated_Source\PSoC5/ErikaOS_1_ee_oo_internal.inc **** #else
 579:Generated_Source\PSoC5/ErikaOS_1_ee_oo_internal.inc **** __INLINE__ void  EE_oo_run_next_task(void)
 580:Generated_Source\PSoC5/ErikaOS_1_ee_oo_internal.inc **** {
 581:Generated_Source\PSoC5/ErikaOS_1_ee_oo_internal.inc ****     EE_hal_ready2stacked(EE_rq2stk_exchange());
 582:Generated_Source\PSoC5/ErikaOS_1_ee_oo_internal.inc **** }
 583:Generated_Source\PSoC5/ErikaOS_1_ee_oo_internal.inc **** #endif /* __MULTI__ */
 584:Generated_Source\PSoC5/ErikaOS_1_ee_oo_internal.inc **** #else
 585:Generated_Source\PSoC5/ErikaOS_1_ee_oo_internal.inc **** #define EE_oo_reset_th_event_active(TaskID)    ((void) 0)
 586:Generated_Source\PSoC5/ErikaOS_1_ee_oo_internal.inc **** 
 587:Generated_Source\PSoC5/ErikaOS_1_ee_oo_internal.inc **** /* 
 588:Generated_Source\PSoC5/ErikaOS_1_ee_oo_internal.inc ****   This method actually do a CONTEXT SWITCH, with the highest priority TASK
 589:Generated_Source\PSoC5/ErikaOS_1_ee_oo_internal.inc **** */
 590:Generated_Source\PSoC5/ErikaOS_1_ee_oo_internal.inc **** __INLINE__ void  EE_oo_run_next_task(void)
 591:Generated_Source\PSoC5/ErikaOS_1_ee_oo_internal.inc **** {
 592:Generated_Source\PSoC5/ErikaOS_1_ee_oo_internal.inc ****     EE_hal_ready2stacked(EE_rq2stk_exchange());
ARM GAS  C:\Users\Asus\AppData\Local\Temp\cc4NRN5T.s 			page 19


 593:Generated_Source\PSoC5/ErikaOS_1_ee_oo_internal.inc **** }
 594:Generated_Source\PSoC5/ErikaOS_1_ee_oo_internal.inc **** #endif /* defined(__OO_ECC1__) || defined(__OO_ECC2__) */
 595:Generated_Source\PSoC5/ErikaOS_1_ee_oo_internal.inc **** 
 596:Generated_Source\PSoC5/ErikaOS_1_ee_oo_internal.inc **** 
 597:Generated_Source\PSoC5/ErikaOS_1_ee_oo_internal.inc **** #if (defined(__OO_BCC2__)) || (defined(__OO_ECC2__))
 598:Generated_Source\PSoC5/ErikaOS_1_ee_oo_internal.inc ****   /*
 599:Generated_Source\PSoC5/ErikaOS_1_ee_oo_internal.inc ****     Set THREAD ready utility method.
 600:Generated_Source\PSoC5/ErikaOS_1_ee_oo_internal.inc ****     If the task is BCC2/ECC2 it can be that it is ready or 
 601:Generated_Source\PSoC5/ErikaOS_1_ee_oo_internal.inc ****     running. in that case we have to check and queue it anyway
 602:Generated_Source\PSoC5/ErikaOS_1_ee_oo_internal.inc ****   */
 603:Generated_Source\PSoC5/ErikaOS_1_ee_oo_internal.inc **** __INLINE__ void  EE_oo_set_th_status_ready(TaskType TaskID)
 604:Generated_Source\PSoC5/ErikaOS_1_ee_oo_internal.inc **** {
 605:Generated_Source\PSoC5/ErikaOS_1_ee_oo_internal.inc ****     if (EE_th_status[TaskID] == SUSPENDED) {
 606:Generated_Source\PSoC5/ErikaOS_1_ee_oo_internal.inc ****         EE_th_status[TaskID] = READY;
 607:Generated_Source\PSoC5/ErikaOS_1_ee_oo_internal.inc ****         EE_oo_reset_th_event_active(TaskID);
 608:Generated_Source\PSoC5/ErikaOS_1_ee_oo_internal.inc ****     }
 609:Generated_Source\PSoC5/ErikaOS_1_ee_oo_internal.inc **** }
 610:Generated_Source\PSoC5/ErikaOS_1_ee_oo_internal.inc **** #else
 611:Generated_Source\PSoC5/ErikaOS_1_ee_oo_internal.inc ****   /*
 612:Generated_Source\PSoC5/ErikaOS_1_ee_oo_internal.inc ****     Set THREAD ready utility method
 613:Generated_Source\PSoC5/ErikaOS_1_ee_oo_internal.inc ****     If the task is BCC1/ECC1 it can be here only because
 614:Generated_Source\PSoC5/ErikaOS_1_ee_oo_internal.inc ****     it had rnact=1 before the call, and so it is in suspended state
 615:Generated_Source\PSoC5/ErikaOS_1_ee_oo_internal.inc ****   */
 616:Generated_Source\PSoC5/ErikaOS_1_ee_oo_internal.inc **** __INLINE__ void  EE_oo_set_th_status_ready(TaskType tready)
 617:Generated_Source\PSoC5/ErikaOS_1_ee_oo_internal.inc **** {
 618:Generated_Source\PSoC5/ErikaOS_1_ee_oo_internal.inc ****     EE_th_status[tready] = READY;
 619:Generated_Source\PSoC5/ErikaOS_1_ee_oo_internal.inc ****     EE_oo_reset_th_event_active(tready);
 620:Generated_Source\PSoC5/ErikaOS_1_ee_oo_internal.inc **** }
 621:Generated_Source\PSoC5/ErikaOS_1_ee_oo_internal.inc **** #endif /* defined(__OO_BCC2__) || defined(__OO_ECC2__) */
 622:Generated_Source\PSoC5/ErikaOS_1_ee_oo_internal.inc **** 
 623:Generated_Source\PSoC5/ErikaOS_1_ee_oo_internal.inc **** __INLINE__ void  EE_oo_task_in_ready_queue( TaskType tid )
 624:Generated_Source\PSoC5/ErikaOS_1_ee_oo_internal.inc **** {
 625:Generated_Source\PSoC5/ErikaOS_1_ee_oo_internal.inc ****   /* Decrement the residual number activation */
 626:Generated_Source\PSoC5/ErikaOS_1_ee_oo_internal.inc ****   --EE_th_rnact[tid];
  93              		.loc 2 626 0
  94 0016 0A4A     		ldr	r2, .L11
  95 0018 013B     		subs	r3, r3, #1
  96 001a 42F82030 		str	r3, [r2, r0, lsl #2]
  97              	.LVL9:
  98              	.LBB66:
  99              	.LBB67:
 605:Generated_Source\PSoC5/ErikaOS_1_ee_oo_internal.inc ****         EE_th_status[TaskID] = READY;
 100              		.loc 2 605 0
 101 001e 094B     		ldr	r3, .L11+4
 102 0020 53F82030 		ldr	r3, [r3, r0, lsl #2]
 103 0024 032B     		cmp	r3, #3
 104 0026 07D1     		bne	.L8
 606:Generated_Source\PSoC5/ErikaOS_1_ee_oo_internal.inc ****         EE_oo_reset_th_event_active(TaskID);
 105              		.loc 2 606 0
 106 0028 0222     		movs	r2, #2
 107 002a 064B     		ldr	r3, .L11+4
 108 002c 43F82020 		str	r2, [r3, r0, lsl #2]
 109              	.LVL10:
 110              	.LBB68:
 111              	.LBB69:
 555:Generated_Source\PSoC5/ErikaOS_1_ee_oo_internal.inc **** }
 112              		.loc 2 555 0
ARM GAS  C:\Users\Asus\AppData\Local\Temp\cc4NRN5T.s 			page 20


 113 0030 0022     		movs	r2, #0
 114 0032 054B     		ldr	r3, .L11+8
 115 0034 43F82020 		str	r2, [r3, r0, lsl #2]
 116              	.LVL11:
 117              	.L8:
 118              	.LBE69:
 119              	.LBE68:
 120              	.LBE67:
 121              	.LBE66:
 627:Generated_Source\PSoC5/ErikaOS_1_ee_oo_internal.inc ****   /* Set the status READY handling multiple activations */
 628:Generated_Source\PSoC5/ErikaOS_1_ee_oo_internal.inc ****   EE_oo_set_th_status_ready(tid);
 629:Generated_Source\PSoC5/ErikaOS_1_ee_oo_internal.inc ****   /* insert the task in the ready queue */
 630:Generated_Source\PSoC5/ErikaOS_1_ee_oo_internal.inc ****   EE_rq_insert(tid);
 122              		.loc 2 630 0
 123 0038 FFF7FEFF 		bl	EE_rq_insert
 124              	.LVL12:
 125              	.L5:
 126 003c 08BD     		pop	{r3, pc}
 127              	.L12:
 128 003e 00BF     		.align	2
 129              	.L11:
 130 0040 00000000 		.word	EE_th_rnact
 131 0044 00000000 		.word	EE_th_status
 132 0048 00000000 		.word	EE_th_event_active
 133              	.LBE65:
 134              	.LBE64:
 135              		.cfi_endproc
 136              	.LFE71:
 137              		.size	EE_oo_handle_action_task, .-EE_oo_handle_action_task
 138              		.section	.text.EE_oo_handle_action_event,"ax",%progbits
 139              		.align	2
 140              		.thumb
 141              		.thumb_func
 142              		.type	EE_oo_handle_action_event, %function
 143              	EE_oo_handle_action_event:
 144              	.LFB72:
 218:Generated_Source\PSoC5/ErikaOS_1_ee_altick.c ****   /* Error Value */
 145              		.loc 1 218 0
 146              		.cfi_startproc
 147              		@ args = 0, pretend = 0, frame = 0
 148              		@ frame_needed = 0, uses_anonymous_args = 0
 149              	.LVL13:
 226:Generated_Source\PSoC5/ErikaOS_1_ee_altick.c ****     TaskID = p_action->action_task;
 150              		.loc 1 226 0
 151 0000 18B1     		cbz	r0, .L16
 152 0002 0346     		mov	r3, r0
 227:Generated_Source\PSoC5/ErikaOS_1_ee_altick.c ****     Mask = p_action->action_mask;
 153              		.loc 1 227 0
 154 0004 4068     		ldr	r0, [r0, #4]
 155              	.LVL14:
 228:Generated_Source\PSoC5/ErikaOS_1_ee_altick.c ****   }
 156              		.loc 1 228 0
 157 0006 9B68     		ldr	r3, [r3, #8]
 158              	.LVL15:
 159 0008 01E0     		b	.L14
 160              	.LVL16:
 161              	.L16:
ARM GAS  C:\Users\Asus\AppData\Local\Temp\cc4NRN5T.s 			page 21


 224:Generated_Source\PSoC5/ErikaOS_1_ee_altick.c **** 
 162              		.loc 1 224 0
 163 000a 0023     		movs	r3, #0
 223:Generated_Source\PSoC5/ErikaOS_1_ee_altick.c ****   register EventMaskType  Mask    = 0U;
 164              		.loc 1 223 0
 165 000c 1846     		mov	r0, r3
 166              	.LVL17:
 167              	.L14:
 255:Generated_Source\PSoC5/ErikaOS_1_ee_altick.c ****       ev = E_OS_ID;
 168              		.loc 1 255 0
 169 000e 0428     		cmp	r0, #4
 170 0010 1DD8     		bhi	.L18
 257:Generated_Source\PSoC5/ErikaOS_1_ee_altick.c ****       ev = E_OS_ACCESS;
 171              		.loc 1 257 0
 172 0012 0F4A     		ldr	r2, .L19
 173 0014 52F82020 		ldr	r2, [r2, r0, lsl #2]
 174 0018 CAB1     		cbz	r2, .L18
 263:Generated_Source\PSoC5/ErikaOS_1_ee_altick.c ****       ev = E_OS_STATE;
 175              		.loc 1 263 0
 176 001a 0E4A     		ldr	r2, .L19+4
 177 001c 52F82010 		ldr	r1, [r2, r0, lsl #2]
 178 0020 0329     		cmp	r1, #3
 179 0022 14D0     		beq	.L18
 218:Generated_Source\PSoC5/ErikaOS_1_ee_altick.c ****   /* Error Value */
 180              		.loc 1 218 0
 181 0024 10B5     		push	{r4, lr}
 182              		.cfi_def_cfa_offset 8
 183              		.cfi_offset 4, -8
 184              		.cfi_offset 14, -4
 274:Generated_Source\PSoC5/ErikaOS_1_ee_altick.c ****       /* Check Interarrival Frame */
 185              		.loc 1 274 0
 186 0026 0C4C     		ldr	r4, .L19+8
 187 0028 54F82020 		ldr	r2, [r4, r0, lsl #2]
 188 002c 1A43     		orrs	r2, r2, r3
 189 002e 44F82020 		str	r2, [r4, r0, lsl #2]
 286:Generated_Source\PSoC5/ErikaOS_1_ee_altick.c ****           (EE_th_status[TaskID] == WAITING) )
 190              		.loc 1 286 0
 191 0032 0A4A     		ldr	r2, .L19+12
 192 0034 52F82020 		ldr	r2, [r2, r0, lsl #2]
 193 0038 1342     		tst	r3, r2
 194 003a 07D0     		beq	.L13
 286:Generated_Source\PSoC5/ErikaOS_1_ee_altick.c ****           (EE_th_status[TaskID] == WAITING) )
 195              		.loc 1 286 0 is_stmt 0 discriminator 1
 196 003c 0129     		cmp	r1, #1
 197 003e 05D1     		bne	.L13
 290:Generated_Source\PSoC5/ErikaOS_1_ee_altick.c ****           /* insert the task in the ready queue */
 198              		.loc 1 290 0 is_stmt 1
 199 0040 0222     		movs	r2, #2
 200 0042 044B     		ldr	r3, .L19+4
 201              	.LVL18:
 202 0044 43F82020 		str	r2, [r3, r0, lsl #2]
 292:Generated_Source\PSoC5/ErikaOS_1_ee_altick.c ****         }
 203              		.loc 1 292 0
 204 0048 FFF7FEFF 		bl	EE_rq_insert
 205              	.LVL19:
 206              	.L13:
 207 004c 10BD     		pop	{r4, pc}
ARM GAS  C:\Users\Asus\AppData\Local\Temp\cc4NRN5T.s 			page 22


 208              	.LVL20:
 209              	.L18:
 210              		.cfi_def_cfa_offset 0
 211              		.cfi_restore 4
 212              		.cfi_restore 14
 213 004e 7047     		bx	lr
 214              	.L20:
 215              		.align	2
 216              	.L19:
 217 0050 00000000 		.word	EE_th_is_extended
 218 0054 00000000 		.word	EE_th_status
 219 0058 00000000 		.word	EE_th_event_active
 220 005c 00000000 		.word	EE_th_event_waitmask
 221              		.cfi_endproc
 222              	.LFE72:
 223              		.size	EE_oo_handle_action_event, .-EE_oo_handle_action_event
 224              		.section	.text.EE_oo_handle_action,"ax",%progbits
 225              		.align	2
 226              		.thumb
 227              		.thumb_func
 228              		.type	EE_oo_handle_action, %function
 229              	EE_oo_handle_action:
 230              	.LFB74:
 336:Generated_Source\PSoC5/ErikaOS_1_ee_altick.c ****   }
 337:Generated_Source\PSoC5/ErikaOS_1_ee_altick.c **** }
 338:Generated_Source\PSoC5/ErikaOS_1_ee_altick.c **** #endif /* EE_AS_OSAPPLICATIONS__ && EE_SERVICE_PROTECTION__ */
 339:Generated_Source\PSoC5/ErikaOS_1_ee_altick.c **** 
 340:Generated_Source\PSoC5/ErikaOS_1_ee_altick.c **** static void EE_oo_handle_action(EE_oo_action_ROM_type const * const p_action);
 341:Generated_Source\PSoC5/ErikaOS_1_ee_altick.c **** 
 342:Generated_Source\PSoC5/ErikaOS_1_ee_altick.c **** static void EE_oo_handle_action(EE_oo_action_ROM_type const * const p_action)
 343:Generated_Source\PSoC5/ErikaOS_1_ee_altick.c **** {
 231              		.loc 1 343 0
 232              		.cfi_startproc
 233              		@ args = 0, pretend = 0, frame = 0
 234              		@ frame_needed = 0, uses_anonymous_args = 0
 235              	.LVL21:
 344:Generated_Source\PSoC5/ErikaOS_1_ee_altick.c ****   if ( p_action != NULL ) {
 236              		.loc 1 344 0
 237 0000 80B1     		cbz	r0, .L27
 343:Generated_Source\PSoC5/ErikaOS_1_ee_altick.c ****   if ( p_action != NULL ) {
 238              		.loc 1 343 0
 239 0002 08B5     		push	{r3, lr}
 240              		.cfi_def_cfa_offset 8
 241              		.cfi_offset 3, -8
 242              		.cfi_offset 14, -4
 345:Generated_Source\PSoC5/ErikaOS_1_ee_altick.c ****     
 346:Generated_Source\PSoC5/ErikaOS_1_ee_altick.c ****     switch ( p_action->action_kind ) {
 243              		.loc 1 346 0
 244 0004 0378     		ldrb	r3, [r0]	@ zero_extendqisi2
 245 0006 012B     		cmp	r3, #1
 246 0008 06D0     		beq	.L23
 247 000a 13B1     		cbz	r3, .L24
 248 000c 032B     		cmp	r3, #3
 249 000e 06D0     		beq	.L25
 250 0010 08BD     		pop	{r3, pc}
 251              	.L24:
 347:Generated_Source\PSoC5/ErikaOS_1_ee_altick.c **** 
ARM GAS  C:\Users\Asus\AppData\Local\Temp\cc4NRN5T.s 			page 23


 348:Generated_Source\PSoC5/ErikaOS_1_ee_altick.c ****       case  EE_ACTION_TASK:
 349:Generated_Source\PSoC5/ErikaOS_1_ee_altick.c ****         /* activate the task */
 350:Generated_Source\PSoC5/ErikaOS_1_ee_altick.c ****         
 351:Generated_Source\PSoC5/ErikaOS_1_ee_altick.c ****         EE_oo_handle_action_task(p_action);
 252              		.loc 1 351 0
 253 0012 FFF7FEFF 		bl	EE_oo_handle_action_task
 254              	.LVL22:
 352:Generated_Source\PSoC5/ErikaOS_1_ee_altick.c ****         break;
 255              		.loc 1 352 0
 256 0016 08BD     		pop	{r3, pc}
 257              	.LVL23:
 258              	.L23:
 353:Generated_Source\PSoC5/ErikaOS_1_ee_altick.c **** 
 354:Generated_Source\PSoC5/ErikaOS_1_ee_altick.c **** #if (defined(__OO_ECC1__)) || (defined(__OO_ECC2__))
 355:Generated_Source\PSoC5/ErikaOS_1_ee_altick.c ****       case EE_ACTION_EVENT:
 356:Generated_Source\PSoC5/ErikaOS_1_ee_altick.c ****         /* set an event for a task */
 357:Generated_Source\PSoC5/ErikaOS_1_ee_altick.c ****         EE_oo_handle_action_event(p_action);
 259              		.loc 1 357 0
 260 0018 FFF7FEFF 		bl	EE_oo_handle_action_event
 261              	.LVL24:
 358:Generated_Source\PSoC5/ErikaOS_1_ee_altick.c ****         break;
 262              		.loc 1 358 0
 263 001c 08BD     		pop	{r3, pc}
 264              	.LVL25:
 265              	.L25:
 359:Generated_Source\PSoC5/ErikaOS_1_ee_altick.c **** #endif /* defined(__OO_ECC1__) || defined(__OO_ECC2__) */
 360:Generated_Source\PSoC5/ErikaOS_1_ee_altick.c **** 
 361:Generated_Source\PSoC5/ErikaOS_1_ee_altick.c ****       case  EE_ACTION_CALLBACK:
 362:Generated_Source\PSoC5/ErikaOS_1_ee_altick.c ****         EE_oo_handle_action_callback(p_action);
 266              		.loc 1 362 0
 267 001e FFF7FEFF 		bl	EE_oo_handle_action_callback
 268              	.LVL26:
 269 0022 08BD     		pop	{r3, pc}
 270              	.LVL27:
 271              	.L27:
 272              		.cfi_def_cfa_offset 0
 273              		.cfi_restore 3
 274              		.cfi_restore 14
 275 0024 7047     		bx	lr
 276              		.cfi_endproc
 277              	.LFE74:
 278              		.size	EE_oo_handle_action, .-EE_oo_handle_action
 279 0026 00BF     		.section	.text.EE_oo_counter_object_insert,"ax",%progbits
 280              		.align	2
 281              		.global	EE_oo_counter_object_insert
 282              		.thumb
 283              		.thumb_func
 284              		.type	EE_oo_counter_object_insert, %function
 285              	EE_oo_counter_object_insert:
 286              	.LFB70:
  91:Generated_Source\PSoC5/ErikaOS_1_ee_altick.c ****   register CounterObjectType  current, previous;
 287              		.loc 1 91 0
 288              		.cfi_startproc
 289              		@ args = 0, pretend = 0, frame = 0
 290              		@ frame_needed = 0, uses_anonymous_args = 0
 291              		@ link register save eliminated.
 292              	.LVL28:
ARM GAS  C:\Users\Asus\AppData\Local\Temp\cc4NRN5T.s 			page 24


 293 0000 30B4     		push	{r4, r5}
 294              		.cfi_def_cfa_offset 8
 295              		.cfi_offset 4, -8
 296              		.cfi_offset 5, -4
  93:Generated_Source\PSoC5/ErikaOS_1_ee_altick.c **** 
 297              		.loc 1 93 0
 298 0002 00EB4002 		add	r2, r0, r0, lsl #1
 299 0006 9300     		lsls	r3, r2, #2
 300 0008 214A     		ldr	r2, .L36
 301 000a D258     		ldr	r2, [r2, r3]
 302              	.LVL29:
  99:Generated_Source\PSoC5/ErikaOS_1_ee_altick.c **** 
 303              		.loc 1 99 0
 304 000c 214B     		ldr	r3, .L36+4
 305 000e 03EBC203 		add	r3, r3, r2, lsl #3
 306 0012 5C68     		ldr	r4, [r3, #4]
 307              	.LVL30:
 101:Generated_Source\PSoC5/ErikaOS_1_ee_altick.c ****     /* The alarm becomes the first into the delta queue, because the queue was
 308              		.loc 1 101 0
 309 0014 B4F1FF3F 		cmp	r4, #-1
 310 0018 04D1     		bne	.L29
 104:Generated_Source\PSoC5/ErikaOS_1_ee_altick.c ****   } else if ( EE_oo_counter_object_RAM[current].delta > increment ) {
 311              		.loc 1 104 0
 312 001a 1E4B     		ldr	r3, .L36+4
 313 001c 03EBC202 		add	r2, r3, r2, lsl #3
 314              	.LVL31:
 315 0020 5060     		str	r0, [r2, #4]
 316 0022 2DE0     		b	.L30
 317              	.LVL32:
 318              	.L29:
 105:Generated_Source\PSoC5/ErikaOS_1_ee_altick.c ****     /* The alarm becomes the first into the delta queue, because increment is
 319              		.loc 1 105 0
 320 0024 1C4B     		ldr	r3, .L36+8
 321 0026 03EB0413 		add	r3, r3, r4, lsl #4
 322 002a 9B68     		ldr	r3, [r3, #8]
 323 002c 9942     		cmp	r1, r3
 324 002e 0AD2     		bcs	.L31
 108:Generated_Source\PSoC5/ErikaOS_1_ee_altick.c ****     EE_oo_counter_object_RAM[current].delta -= increment;
 325              		.loc 1 108 0
 326 0030 184D     		ldr	r5, .L36+4
 327 0032 05EBC202 		add	r2, r5, r2, lsl #3
 328              	.LVL33:
 329 0036 5060     		str	r0, [r2, #4]
 109:Generated_Source\PSoC5/ErikaOS_1_ee_altick.c ****   } else {
 330              		.loc 1 109 0
 331 0038 174A     		ldr	r2, .L36+8
 332 003a 02EB0412 		add	r2, r2, r4, lsl #4
 333 003e 5B1A     		subs	r3, r3, r1
 334 0040 9360     		str	r3, [r2, #8]
 335 0042 1DE0     		b	.L30
 336              	.LVL34:
 337              	.L34:
 117:Generated_Source\PSoC5/ErikaOS_1_ee_altick.c ****     } while( (current != INVALID_COUNTER_OBJECT) &&
 338              		.loc 1 117 0
 339 0044 1C46     		mov	r4, r3
 340              	.LVL35:
 341              	.L31:
ARM GAS  C:\Users\Asus\AppData\Local\Temp\cc4NRN5T.s 			page 25


 115:Generated_Source\PSoC5/ErikaOS_1_ee_altick.c ****       previous = current;
 342              		.loc 1 115 0
 343 0046 144B     		ldr	r3, .L36+8
 344 0048 03EB0413 		add	r3, r3, r4, lsl #4
 345 004c 9A68     		ldr	r2, [r3, #8]
 346 004e 891A     		subs	r1, r1, r2
 347              	.LVL36:
 117:Generated_Source\PSoC5/ErikaOS_1_ee_altick.c ****     } while( (current != INVALID_COUNTER_OBJECT) &&
 348              		.loc 1 117 0
 349 0050 DB68     		ldr	r3, [r3, #12]
 350              	.LVL37:
 119:Generated_Source\PSoC5/ErikaOS_1_ee_altick.c **** 
 351              		.loc 1 119 0
 352 0052 B3F1FF3F 		cmp	r3, #-1
 353 0056 05D0     		beq	.L32
 119:Generated_Source\PSoC5/ErikaOS_1_ee_altick.c **** 
 354              		.loc 1 119 0 is_stmt 0 discriminator 1
 355 0058 0F4A     		ldr	r2, .L36+8
 356 005a 02EB0312 		add	r2, r2, r3, lsl #4
 357 005e 9268     		ldr	r2, [r2, #8]
 118:Generated_Source\PSoC5/ErikaOS_1_ee_altick.c ****              (EE_oo_counter_object_RAM[current].delta <= increment) );
 358              		.loc 1 118 0 is_stmt 1 discriminator 1
 359 0060 9142     		cmp	r1, r2
 360 0062 EFD2     		bcs	.L34
 361              	.L32:
 122:Generated_Source\PSoC5/ErikaOS_1_ee_altick.c ****       EE_oo_counter_object_RAM[current].delta -= increment;
 362              		.loc 1 122 0
 363 0064 B3F1FF3F 		cmp	r3, #-1
 364 0068 05D0     		beq	.L33
 123:Generated_Source\PSoC5/ErikaOS_1_ee_altick.c ****     }
 365              		.loc 1 123 0
 366 006a 0B4A     		ldr	r2, .L36+8
 367 006c 02EB0312 		add	r2, r2, r3, lsl #4
 368 0070 9568     		ldr	r5, [r2, #8]
 369 0072 6D1A     		subs	r5, r5, r1
 370 0074 9560     		str	r5, [r2, #8]
 371              	.L33:
 125:Generated_Source\PSoC5/ErikaOS_1_ee_altick.c ****   }
 372              		.loc 1 125 0
 373 0076 084A     		ldr	r2, .L36+8
 374 0078 02EB0414 		add	r4, r2, r4, lsl #4
 375              	.LVL38:
 376 007c E060     		str	r0, [r4, #12]
 117:Generated_Source\PSoC5/ErikaOS_1_ee_altick.c ****     } while( (current != INVALID_COUNTER_OBJECT) &&
 377              		.loc 1 117 0
 378 007e 1C46     		mov	r4, r3
 379              	.LVL39:
 380              	.L30:
 128:Generated_Source\PSoC5/ErikaOS_1_ee_altick.c ****   EE_oo_counter_object_RAM[ObjectID].next = current;
 381              		.loc 1 128 0
 382 0080 054B     		ldr	r3, .L36+8
 383 0082 03EB0010 		add	r0, r3, r0, lsl #4
 384              	.LVL40:
 385 0086 8160     		str	r1, [r0, #8]
 129:Generated_Source\PSoC5/ErikaOS_1_ee_altick.c **** }
 386              		.loc 1 129 0
 387 0088 C460     		str	r4, [r0, #12]
ARM GAS  C:\Users\Asus\AppData\Local\Temp\cc4NRN5T.s 			page 26


 130:Generated_Source\PSoC5/ErikaOS_1_ee_altick.c **** #endif /* EE_KEEP_ALARM_QUEUE_CODE */
 388              		.loc 1 130 0
 389 008a 30BC     		pop	{r4, r5}
 390              		.cfi_restore 5
 391              		.cfi_restore 4
 392              		.cfi_def_cfa_offset 0
 393              	.LVL41:
 394 008c 7047     		bx	lr
 395              	.L37:
 396 008e 00BF     		.align	2
 397              	.L36:
 398 0090 00000000 		.word	EE_oo_counter_object_ROM
 399 0094 00000000 		.word	EE_counter_RAM
 400 0098 00000000 		.word	EE_oo_counter_object_RAM
 401              		.cfi_endproc
 402              	.LFE70:
 403              		.size	EE_oo_counter_object_insert, .-EE_oo_counter_object_insert
 404              		.section	.text.EE_oo_IncrementCounterImplementation,"ax",%progbits
 405              		.align	2
 406              		.global	EE_oo_IncrementCounterImplementation
 407              		.thumb
 408              		.thumb_func
 409              		.type	EE_oo_IncrementCounterImplementation, %function
 410              	EE_oo_IncrementCounterImplementation:
 411              	.LFB75:
 363:Generated_Source\PSoC5/ErikaOS_1_ee_altick.c ****         break;
 364:Generated_Source\PSoC5/ErikaOS_1_ee_altick.c **** 
 365:Generated_Source\PSoC5/ErikaOS_1_ee_altick.c ****       case EE_ACTION_COUNTER:
 366:Generated_Source\PSoC5/ErikaOS_1_ee_altick.c ****         /*
 367:Generated_Source\PSoC5/ErikaOS_1_ee_altick.c ****          * This "case" statement is not fully supported.
 368:Generated_Source\PSoC5/ErikaOS_1_ee_altick.c ****          * It has been temporary commented to prevent from MISRA
 369:Generated_Source\PSoC5/ErikaOS_1_ee_altick.c ****          * error dealing with recursive functions. If
 370:Generated_Source\PSoC5/ErikaOS_1_ee_altick.c ****          * it will be fully supported and recursive call is
 371:Generated_Source\PSoC5/ErikaOS_1_ee_altick.c ****          * unavoidable, thus consider a MISRA deviation.
 372:Generated_Source\PSoC5/ErikaOS_1_ee_altick.c ****          */
 373:Generated_Source\PSoC5/ErikaOS_1_ee_altick.c ****         /* Recursive Call
 374:Generated_Source\PSoC5/ErikaOS_1_ee_altick.c ****            TODO: HANDLE CYCLIC COUNTERS !!! */
 375:Generated_Source\PSoC5/ErikaOS_1_ee_altick.c **** #if 0
 376:Generated_Source\PSoC5/ErikaOS_1_ee_altick.c ****         EE_oo_IncrementCounterImplementation(p_action->inccount);
 377:Generated_Source\PSoC5/ErikaOS_1_ee_altick.c **** #endif
 378:Generated_Source\PSoC5/ErikaOS_1_ee_altick.c ****         break;
 379:Generated_Source\PSoC5/ErikaOS_1_ee_altick.c **** 
 380:Generated_Source\PSoC5/ErikaOS_1_ee_altick.c ****       default:
 381:Generated_Source\PSoC5/ErikaOS_1_ee_altick.c ****         /* Invalid action: this should never happen, as `action' is
 382:Generated_Source\PSoC5/ErikaOS_1_ee_altick.c ****            initialized by RT-Druid */
 383:Generated_Source\PSoC5/ErikaOS_1_ee_altick.c ****         break;
 384:Generated_Source\PSoC5/ErikaOS_1_ee_altick.c ****     }
 385:Generated_Source\PSoC5/ErikaOS_1_ee_altick.c ****   }
 386:Generated_Source\PSoC5/ErikaOS_1_ee_altick.c **** }
 387:Generated_Source\PSoC5/ErikaOS_1_ee_altick.c **** 
 388:Generated_Source\PSoC5/ErikaOS_1_ee_altick.c **** #ifdef EE_AS_SCHEDULETABLES__
 389:Generated_Source\PSoC5/ErikaOS_1_ee_altick.c **** #if (defined(EE_MAX_SCHEDULETABLE)) && (EE_MAX_SCHEDULETABLE > 0)
 390:Generated_Source\PSoC5/ErikaOS_1_ee_altick.c **** static void  EE_as_handle_schedule_table( ScheduleTableType STId )
 391:Generated_Source\PSoC5/ErikaOS_1_ee_altick.c **** {
 392:Generated_Source\PSoC5/ErikaOS_1_ee_altick.c ****   do {
 393:Generated_Source\PSoC5/ErikaOS_1_ee_altick.c ****     /* Index to traverse expiry point actions */
 394:Generated_Source\PSoC5/ErikaOS_1_ee_altick.c ****     register EE_UREG                              i;
ARM GAS  C:\Users\Asus\AppData\Local\Temp\cc4NRN5T.s 			page 27


 395:Generated_Source\PSoC5/ErikaOS_1_ee_altick.c ****     register TickType                             nextOffset;
 396:Generated_Source\PSoC5/ErikaOS_1_ee_altick.c ****     /* Expiry point description */
 397:Generated_Source\PSoC5/ErikaOS_1_ee_altick.c ****     register EE_as_Expiry_Point_ROM_type const    *p_expiry_point;
 398:Generated_Source\PSoC5/ErikaOS_1_ee_altick.c ****     /* Get Schedule Table Configuration Structures */
 399:Generated_Source\PSoC5/ErikaOS_1_ee_altick.c ****     register EE_as_Schedule_Table_ROM_type const  *p_schedule_table_ROM =
 400:Generated_Source\PSoC5/ErikaOS_1_ee_altick.c ****       &EE_as_Schedule_Table_ROM[STId];
 401:Generated_Source\PSoC5/ErikaOS_1_ee_altick.c ****     register EE_as_Schedule_Table_RAM_type        *p_schedule_table_RAM =
 402:Generated_Source\PSoC5/ErikaOS_1_ee_altick.c ****       &EE_as_Schedule_Table_RAM[STId];
 403:Generated_Source\PSoC5/ErikaOS_1_ee_altick.c ****     /* Expiry point position */
 404:Generated_Source\PSoC5/ErikaOS_1_ee_altick.c ****     register ExpiryPointType expiry_position = p_schedule_table_RAM->position;
 405:Generated_Source\PSoC5/ErikaOS_1_ee_altick.c **** 
 406:Generated_Source\PSoC5/ErikaOS_1_ee_altick.c ****     /* This can happen:
 407:Generated_Source\PSoC5/ErikaOS_1_ee_altick.c ****         - When a next schedule table is activated to stop the original
 408:Generated_Source\PSoC5/ErikaOS_1_ee_altick.c ****           schedule table after the final delay
 409:Generated_Source\PSoC5/ErikaOS_1_ee_altick.c ****         - When the original schedule table is repeating */
 410:Generated_Source\PSoC5/ErikaOS_1_ee_altick.c ****     if ( expiry_position == INVALID_SCHEDULETABLE_POSITION ) {
 411:Generated_Source\PSoC5/ErikaOS_1_ee_altick.c ****       /* Get the next Schedule Table */
 412:Generated_Source\PSoC5/ErikaOS_1_ee_altick.c ****       ScheduleTableType const nextSTId = p_schedule_table_RAM->next_table;
 413:Generated_Source\PSoC5/ErikaOS_1_ee_altick.c **** 
 414:Generated_Source\PSoC5/ErikaOS_1_ee_altick.c ****       if ( nextSTId != INVALID_SCHEDULETABLE ) {
 415:Generated_Source\PSoC5/ErikaOS_1_ee_altick.c ****         p_schedule_table_RAM->status = SCHEDULETABLE_STOPPED;
 416:Generated_Source\PSoC5/ErikaOS_1_ee_altick.c ****         /* This is needed to stop the underlying alarm tied to the schedule
 417:Generated_Source\PSoC5/ErikaOS_1_ee_altick.c ****             table, otherwise the alarm handling cycle will be reschedule
 418:Generated_Source\PSoC5/ErikaOS_1_ee_altick.c ****             this alarm */
 419:Generated_Source\PSoC5/ErikaOS_1_ee_altick.c ****         EE_oo_counter_object_RAM[EE_MAX_ALARM + STId].cntcycle = 0;
 420:Generated_Source\PSoC5/ErikaOS_1_ee_altick.c ****         p_schedule_table_RAM->next_table = INVALID_SCHEDULETABLE;
 421:Generated_Source\PSoC5/ErikaOS_1_ee_altick.c **** 
 422:Generated_Source\PSoC5/ErikaOS_1_ee_altick.c ****         /* nextSTId handling */
 423:Generated_Source\PSoC5/ErikaOS_1_ee_altick.c ****         p_schedule_table_ROM = &EE_as_Schedule_Table_ROM[nextSTId];
 424:Generated_Source\PSoC5/ErikaOS_1_ee_altick.c ****         p_schedule_table_RAM = &EE_as_Schedule_Table_RAM[nextSTId];
 425:Generated_Source\PSoC5/ErikaOS_1_ee_altick.c **** 
 426:Generated_Source\PSoC5/ErikaOS_1_ee_altick.c ****         p_schedule_table_RAM->status      = SCHEDULETABLE_RUNNING;
 427:Generated_Source\PSoC5/ErikaOS_1_ee_altick.c **** 
 428:Generated_Source\PSoC5/ErikaOS_1_ee_altick.c ****         expiry_position = p_schedule_table_ROM->expiry_point_first;
 429:Generated_Source\PSoC5/ErikaOS_1_ee_altick.c **** 
 430:Generated_Source\PSoC5/ErikaOS_1_ee_altick.c ****         p_schedule_table_RAM->position    = expiry_position;
 431:Generated_Source\PSoC5/ErikaOS_1_ee_altick.c ****         p_schedule_table_RAM->next_table  = INVALID_SCHEDULETABLE;
 432:Generated_Source\PSoC5/ErikaOS_1_ee_altick.c **** 
 433:Generated_Source\PSoC5/ErikaOS_1_ee_altick.c ****         nextOffset      = EE_as_Expiry_Point_ROM[expiry_position].offset;
 434:Generated_Source\PSoC5/ErikaOS_1_ee_altick.c **** 
 435:Generated_Source\PSoC5/ErikaOS_1_ee_altick.c ****         /* Handle special case of some expiry points with offset equal to
 436:Generated_Source\PSoC5/ErikaOS_1_ee_altick.c ****            zero */
 437:Generated_Source\PSoC5/ErikaOS_1_ee_altick.c ****         if ( nextOffset > 0U ) {
 438:Generated_Source\PSoC5/ErikaOS_1_ee_altick.c ****           /* Exit From The Loop */
 439:Generated_Source\PSoC5/ErikaOS_1_ee_altick.c ****           STId = INVALID_SCHEDULETABLE;
 440:Generated_Source\PSoC5/ErikaOS_1_ee_altick.c ****         } else {
 441:Generated_Source\PSoC5/ErikaOS_1_ee_altick.c ****           /* Continue The Loop with the next Schedule Table expiry points:
 442:Generated_Source\PSoC5/ErikaOS_1_ee_altick.c ****              before them, evaluate next alarm event offset to enable
 443:Generated_Source\PSoC5/ErikaOS_1_ee_altick.c ****              underlying schedule table alarm (counter object). */
 444:Generated_Source\PSoC5/ErikaOS_1_ee_altick.c ****           do {
 445:Generated_Source\PSoC5/ErikaOS_1_ee_altick.c ****             ++expiry_position;
 446:Generated_Source\PSoC5/ErikaOS_1_ee_altick.c ****             nextOffset = EE_as_Expiry_Point_ROM[expiry_position].offset;
 447:Generated_Source\PSoC5/ErikaOS_1_ee_altick.c ****           } while ( (nextOffset == 0U) &&
 448:Generated_Source\PSoC5/ErikaOS_1_ee_altick.c ****             (expiry_position < p_schedule_table_ROM->expiry_point_last) );
 449:Generated_Source\PSoC5/ErikaOS_1_ee_altick.c ****           if ( nextOffset == 0U ) {
 450:Generated_Source\PSoC5/ErikaOS_1_ee_altick.c ****             nextOffset = p_schedule_table_ROM->duration;
 451:Generated_Source\PSoC5/ErikaOS_1_ee_altick.c ****           }
ARM GAS  C:\Users\Asus\AppData\Local\Temp\cc4NRN5T.s 			page 28


 452:Generated_Source\PSoC5/ErikaOS_1_ee_altick.c ****           STId = nextSTId;
 453:Generated_Source\PSoC5/ErikaOS_1_ee_altick.c ****         }
 454:Generated_Source\PSoC5/ErikaOS_1_ee_altick.c ****         /* Schedule the alarm tied to the next Schedule Table */
 455:Generated_Source\PSoC5/ErikaOS_1_ee_altick.c ****         EE_oo_handle_rel_counter_object_insertion(EE_MAX_ALARM + nextSTId,
 456:Generated_Source\PSoC5/ErikaOS_1_ee_altick.c ****           nextOffset, 0U);
 457:Generated_Source\PSoC5/ErikaOS_1_ee_altick.c ****       } else {
 458:Generated_Source\PSoC5/ErikaOS_1_ee_altick.c ****         /* Reapiting schedule table */
 459:Generated_Source\PSoC5/ErikaOS_1_ee_altick.c ****         expiry_position = p_schedule_table_ROM->expiry_point_first;
 460:Generated_Source\PSoC5/ErikaOS_1_ee_altick.c ****         p_schedule_table_RAM->position = expiry_position;
 461:Generated_Source\PSoC5/ErikaOS_1_ee_altick.c ****         nextOffset      = EE_as_Expiry_Point_ROM[expiry_position].offset;
 462:Generated_Source\PSoC5/ErikaOS_1_ee_altick.c **** 
 463:Generated_Source\PSoC5/ErikaOS_1_ee_altick.c ****         if ( nextOffset > 0U ) {
 464:Generated_Source\PSoC5/ErikaOS_1_ee_altick.c ****           /* This is an Hack to let alarm handling cycle reschedule the schedule
 465:Generated_Source\PSoC5/ErikaOS_1_ee_altick.c ****              table alarm with the right offset (increment) */
 466:Generated_Source\PSoC5/ErikaOS_1_ee_altick.c ****           EE_oo_counter_object_RAM[EE_MAX_ALARM + STId].cntcycle = nextOffset;
 467:Generated_Source\PSoC5/ErikaOS_1_ee_altick.c ****           /* Exit From The Loop */
 468:Generated_Source\PSoC5/ErikaOS_1_ee_altick.c ****           STId = INVALID_SCHEDULETABLE;
 469:Generated_Source\PSoC5/ErikaOS_1_ee_altick.c ****         }
 470:Generated_Source\PSoC5/ErikaOS_1_ee_altick.c ****       }
 471:Generated_Source\PSoC5/ErikaOS_1_ee_altick.c ****     } else {
 472:Generated_Source\PSoC5/ErikaOS_1_ee_altick.c ****       /* Get the Expiry point */
 473:Generated_Source\PSoC5/ErikaOS_1_ee_altick.c ****       p_expiry_point =  &EE_as_Expiry_Point_ROM[expiry_position];
 474:Generated_Source\PSoC5/ErikaOS_1_ee_altick.c ****       for ( i = p_expiry_point->actions_first;
 475:Generated_Source\PSoC5/ErikaOS_1_ee_altick.c ****             i <= p_expiry_point->actions_last; ++i )
 476:Generated_Source\PSoC5/ErikaOS_1_ee_altick.c ****       {
 477:Generated_Source\PSoC5/ErikaOS_1_ee_altick.c ****         /* Execute the action */
 478:Generated_Source\PSoC5/ErikaOS_1_ee_altick.c ****         EE_oo_handle_action( &EE_oo_action_ROM[i] );
 479:Generated_Source\PSoC5/ErikaOS_1_ee_altick.c ****       }
 480:Generated_Source\PSoC5/ErikaOS_1_ee_altick.c **** 
 481:Generated_Source\PSoC5/ErikaOS_1_ee_altick.c ****       /* Handle next expiry point insertion in alarm queue */
 482:Generated_Source\PSoC5/ErikaOS_1_ee_altick.c ****       /* if it is the last expiry point and if this is not a repeating
 483:Generated_Source\PSoC5/ErikaOS_1_ee_altick.c ****          schedule table, handle next schedule table or stop it */
 484:Generated_Source\PSoC5/ErikaOS_1_ee_altick.c ****       if ( expiry_position == p_schedule_table_ROM->expiry_point_last )
 485:Generated_Source\PSoC5/ErikaOS_1_ee_altick.c ****       {
 486:Generated_Source\PSoC5/ErikaOS_1_ee_altick.c ****         /* We reached the end of schedule table so we stop it */
 487:Generated_Source\PSoC5/ErikaOS_1_ee_altick.c ****         if ( (p_schedule_table_RAM->next_table == INVALID_SCHEDULETABLE) &&
 488:Generated_Source\PSoC5/ErikaOS_1_ee_altick.c ****            (p_schedule_table_ROM->repeated == 0) )
 489:Generated_Source\PSoC5/ErikaOS_1_ee_altick.c ****         {
 490:Generated_Source\PSoC5/ErikaOS_1_ee_altick.c ****           /* [SWS_Os_00009] If the schedule table is single-shot, the Operating
 491:Generated_Source\PSoC5/ErikaOS_1_ee_altick.c ****              System module shall stop the processing of the schedule table
 492:Generated_Source\PSoC5/ErikaOS_1_ee_altick.c ****              Final Delay ticks after the Final Expiry Point is processed. */
 493:Generated_Source\PSoC5/ErikaOS_1_ee_altick.c ****           p_schedule_table_RAM->status     = SCHEDULETABLE_STOPPED;
 494:Generated_Source\PSoC5/ErikaOS_1_ee_altick.c ****           /*  This is needed to stop the underlying alarm tied to the schedule
 495:Generated_Source\PSoC5/ErikaOS_1_ee_altick.c ****               table, otherwise the alarm handling cycle will be reschedule this
 496:Generated_Source\PSoC5/ErikaOS_1_ee_altick.c ****               alarm */
 497:Generated_Source\PSoC5/ErikaOS_1_ee_altick.c ****           EE_oo_counter_object_RAM[EE_MAX_ALARM + STId].cntcycle = 0;
 498:Generated_Source\PSoC5/ErikaOS_1_ee_altick.c ****           /* Exit From The Loop */
 499:Generated_Source\PSoC5/ErikaOS_1_ee_altick.c ****           STId = INVALID_SCHEDULETABLE;
 500:Generated_Source\PSoC5/ErikaOS_1_ee_altick.c ****         } else {
 501:Generated_Source\PSoC5/ErikaOS_1_ee_altick.c ****           /* Schedule the final delay for original schedule table */
 502:Generated_Source\PSoC5/ErikaOS_1_ee_altick.c ****           p_schedule_table_RAM->position = INVALID_SCHEDULETABLE_POSITION;
 503:Generated_Source\PSoC5/ErikaOS_1_ee_altick.c ****           /* [OS427] If the schedule table is single-shot, the Operating System
 504:Generated_Source\PSoC5/ErikaOS_1_ee_altick.c ****               module shall allow a Final Delay between
 505:Generated_Source\PSoC5/ErikaOS_1_ee_altick.c ****               0 .. OsCounterMaxAllowedValue of the underlying counter. */
 506:Generated_Source\PSoC5/ErikaOS_1_ee_altick.c ****           /* This is an Hack to let alarm handling cycle reschedule the schedule
 507:Generated_Source\PSoC5/ErikaOS_1_ee_altick.c ****               table alarm with the right offset (increment) */
 508:Generated_Source\PSoC5/ErikaOS_1_ee_altick.c ****           /* XXX: The final delay it's any value between
ARM GAS  C:\Users\Asus\AppData\Local\Temp\cc4NRN5T.s 			page 29


 509:Generated_Source\PSoC5/ErikaOS_1_ee_altick.c ****               0 .. OsCounterMaxAllowedValue. This means that I could have a
 510:Generated_Source\PSoC5/ErikaOS_1_ee_altick.c ****               EE_oo_counter_object_RAM.cycle variable wrap around if I would
 511:Generated_Source\PSoC5/ErikaOS_1_ee_altick.c ****               sum an Initial Expiry Point Initial Offset directly here,
 512:Generated_Source\PSoC5/ErikaOS_1_ee_altick.c ****               instead I will handle this case as I have done for the
 513:Generated_Source\PSoC5/ErikaOS_1_ee_altick.c ****               'next table' */
 514:Generated_Source\PSoC5/ErikaOS_1_ee_altick.c ****           if ( p_schedule_table_ROM->duration > p_expiry_point->offset ) {
 515:Generated_Source\PSoC5/ErikaOS_1_ee_altick.c ****             EE_oo_counter_object_RAM[EE_MAX_ALARM + STId].cntcycle =
 516:Generated_Source\PSoC5/ErikaOS_1_ee_altick.c ****               p_schedule_table_ROM->duration - p_expiry_point->offset;
 517:Generated_Source\PSoC5/ErikaOS_1_ee_altick.c ****             /* Exit From The Loop */
 518:Generated_Source\PSoC5/ErikaOS_1_ee_altick.c ****             STId = INVALID_SCHEDULETABLE;
 519:Generated_Source\PSoC5/ErikaOS_1_ee_altick.c ****           }
 520:Generated_Source\PSoC5/ErikaOS_1_ee_altick.c ****         }
 521:Generated_Source\PSoC5/ErikaOS_1_ee_altick.c ****       } else {
 522:Generated_Source\PSoC5/ErikaOS_1_ee_altick.c ****         if ( p_schedule_table_ROM->sync_strategy != EE_SCHEDTABLE_SYNC_NONE ) {
 523:Generated_Source\PSoC5/ErikaOS_1_ee_altick.c ****           /* *** TODO: HANDLE SYNCRONIZATION *** */
 524:Generated_Source\PSoC5/ErikaOS_1_ee_altick.c ****         }
 525:Generated_Source\PSoC5/ErikaOS_1_ee_altick.c ****         /* Schedule the next expiry point */
 526:Generated_Source\PSoC5/ErikaOS_1_ee_altick.c ****         ++expiry_position;
 527:Generated_Source\PSoC5/ErikaOS_1_ee_altick.c ****         p_schedule_table_RAM->position = expiry_position;
 528:Generated_Source\PSoC5/ErikaOS_1_ee_altick.c ****         nextOffset = EE_as_Expiry_Point_ROM[expiry_position].offset;
 529:Generated_Source\PSoC5/ErikaOS_1_ee_altick.c ****         if ( nextOffset > p_expiry_point->offset ) {
 530:Generated_Source\PSoC5/ErikaOS_1_ee_altick.c ****           /* This is an Hack to let alarm handling cycle reschedule the schedule
 531:Generated_Source\PSoC5/ErikaOS_1_ee_altick.c ****              table alarm with the right offset (increment) */
 532:Generated_Source\PSoC5/ErikaOS_1_ee_altick.c ****           EE_oo_counter_object_RAM[EE_MAX_ALARM + STId].cntcycle =
 533:Generated_Source\PSoC5/ErikaOS_1_ee_altick.c ****             nextOffset - p_expiry_point->offset;
 534:Generated_Source\PSoC5/ErikaOS_1_ee_altick.c ****           /* Exit From The Loop */
 535:Generated_Source\PSoC5/ErikaOS_1_ee_altick.c ****           STId = INVALID_SCHEDULETABLE;
 536:Generated_Source\PSoC5/ErikaOS_1_ee_altick.c ****         }
 537:Generated_Source\PSoC5/ErikaOS_1_ee_altick.c ****       }
 538:Generated_Source\PSoC5/ErikaOS_1_ee_altick.c ****     }
 539:Generated_Source\PSoC5/ErikaOS_1_ee_altick.c ****   } while ( STId != INVALID_SCHEDULETABLE );
 540:Generated_Source\PSoC5/ErikaOS_1_ee_altick.c **** }
 541:Generated_Source\PSoC5/ErikaOS_1_ee_altick.c **** #endif /* EE_MAX_SCHEDULETABLE > 0 */
 542:Generated_Source\PSoC5/ErikaOS_1_ee_altick.c **** #endif /* EE_AS_SCHEDULETABLES__ */
 543:Generated_Source\PSoC5/ErikaOS_1_ee_altick.c **** 
 544:Generated_Source\PSoC5/ErikaOS_1_ee_altick.c **** void EE_oo_IncrementCounterImplementation(CounterType CounterID)
 545:Generated_Source\PSoC5/ErikaOS_1_ee_altick.c **** {
 412              		.loc 1 545 0
 413              		.cfi_startproc
 414              		@ args = 0, pretend = 0, frame = 0
 415              		@ frame_needed = 0, uses_anonymous_args = 0
 416              	.LVL42:
 417 0000 38B5     		push	{r3, r4, r5, lr}
 418              		.cfi_def_cfa_offset 16
 419              		.cfi_offset 3, -16
 420              		.cfi_offset 4, -12
 421              		.cfi_offset 5, -8
 422              		.cfi_offset 14, -4
 546:Generated_Source\PSoC5/ErikaOS_1_ee_altick.c ****   /* to_fire: Is the head of the splitted queue that have to be served at this
 547:Generated_Source\PSoC5/ErikaOS_1_ee_altick.c ****               counter tick. */
 548:Generated_Source\PSoC5/ErikaOS_1_ee_altick.c ****   register CounterObjectType to_fire = EE_counter_RAM[CounterID].first;
 423              		.loc 1 548 0
 424 0002 394A     		ldr	r2, .L53
 425 0004 02EBC003 		add	r3, r2, r0, lsl #3
 426 0008 5C68     		ldr	r4, [r3, #4]
 427              	.LVL43:
 549:Generated_Source\PSoC5/ErikaOS_1_ee_altick.c **** 
ARM GAS  C:\Users\Asus\AppData\Local\Temp\cc4NRN5T.s 			page 30


 550:Generated_Source\PSoC5/ErikaOS_1_ee_altick.c ****   /* Increment the counter value or reset it when overcome maxallowedvalue.
 551:Generated_Source\PSoC5/ErikaOS_1_ee_altick.c ****      I need this behaviour for AS services GetCounterValue and GetElapsedValue
 552:Generated_Source\PSoC5/ErikaOS_1_ee_altick.c ****    */
 553:Generated_Source\PSoC5/ErikaOS_1_ee_altick.c ****   EE_counter_RAM[CounterID].value += 1U;
 428              		.loc 1 553 0
 429 000a 52F83030 		ldr	r3, [r2, r0, lsl #3]
 430 000e 0133     		adds	r3, r3, #1
 431 0010 42F83030 		str	r3, [r2, r0, lsl #3]
 554:Generated_Source\PSoC5/ErikaOS_1_ee_altick.c ****   if (EE_counter_RAM[CounterID].value >
 555:Generated_Source\PSoC5/ErikaOS_1_ee_altick.c ****       EE_counter_ROM[CounterID].maxallowedvalue)
 432              		.loc 1 555 0
 433 0014 00EB4001 		add	r1, r0, r0, lsl #1
 434 0018 8A00     		lsls	r2, r1, #2
 435 001a 3449     		ldr	r1, .L53+4
 436 001c 8A58     		ldr	r2, [r1, r2]
 554:Generated_Source\PSoC5/ErikaOS_1_ee_altick.c ****   if (EE_counter_RAM[CounterID].value >
 437              		.loc 1 554 0
 438 001e 9342     		cmp	r3, r2
 439 0020 03D9     		bls	.L39
 556:Generated_Source\PSoC5/ErikaOS_1_ee_altick.c ****   {
 557:Generated_Source\PSoC5/ErikaOS_1_ee_altick.c ****     EE_counter_RAM[CounterID].value = 0U;
 440              		.loc 1 557 0
 441 0022 0022     		movs	r2, #0
 442 0024 304B     		ldr	r3, .L53
 443 0026 43F83020 		str	r2, [r3, r0, lsl #3]
 444              	.L39:
 558:Generated_Source\PSoC5/ErikaOS_1_ee_altick.c ****   }
 559:Generated_Source\PSoC5/ErikaOS_1_ee_altick.c **** 
 560:Generated_Source\PSoC5/ErikaOS_1_ee_altick.c ****   /* I split Alarm queue in two: The queue that SHALL be handled at this tick
 561:Generated_Source\PSoC5/ErikaOS_1_ee_altick.c ****      and the remainder.
 562:Generated_Source\PSoC5/ErikaOS_1_ee_altick.c ****      current & previous are double indexes used to split the alarm queue.
 563:Generated_Source\PSoC5/ErikaOS_1_ee_altick.c ****    */
 564:Generated_Source\PSoC5/ErikaOS_1_ee_altick.c ****   /* If the alarm queue is empty I have to do nothing */
 565:Generated_Source\PSoC5/ErikaOS_1_ee_altick.c ****   if ( to_fire != INVALID_COUNTER_OBJECT ) {
 445              		.loc 1 565 0
 446 002a B4F1FF3F 		cmp	r4, #-1
 447 002e 59D0     		beq	.L38
 566:Generated_Source\PSoC5/ErikaOS_1_ee_altick.c ****     /* If the head of alarm queue has not delta equal to zero I have only
 567:Generated_Source\PSoC5/ErikaOS_1_ee_altick.c ****        to decrement the first alarm delta    */
 568:Generated_Source\PSoC5/ErikaOS_1_ee_altick.c ****     if (EE_oo_counter_object_RAM[to_fire].delta == 0U) {
 448              		.loc 1 568 0
 449 0030 2F4B     		ldr	r3, .L53+8
 450 0032 03EB0413 		add	r3, r3, r4, lsl #4
 451 0036 9B68     		ldr	r3, [r3, #8]
 452 0038 002B     		cmp	r3, #0
 453 003a 4ED1     		bne	.L41
 454 003c 2146     		mov	r1, r4
 455 003e 00E0     		b	.L43
 456              	.LVL44:
 457              	.L50:
 458              	.LBB70:
 569:Generated_Source\PSoC5/ErikaOS_1_ee_altick.c ****       /* current point to the first alarm at the beginning */
 570:Generated_Source\PSoC5/ErikaOS_1_ee_altick.c ****       register CounterObjectType current = to_fire;
 571:Generated_Source\PSoC5/ErikaOS_1_ee_altick.c ****       /* previous: Is a temporary copy of the index used as utility */
 572:Generated_Source\PSoC5/ErikaOS_1_ee_altick.c ****       register CounterObjectType previous;
 573:Generated_Source\PSoC5/ErikaOS_1_ee_altick.c **** 
 574:Generated_Source\PSoC5/ErikaOS_1_ee_altick.c ****       do {
ARM GAS  C:\Users\Asus\AppData\Local\Temp\cc4NRN5T.s 			page 31


 575:Generated_Source\PSoC5/ErikaOS_1_ee_altick.c ****         /* Now I will use previous to hold the previous checked alarm */
 576:Generated_Source\PSoC5/ErikaOS_1_ee_altick.c ****         previous = current;
 577:Generated_Source\PSoC5/ErikaOS_1_ee_altick.c ****         current = EE_oo_counter_object_RAM[current].next;
 459              		.loc 1 577 0
 460 0040 1946     		mov	r1, r3
 461              	.LVL45:
 462              	.L43:
 463 0042 2B4B     		ldr	r3, .L53+8
 464 0044 03EB0113 		add	r3, r3, r1, lsl #4
 465 0048 DB68     		ldr	r3, [r3, #12]
 466              	.LVL46:
 578:Generated_Source\PSoC5/ErikaOS_1_ee_altick.c ****       } while ( (current != INVALID_COUNTER_OBJECT) &&
 579:Generated_Source\PSoC5/ErikaOS_1_ee_altick.c ****           (EE_oo_counter_object_RAM[current].delta == 0U) );
 467              		.loc 1 579 0
 468 004a B3F1FF3F 		cmp	r3, #-1
 469 004e 05D0     		beq	.L42
 470              		.loc 1 579 0 is_stmt 0 discriminator 1
 471 0050 274A     		ldr	r2, .L53+8
 472 0052 02EB0312 		add	r2, r2, r3, lsl #4
 473 0056 9268     		ldr	r2, [r2, #8]
 578:Generated_Source\PSoC5/ErikaOS_1_ee_altick.c ****       } while ( (current != INVALID_COUNTER_OBJECT) &&
 474              		.loc 1 578 0 is_stmt 1 discriminator 1
 475 0058 002A     		cmp	r2, #0
 476 005a F1D0     		beq	.L50
 477              	.L42:
 580:Generated_Source\PSoC5/ErikaOS_1_ee_altick.c **** 
 581:Generated_Source\PSoC5/ErikaOS_1_ee_altick.c ****       /* I set the end of handled queue */
 582:Generated_Source\PSoC5/ErikaOS_1_ee_altick.c ****       EE_oo_counter_object_RAM[previous].next = INVALID_COUNTER_OBJECT;
 478              		.loc 1 582 0
 479 005c 244A     		ldr	r2, .L53+8
 480 005e 02EB0111 		add	r1, r2, r1, lsl #4
 481              	.LVL47:
 482 0062 4FF0FF32 		mov	r2, #-1
 483 0066 CA60     		str	r2, [r1, #12]
 583:Generated_Source\PSoC5/ErikaOS_1_ee_altick.c **** 
 584:Generated_Source\PSoC5/ErikaOS_1_ee_altick.c ****       /* I set the head of the alarm queue to the current value (maybe -1) */
 585:Generated_Source\PSoC5/ErikaOS_1_ee_altick.c ****       EE_counter_RAM[CounterID].first = current;
 484              		.loc 1 585 0
 485 0068 1F4A     		ldr	r2, .L53
 486 006a 02EBC000 		add	r0, r2, r0, lsl #3
 487              	.LVL48:
 488 006e 4360     		str	r3, [r0, #4]
 586:Generated_Source\PSoC5/ErikaOS_1_ee_altick.c **** 
 587:Generated_Source\PSoC5/ErikaOS_1_ee_altick.c ****       /* If not empty I decrement the first alarm delta in queue */
 588:Generated_Source\PSoC5/ErikaOS_1_ee_altick.c ****       if ( current != INVALID_COUNTER_OBJECT ) {
 489              		.loc 1 588 0
 490 0070 B3F1FF3F 		cmp	r3, #-1
 491 0074 07D0     		beq	.L49
 589:Generated_Source\PSoC5/ErikaOS_1_ee_altick.c ****         --EE_oo_counter_object_RAM[current].delta;
 492              		.loc 1 589 0
 493 0076 1E4A     		ldr	r2, .L53+8
 494 0078 02EB0313 		add	r3, r2, r3, lsl #4
 495              	.LVL49:
 496 007c 9A68     		ldr	r2, [r3, #8]
 497 007e 013A     		subs	r2, r2, #1
 498 0080 9A60     		str	r2, [r3, #8]
 499 0082 00E0     		b	.L49
ARM GAS  C:\Users\Asus\AppData\Local\Temp\cc4NRN5T.s 			page 32


 500              	.LVL50:
 501              	.L51:
 590:Generated_Source\PSoC5/ErikaOS_1_ee_altick.c ****       }
 591:Generated_Source\PSoC5/ErikaOS_1_ee_altick.c **** 
 592:Generated_Source\PSoC5/ErikaOS_1_ee_altick.c ****       /* Handle the alarm queue active at this tick */
 593:Generated_Source\PSoC5/ErikaOS_1_ee_altick.c ****       do {
 594:Generated_Source\PSoC5/ErikaOS_1_ee_altick.c ****         /* Select which handler call */
 595:Generated_Source\PSoC5/ErikaOS_1_ee_altick.c ****         switch ( EE_oo_counter_object_ROM[to_fire].kind ) {
 596:Generated_Source\PSoC5/ErikaOS_1_ee_altick.c **** #if (defined(EE_MAX_ALARM)) && (EE_MAX_ALARM > 0U)
 597:Generated_Source\PSoC5/ErikaOS_1_ee_altick.c ****           case EE_ALARM:
 598:Generated_Source\PSoC5/ErikaOS_1_ee_altick.c ****     
 599:Generated_Source\PSoC5/ErikaOS_1_ee_altick.c **** #if (__OO_configUSE_TRACE_FACILITY == 1)
 600:Generated_Source\PSoC5/ErikaOS_1_ee_altick.c ****     {
 601:Generated_Source\PSoC5/ErikaOS_1_ee_altick.c ****         unsigned int alarmID;
 602:Generated_Source\PSoC5/ErikaOS_1_ee_altick.c ****         alarmID = EE_oo_counter_object_ROM[to_fire].spec_id;
 603:Generated_Source\PSoC5/ErikaOS_1_ee_altick.c ****         EE_oo_action_ROM_type *p_traceAction = &EE_oo_action_ROM[EE_alarm_ROM[
 604:Generated_Source\PSoC5/ErikaOS_1_ee_altick.c ****                   EE_oo_counter_object_ROM[to_fire].spec_id].action_id];
 605:Generated_Source\PSoC5/ErikaOS_1_ee_altick.c ****         if(EE_ACTION_TASK == p_traceAction->action_kind)
 606:Generated_Source\PSoC5/ErikaOS_1_ee_altick.c ****         {
 607:Generated_Source\PSoC5/ErikaOS_1_ee_altick.c ****             traceALARM_ACTION_ACTIVATE_TASK(alarmID, p_traceAction->action_task);
 608:Generated_Source\PSoC5/ErikaOS_1_ee_altick.c ****         }
 609:Generated_Source\PSoC5/ErikaOS_1_ee_altick.c ****         if(EE_ACTION_CALLBACK == p_traceAction->action_kind)
 610:Generated_Source\PSoC5/ErikaOS_1_ee_altick.c ****         {
 611:Generated_Source\PSoC5/ErikaOS_1_ee_altick.c ****             //traceALARM_ACTION_CALLBACK(alarmID);
 612:Generated_Source\PSoC5/ErikaOS_1_ee_altick.c ****         }
 613:Generated_Source\PSoC5/ErikaOS_1_ee_altick.c ****     }
 614:Generated_Source\PSoC5/ErikaOS_1_ee_altick.c **** 
 615:Generated_Source\PSoC5/ErikaOS_1_ee_altick.c **** #endif
 616:Generated_Source\PSoC5/ErikaOS_1_ee_altick.c ****             EE_oo_handle_action(&EE_oo_action_ROM[EE_alarm_ROM[
 617:Generated_Source\PSoC5/ErikaOS_1_ee_altick.c ****               EE_oo_counter_object_ROM[to_fire].spec_id].action_id]);
 618:Generated_Source\PSoC5/ErikaOS_1_ee_altick.c ****               break;
 619:Generated_Source\PSoC5/ErikaOS_1_ee_altick.c **** #endif /* EE_MAX_ALARM > 0 */
 620:Generated_Source\PSoC5/ErikaOS_1_ee_altick.c **** #ifdef EE_AS_SCHEDULETABLES__
 621:Generated_Source\PSoC5/ErikaOS_1_ee_altick.c **** #if (defined(EE_MAX_SCHEDULETABLE)) && (EE_MAX_SCHEDULETABLE > 0)
 622:Generated_Source\PSoC5/ErikaOS_1_ee_altick.c ****           case EE_SCHEDULETABLE:
 623:Generated_Source\PSoC5/ErikaOS_1_ee_altick.c ****               EE_as_handle_schedule_table(EE_oo_counter_object_ROM[to_fire].
 624:Generated_Source\PSoC5/ErikaOS_1_ee_altick.c ****                 spec_id);
 625:Generated_Source\PSoC5/ErikaOS_1_ee_altick.c ****               break;
 626:Generated_Source\PSoC5/ErikaOS_1_ee_altick.c **** #endif /* EE_MAX_SCHEDULETABLE > 0 */
 627:Generated_Source\PSoC5/ErikaOS_1_ee_altick.c **** #endif /* EE_AS_SCHEDULETABLES__ */
 628:Generated_Source\PSoC5/ErikaOS_1_ee_altick.c ****           default:
 629:Generated_Source\PSoC5/ErikaOS_1_ee_altick.c ****             /* Invalid counter object kind: this should never happen, as
 630:Generated_Source\PSoC5/ErikaOS_1_ee_altick.c ****                `counter object` is initialized by RT-Druid */
 631:Generated_Source\PSoC5/ErikaOS_1_ee_altick.c ****              break;
 632:Generated_Source\PSoC5/ErikaOS_1_ee_altick.c ****         }
 633:Generated_Source\PSoC5/ErikaOS_1_ee_altick.c **** 
 634:Generated_Source\PSoC5/ErikaOS_1_ee_altick.c ****         /* Save the actual alarm in previous and get the next to be executed */
 635:Generated_Source\PSoC5/ErikaOS_1_ee_altick.c ****         previous = to_fire;
 636:Generated_Source\PSoC5/ErikaOS_1_ee_altick.c ****         to_fire = EE_oo_counter_object_RAM[to_fire].next;
 502              		.loc 1 636 0
 503 0084 2C46     		mov	r4, r5
 504              	.LVL51:
 505              	.L49:
 595:Generated_Source\PSoC5/ErikaOS_1_ee_altick.c **** #if (defined(EE_MAX_ALARM)) && (EE_MAX_ALARM > 0U)
 506              		.loc 1 595 0
 507 0086 04EB4402 		add	r2, r4, r4, lsl #1
 508 008a 9300     		lsls	r3, r2, #2
ARM GAS  C:\Users\Asus\AppData\Local\Temp\cc4NRN5T.s 			page 33


 509 008c 194A     		ldr	r2, .L53+12
 510 008e 1344     		add	r3, r3, r2
 511 0090 1B7A     		ldrb	r3, [r3, #8]	@ zero_extendqisi2
 512 0092 7BB9     		cbnz	r3, .L45
 617:Generated_Source\PSoC5/ErikaOS_1_ee_altick.c ****               break;
 513              		.loc 1 617 0
 514 0094 04EB4402 		add	r2, r4, r4, lsl #1
 515 0098 9300     		lsls	r3, r2, #2
 516 009a 164A     		ldr	r2, .L53+12
 517 009c 1344     		add	r3, r3, r2
 518 009e 5A68     		ldr	r2, [r3, #4]
 519 00a0 154B     		ldr	r3, .L53+16
 520 00a2 53F82230 		ldr	r3, [r3, r2, lsl #2]
 616:Generated_Source\PSoC5/ErikaOS_1_ee_altick.c ****               EE_oo_counter_object_ROM[to_fire].spec_id].action_id]);
 521              		.loc 1 616 0
 522 00a6 03EB8303 		add	r3, r3, r3, lsl #2
 523 00aa 9A00     		lsls	r2, r3, #2
 524 00ac 1348     		ldr	r0, .L53+20
 525 00ae 1044     		add	r0, r0, r2
 526 00b0 FFF7FEFF 		bl	EE_oo_handle_action
 527              	.LVL52:
 528              	.L45:
 529              		.loc 1 636 0
 530 00b4 0E4B     		ldr	r3, .L53+8
 531 00b6 03EB0413 		add	r3, r3, r4, lsl #4
 532 00ba DD68     		ldr	r5, [r3, #12]
 533              	.LVL53:
 637:Generated_Source\PSoC5/ErikaOS_1_ee_altick.c **** 
 638:Generated_Source\PSoC5/ErikaOS_1_ee_altick.c ****         /* The previous alarm is cyclic? */
 639:Generated_Source\PSoC5/ErikaOS_1_ee_altick.c ****         if (EE_oo_counter_object_RAM[previous].cntcycle > 0U) {
 534              		.loc 1 639 0
 535 00bc 5968     		ldr	r1, [r3, #4]
 536 00be 21B1     		cbz	r1, .L47
 640:Generated_Source\PSoC5/ErikaOS_1_ee_altick.c ****           /* Enqueue it again */
 641:Generated_Source\PSoC5/ErikaOS_1_ee_altick.c ****           EE_oo_counter_object_insert(previous,
 537              		.loc 1 641 0
 538 00c0 0139     		subs	r1, r1, #1
 539 00c2 2046     		mov	r0, r4
 540 00c4 FFF7FEFF 		bl	EE_oo_counter_object_insert
 541              	.LVL54:
 542 00c8 03E0     		b	.L48
 543              	.L47:
 642:Generated_Source\PSoC5/ErikaOS_1_ee_altick.c ****             (EE_oo_counter_object_RAM[previous].cntcycle - 1U));
 643:Generated_Source\PSoC5/ErikaOS_1_ee_altick.c ****         } else {
 644:Generated_Source\PSoC5/ErikaOS_1_ee_altick.c ****           /* Counter Object no more used! */
 645:Generated_Source\PSoC5/ErikaOS_1_ee_altick.c ****           EE_oo_counter_object_RAM[previous].used = EE_FALSE;
 544              		.loc 1 645 0
 545 00ca 2401     		lsls	r4, r4, #4
 546              	.LVL55:
 547 00cc 0022     		movs	r2, #0
 548 00ce 084B     		ldr	r3, .L53+8
 549 00d0 1A51     		str	r2, [r3, r4]
 550              	.L48:
 646:Generated_Source\PSoC5/ErikaOS_1_ee_altick.c ****         }
 647:Generated_Source\PSoC5/ErikaOS_1_ee_altick.c ****       } while ( to_fire != INVALID_COUNTER_OBJECT );
 551              		.loc 1 647 0
 552 00d2 B5F1FF3F 		cmp	r5, #-1
ARM GAS  C:\Users\Asus\AppData\Local\Temp\cc4NRN5T.s 			page 34


 553 00d6 D5D1     		bne	.L51
 554 00d8 38BD     		pop	{r3, r4, r5, pc}
 555              	.LVL56:
 556              	.L41:
 557              	.LBE70:
 648:Generated_Source\PSoC5/ErikaOS_1_ee_altick.c ****     } else {
 649:Generated_Source\PSoC5/ErikaOS_1_ee_altick.c ****       /* I do not handle any alarm but I have to decrement the first delta */
 650:Generated_Source\PSoC5/ErikaOS_1_ee_altick.c ****       --EE_oo_counter_object_RAM[to_fire].delta;
 558              		.loc 1 650 0
 559 00da 054A     		ldr	r2, .L53+8
 560 00dc 02EB0414 		add	r4, r2, r4, lsl #4
 561              	.LVL57:
 562 00e0 013B     		subs	r3, r3, #1
 563 00e2 A360     		str	r3, [r4, #8]
 564              	.L38:
 565 00e4 38BD     		pop	{r3, r4, r5, pc}
 566              	.L54:
 567 00e6 00BF     		.align	2
 568              	.L53:
 569 00e8 00000000 		.word	EE_counter_RAM
 570 00ec 00000000 		.word	EE_counter_ROM
 571 00f0 00000000 		.word	EE_oo_counter_object_RAM
 572 00f4 00000000 		.word	EE_oo_counter_object_ROM
 573 00f8 00000000 		.word	EE_alarm_ROM
 574 00fc 00000000 		.word	EE_oo_action_ROM
 575              		.cfi_endproc
 576              	.LFE75:
 577              		.size	EE_oo_IncrementCounterImplementation, .-EE_oo_IncrementCounterImplementation
 578              		.section	.text.EE_oo_IncrementCounterHardware,"ax",%progbits
 579              		.align	2
 580              		.global	EE_oo_IncrementCounterHardware
 581              		.thumb
 582              		.thumb_func
 583              		.type	EE_oo_IncrementCounterHardware, %function
 584              	EE_oo_IncrementCounterHardware:
 585              	.LFB76:
 651:Generated_Source\PSoC5/ErikaOS_1_ee_altick.c ****     }
 652:Generated_Source\PSoC5/ErikaOS_1_ee_altick.c ****   }
 653:Generated_Source\PSoC5/ErikaOS_1_ee_altick.c **** }
 654:Generated_Source\PSoC5/ErikaOS_1_ee_altick.c **** 
 655:Generated_Source\PSoC5/ErikaOS_1_ee_altick.c **** /* Flag from wich index software counters starts */
 656:Generated_Source\PSoC5/ErikaOS_1_ee_altick.c **** #ifdef EE_MAX_COUNTER_HW
 657:Generated_Source\PSoC5/ErikaOS_1_ee_altick.c **** #define EE_SOFT_COUNTERS_START EE_MAX_COUNTER_HW
 658:Generated_Source\PSoC5/ErikaOS_1_ee_altick.c **** #else
 659:Generated_Source\PSoC5/ErikaOS_1_ee_altick.c **** #define EE_SOFT_COUNTERS_START 0
 660:Generated_Source\PSoC5/ErikaOS_1_ee_altick.c **** #endif /* EE_MAX_COUNTER_HW */
 661:Generated_Source\PSoC5/ErikaOS_1_ee_altick.c **** 
 662:Generated_Source\PSoC5/ErikaOS_1_ee_altick.c **** /* Internal primitive */
 663:Generated_Source\PSoC5/ErikaOS_1_ee_altick.c **** StatusType EE_oo_IncrementCounterHardware(CounterType CounterID)
 664:Generated_Source\PSoC5/ErikaOS_1_ee_altick.c **** {
 586              		.loc 1 664 0
 587              		.cfi_startproc
 588              		@ args = 0, pretend = 0, frame = 0
 589              		@ frame_needed = 0, uses_anonymous_args = 0
 590              	.LVL58:
 591 0000 10B5     		push	{r4, lr}
 592              		.cfi_def_cfa_offset 8
ARM GAS  C:\Users\Asus\AppData\Local\Temp\cc4NRN5T.s 			page 35


 593              		.cfi_offset 4, -8
 594              		.cfi_offset 14, -4
 595              	.LBB71:
 596              	.LBB72:
 597              	.LBB73:
 598              		.file 3 "Generated_Source\\PSoC5\\ErikaOS_1_cortex_mx_ee_cpu.inc"
   1:Generated_Source\PSoC5/ErikaOS_1_cortex_mx_ee_cpu.inc **** /* ###*B*###
   2:Generated_Source\PSoC5/ErikaOS_1_cortex_mx_ee_cpu.inc ****  * ERIKA Enterprise - a tiny RTOS for small microcontrollers
   3:Generated_Source\PSoC5/ErikaOS_1_cortex_mx_ee_cpu.inc ****  *
   4:Generated_Source\PSoC5/ErikaOS_1_cortex_mx_ee_cpu.inc ****  * Copyright (C) 2002-2011  Evidence Srl
   5:Generated_Source\PSoC5/ErikaOS_1_cortex_mx_ee_cpu.inc ****  *
   6:Generated_Source\PSoC5/ErikaOS_1_cortex_mx_ee_cpu.inc ****  * This file is part of ERIKA Enterprise.
   7:Generated_Source\PSoC5/ErikaOS_1_cortex_mx_ee_cpu.inc ****  *
   8:Generated_Source\PSoC5/ErikaOS_1_cortex_mx_ee_cpu.inc ****  * ERIKA Enterprise is free software; you can redistribute it
   9:Generated_Source\PSoC5/ErikaOS_1_cortex_mx_ee_cpu.inc ****  * and/or modify it under the terms of the GNU General Public License
  10:Generated_Source\PSoC5/ErikaOS_1_cortex_mx_ee_cpu.inc ****  * version 2 as published by the Free Software Foundation, 
  11:Generated_Source\PSoC5/ErikaOS_1_cortex_mx_ee_cpu.inc ****  * (with a special exception described below).
  12:Generated_Source\PSoC5/ErikaOS_1_cortex_mx_ee_cpu.inc ****  *
  13:Generated_Source\PSoC5/ErikaOS_1_cortex_mx_ee_cpu.inc ****  * Linking this code statically or dynamically with other modules is
  14:Generated_Source\PSoC5/ErikaOS_1_cortex_mx_ee_cpu.inc ****  * making a combined work based on this code.  Thus, the terms and
  15:Generated_Source\PSoC5/ErikaOS_1_cortex_mx_ee_cpu.inc ****  * conditions of the GNU General Public License cover the whole
  16:Generated_Source\PSoC5/ErikaOS_1_cortex_mx_ee_cpu.inc ****  * combination.
  17:Generated_Source\PSoC5/ErikaOS_1_cortex_mx_ee_cpu.inc ****  *
  18:Generated_Source\PSoC5/ErikaOS_1_cortex_mx_ee_cpu.inc ****  * As a special exception, the copyright holders of this library give you
  19:Generated_Source\PSoC5/ErikaOS_1_cortex_mx_ee_cpu.inc ****  * permission to link this code with independent modules to produce an
  20:Generated_Source\PSoC5/ErikaOS_1_cortex_mx_ee_cpu.inc ****  * executable, regardless of the license terms of these independent
  21:Generated_Source\PSoC5/ErikaOS_1_cortex_mx_ee_cpu.inc ****  * modules, and to copy and distribute the resulting executable under
  22:Generated_Source\PSoC5/ErikaOS_1_cortex_mx_ee_cpu.inc ****  * terms of your choice, provided that you also meet, for each linked
  23:Generated_Source\PSoC5/ErikaOS_1_cortex_mx_ee_cpu.inc ****  * independent module, the terms and conditions of the license of that
  24:Generated_Source\PSoC5/ErikaOS_1_cortex_mx_ee_cpu.inc ****  * module.  An independent module is a module which is not derived from
  25:Generated_Source\PSoC5/ErikaOS_1_cortex_mx_ee_cpu.inc ****  * or based on this library.  If you modify this code, you may extend
  26:Generated_Source\PSoC5/ErikaOS_1_cortex_mx_ee_cpu.inc ****  * this exception to your version of the code, but you are not
  27:Generated_Source\PSoC5/ErikaOS_1_cortex_mx_ee_cpu.inc ****  * obligated to do so.  If you do not wish to do so, delete this
  28:Generated_Source\PSoC5/ErikaOS_1_cortex_mx_ee_cpu.inc ****  * exception statement from your version.
  29:Generated_Source\PSoC5/ErikaOS_1_cortex_mx_ee_cpu.inc ****  *
  30:Generated_Source\PSoC5/ErikaOS_1_cortex_mx_ee_cpu.inc ****  * ERIKA Enterprise is distributed in the hope that it will be
  31:Generated_Source\PSoC5/ErikaOS_1_cortex_mx_ee_cpu.inc ****  * useful, but WITHOUT ANY WARRANTY; without even the implied warranty
  32:Generated_Source\PSoC5/ErikaOS_1_cortex_mx_ee_cpu.inc ****  * of MERCHANTABILITY or FITNESS FOR A PARTICULAR PURPOSE.  See the
  33:Generated_Source\PSoC5/ErikaOS_1_cortex_mx_ee_cpu.inc ****  * GNU General Public License version 2 for more details.
  34:Generated_Source\PSoC5/ErikaOS_1_cortex_mx_ee_cpu.inc ****  *
  35:Generated_Source\PSoC5/ErikaOS_1_cortex_mx_ee_cpu.inc ****  * You should have received a copy of the GNU General Public License
  36:Generated_Source\PSoC5/ErikaOS_1_cortex_mx_ee_cpu.inc ****  * version 2 along with ERIKA Enterprise; if not, write to the
  37:Generated_Source\PSoC5/ErikaOS_1_cortex_mx_ee_cpu.inc ****  * Free Software Foundation, Inc., 51 Franklin Street, Fifth Floor,
  38:Generated_Source\PSoC5/ErikaOS_1_cortex_mx_ee_cpu.inc ****  * Boston, MA 02110-1301 USA.
  39:Generated_Source\PSoC5/ErikaOS_1_cortex_mx_ee_cpu.inc ****  * ###*E*### */
  40:Generated_Source\PSoC5/ErikaOS_1_cortex_mx_ee_cpu.inc **** 
  41:Generated_Source\PSoC5/ErikaOS_1_cortex_mx_ee_cpu.inc **** /** 
  42:Generated_Source\PSoC5/ErikaOS_1_cortex_mx_ee_cpu.inc **** 	@file ee_cpu.h
  43:Generated_Source\PSoC5/ErikaOS_1_cortex_mx_ee_cpu.inc **** 	@brief CPU-dependent part of HAL. Derived from pkg/cpu/pic30/inc/ee_cpu.h
  44:Generated_Source\PSoC5/ErikaOS_1_cortex_mx_ee_cpu.inc **** 	@author Gianluca Franchino
  45:Generated_Source\PSoC5/ErikaOS_1_cortex_mx_ee_cpu.inc **** 	@author Giuseppe Serano
  46:Generated_Source\PSoC5/ErikaOS_1_cortex_mx_ee_cpu.inc **** 	@date 2011
  47:Generated_Source\PSoC5/ErikaOS_1_cortex_mx_ee_cpu.inc **** */ 
  48:Generated_Source\PSoC5/ErikaOS_1_cortex_mx_ee_cpu.inc ****     
  49:Generated_Source\PSoC5/ErikaOS_1_cortex_mx_ee_cpu.inc **** /*
  50:Generated_Source\PSoC5/ErikaOS_1_cortex_mx_ee_cpu.inc ****  * PSoC Port and API Generation
  51:Generated_Source\PSoC5/ErikaOS_1_cortex_mx_ee_cpu.inc ****  * Carlos Fernando Meier Martinez
ARM GAS  C:\Users\Asus\AppData\Local\Temp\cc4NRN5T.s 			page 36


  52:Generated_Source\PSoC5/ErikaOS_1_cortex_mx_ee_cpu.inc ****  * Hochschule Darmstadt, Germany. 2017.
  53:Generated_Source\PSoC5/ErikaOS_1_cortex_mx_ee_cpu.inc ****  */
  54:Generated_Source\PSoC5/ErikaOS_1_cortex_mx_ee_cpu.inc **** 
  55:Generated_Source\PSoC5/ErikaOS_1_cortex_mx_ee_cpu.inc **** #ifndef __INCLUDE_CORTEX_MX_EE_CPU_H__
  56:Generated_Source\PSoC5/ErikaOS_1_cortex_mx_ee_cpu.inc **** #define __INCLUDE_CORTEX_MX_EE_CPU_H__
  57:Generated_Source\PSoC5/ErikaOS_1_cortex_mx_ee_cpu.inc **** 
  58:Generated_Source\PSoC5/ErikaOS_1_cortex_mx_ee_cpu.inc **** #include "ErikaOS_1_eecfg.inc"
  59:Generated_Source\PSoC5/ErikaOS_1_cortex_mx_ee_cpu.inc **** 
  60:Generated_Source\PSoC5/ErikaOS_1_cortex_mx_ee_cpu.inc **** 
  61:Generated_Source\PSoC5/ErikaOS_1_cortex_mx_ee_cpu.inc **** #ifdef __GNU__
  62:Generated_Source\PSoC5/ErikaOS_1_cortex_mx_ee_cpu.inc **** #include "ErikaOS_1_common_ee_compiler_gcc.inc"
  63:Generated_Source\PSoC5/ErikaOS_1_cortex_mx_ee_cpu.inc **** #endif
  64:Generated_Source\PSoC5/ErikaOS_1_cortex_mx_ee_cpu.inc **** 
  65:Generated_Source\PSoC5/ErikaOS_1_cortex_mx_ee_cpu.inc **** /* Initial stack offset (in words): Used in multistack. */
  66:Generated_Source\PSoC5/ErikaOS_1_cortex_mx_ee_cpu.inc **** #ifndef CORTEX_MX_INIT_TOS_OFFSET
  67:Generated_Source\PSoC5/ErikaOS_1_cortex_mx_ee_cpu.inc **** #define CORTEX_MX_INIT_TOS_OFFSET 10
  68:Generated_Source\PSoC5/ErikaOS_1_cortex_mx_ee_cpu.inc **** #endif
  69:Generated_Source\PSoC5/ErikaOS_1_cortex_mx_ee_cpu.inc **** 
  70:Generated_Source\PSoC5/ErikaOS_1_cortex_mx_ee_cpu.inc **** /*************************************************************************
  71:Generated_Source\PSoC5/ErikaOS_1_cortex_mx_ee_cpu.inc ****  HAL Types and structures
  72:Generated_Source\PSoC5/ErikaOS_1_cortex_mx_ee_cpu.inc ****  *************************************************************************/
  73:Generated_Source\PSoC5/ErikaOS_1_cortex_mx_ee_cpu.inc **** 
  74:Generated_Source\PSoC5/ErikaOS_1_cortex_mx_ee_cpu.inc **** /* Primitive data types */
  75:Generated_Source\PSoC5/ErikaOS_1_cortex_mx_ee_cpu.inc **** #include "ErikaOS_1_common_ee_types.inc"
  76:Generated_Source\PSoC5/ErikaOS_1_cortex_mx_ee_cpu.inc **** 
  77:Generated_Source\PSoC5/ErikaOS_1_cortex_mx_ee_cpu.inc **** typedef EE_UINT32 EE_UREG;
  78:Generated_Source\PSoC5/ErikaOS_1_cortex_mx_ee_cpu.inc **** typedef EE_INT32  EE_SREG;
  79:Generated_Source\PSoC5/ErikaOS_1_cortex_mx_ee_cpu.inc **** typedef EE_UINT32 EE_FREG;
  80:Generated_Source\PSoC5/ErikaOS_1_cortex_mx_ee_cpu.inc **** #define EE_UREG_SIZE 4
  81:Generated_Source\PSoC5/ErikaOS_1_cortex_mx_ee_cpu.inc **** 
  82:Generated_Source\PSoC5/ErikaOS_1_cortex_mx_ee_cpu.inc **** /* boolean type */
  83:Generated_Source\PSoC5/ErikaOS_1_cortex_mx_ee_cpu.inc **** #ifndef EE_TYPEBOOL
  84:Generated_Source\PSoC5/ErikaOS_1_cortex_mx_ee_cpu.inc **** typedef EE_UREG EE_TYPEBOOL;
  85:Generated_Source\PSoC5/ErikaOS_1_cortex_mx_ee_cpu.inc **** #endif
  86:Generated_Source\PSoC5/ErikaOS_1_cortex_mx_ee_cpu.inc **** 
  87:Generated_Source\PSoC5/ErikaOS_1_cortex_mx_ee_cpu.inc **** /* boolean true define */
  88:Generated_Source\PSoC5/ErikaOS_1_cortex_mx_ee_cpu.inc **** #ifndef EE_TRUE
  89:Generated_Source\PSoC5/ErikaOS_1_cortex_mx_ee_cpu.inc **** #define EE_TRUE ((EE_TYPEBOOL)1U)
  90:Generated_Source\PSoC5/ErikaOS_1_cortex_mx_ee_cpu.inc **** #endif
  91:Generated_Source\PSoC5/ErikaOS_1_cortex_mx_ee_cpu.inc **** 
  92:Generated_Source\PSoC5/ErikaOS_1_cortex_mx_ee_cpu.inc **** /* boolean false define */
  93:Generated_Source\PSoC5/ErikaOS_1_cortex_mx_ee_cpu.inc **** #ifndef EE_FALSE
  94:Generated_Source\PSoC5/ErikaOS_1_cortex_mx_ee_cpu.inc **** #define EE_FALSE ((EE_TYPEBOOL)0U)
  95:Generated_Source\PSoC5/ErikaOS_1_cortex_mx_ee_cpu.inc **** #endif
  96:Generated_Source\PSoC5/ErikaOS_1_cortex_mx_ee_cpu.inc **** 
  97:Generated_Source\PSoC5/ErikaOS_1_cortex_mx_ee_cpu.inc **** #define	EE_HWREG_PTR		volatile EE_UREG *
  98:Generated_Source\PSoC5/ErikaOS_1_cortex_mx_ee_cpu.inc **** #define	EE_HWREG_ADDR(x)	((EE_HWREG_PTR)(x))
  99:Generated_Source\PSoC5/ErikaOS_1_cortex_mx_ee_cpu.inc **** #define	EE_HWREG(x)		(*EE_HWREG_ADDR(x))
 100:Generated_Source\PSoC5/ErikaOS_1_cortex_mx_ee_cpu.inc **** 
 101:Generated_Source\PSoC5/ErikaOS_1_cortex_mx_ee_cpu.inc **** #ifdef __GNU__
 102:Generated_Source\PSoC5/ErikaOS_1_cortex_mx_ee_cpu.inc **** 
 103:Generated_Source\PSoC5/ErikaOS_1_cortex_mx_ee_cpu.inc **** /* Get current SP */
 104:Generated_Source\PSoC5/ErikaOS_1_cortex_mx_ee_cpu.inc **** __INLINE__ EE_UINT32  __current_sp(void)
 105:Generated_Source\PSoC5/ErikaOS_1_cortex_mx_ee_cpu.inc **** {
 106:Generated_Source\PSoC5/ErikaOS_1_cortex_mx_ee_cpu.inc **** EE_UINT32 temp;
 107:Generated_Source\PSoC5/ErikaOS_1_cortex_mx_ee_cpu.inc **** __ASM ("mov %0, sp" : "=r" (temp) : );
 108:Generated_Source\PSoC5/ErikaOS_1_cortex_mx_ee_cpu.inc **** return temp;
ARM GAS  C:\Users\Asus\AppData\Local\Temp\cc4NRN5T.s 			page 37


 109:Generated_Source\PSoC5/ErikaOS_1_cortex_mx_ee_cpu.inc **** }
 110:Generated_Source\PSoC5/ErikaOS_1_cortex_mx_ee_cpu.inc **** 
 111:Generated_Source\PSoC5/ErikaOS_1_cortex_mx_ee_cpu.inc **** /* Set a breakpoint */
 112:Generated_Source\PSoC5/ErikaOS_1_cortex_mx_ee_cpu.inc **** #define __breakpoint(value)	__ASM ("bkpt "#value)
 113:Generated_Source\PSoC5/ErikaOS_1_cortex_mx_ee_cpu.inc **** 
 114:Generated_Source\PSoC5/ErikaOS_1_cortex_mx_ee_cpu.inc **** #endif
 115:Generated_Source\PSoC5/ErikaOS_1_cortex_mx_ee_cpu.inc **** 
 116:Generated_Source\PSoC5/ErikaOS_1_cortex_mx_ee_cpu.inc **** /* ISR Priority representation type */
 117:Generated_Source\PSoC5/ErikaOS_1_cortex_mx_ee_cpu.inc **** typedef EE_UREG EE_TYPEISR2PRIO;
 118:Generated_Source\PSoC5/ErikaOS_1_cortex_mx_ee_cpu.inc **** 
 119:Generated_Source\PSoC5/ErikaOS_1_cortex_mx_ee_cpu.inc **** /* Thread IDs */
 120:Generated_Source\PSoC5/ErikaOS_1_cortex_mx_ee_cpu.inc **** typedef EE_INT32 EE_TID;
 121:Generated_Source\PSoC5/ErikaOS_1_cortex_mx_ee_cpu.inc **** 
 122:Generated_Source\PSoC5/ErikaOS_1_cortex_mx_ee_cpu.inc **** /* Thread IDs - unsigned version*/
 123:Generated_Source\PSoC5/ErikaOS_1_cortex_mx_ee_cpu.inc **** typedef EE_UINT32 EE_UTID;
 124:Generated_Source\PSoC5/ErikaOS_1_cortex_mx_ee_cpu.inc **** 
 125:Generated_Source\PSoC5/ErikaOS_1_cortex_mx_ee_cpu.inc **** /* Used by the common layer to decide whether to start a new thread */
 126:Generated_Source\PSoC5/ErikaOS_1_cortex_mx_ee_cpu.inc **** #define TID_IS_STACKED_MARK 0x80000000
 127:Generated_Source\PSoC5/ErikaOS_1_cortex_mx_ee_cpu.inc **** 
 128:Generated_Source\PSoC5/ErikaOS_1_cortex_mx_ee_cpu.inc **** /* EE_TYPEIRQ is currently unused */
 129:Generated_Source\PSoC5/ErikaOS_1_cortex_mx_ee_cpu.inc **** 
 130:Generated_Source\PSoC5/ErikaOS_1_cortex_mx_ee_cpu.inc **** /* XXX: define EE_TIME? */
 131:Generated_Source\PSoC5/ErikaOS_1_cortex_mx_ee_cpu.inc **** 
 132:Generated_Source\PSoC5/ErikaOS_1_cortex_mx_ee_cpu.inc **** /* Use the "standard" implementation */
 133:Generated_Source\PSoC5/ErikaOS_1_cortex_mx_ee_cpu.inc **** #include "ErikaOS_1_common_ee_hal_structs.inc"
 134:Generated_Source\PSoC5/ErikaOS_1_cortex_mx_ee_cpu.inc **** 
 135:Generated_Source\PSoC5/ErikaOS_1_cortex_mx_ee_cpu.inc **** /******************************************************************************
 136:Generated_Source\PSoC5/ErikaOS_1_cortex_mx_ee_cpu.inc ****  Application dependent data types
 137:Generated_Source\PSoC5/ErikaOS_1_cortex_mx_ee_cpu.inc ****  ******************************************************************************/
 138:Generated_Source\PSoC5/ErikaOS_1_cortex_mx_ee_cpu.inc **** 
 139:Generated_Source\PSoC5/ErikaOS_1_cortex_mx_ee_cpu.inc **** #ifdef	__HAS_TYPES_H__
 140:Generated_Source\PSoC5/ErikaOS_1_cortex_mx_ee_cpu.inc **** #include	"types.h"
 141:Generated_Source\PSoC5/ErikaOS_1_cortex_mx_ee_cpu.inc **** #endif
 142:Generated_Source\PSoC5/ErikaOS_1_cortex_mx_ee_cpu.inc **** 
 143:Generated_Source\PSoC5/ErikaOS_1_cortex_mx_ee_cpu.inc **** /******************************************************************************
 144:Generated_Source\PSoC5/ErikaOS_1_cortex_mx_ee_cpu.inc ****  CPU Peripherals
 145:Generated_Source\PSoC5/ErikaOS_1_cortex_mx_ee_cpu.inc ****  ******************************************************************************/
 146:Generated_Source\PSoC5/ErikaOS_1_cortex_mx_ee_cpu.inc **** 
 147:Generated_Source\PSoC5/ErikaOS_1_cortex_mx_ee_cpu.inc **** #ifdef __CORTEX_MX__
 148:Generated_Source\PSoC5/ErikaOS_1_cortex_mx_ee_cpu.inc **** #include "ErikaOS_1_cortex_mx_ee_nvic.inc"
 149:Generated_Source\PSoC5/ErikaOS_1_cortex_mx_ee_cpu.inc **** #include "ErikaOS_1_cortex_mx_ee_systick.inc"
 150:Generated_Source\PSoC5/ErikaOS_1_cortex_mx_ee_cpu.inc **** #endif
 151:Generated_Source\PSoC5/ErikaOS_1_cortex_mx_ee_cpu.inc **** 
 152:Generated_Source\PSoC5/ErikaOS_1_cortex_mx_ee_cpu.inc **** /******************************************************************************
 153:Generated_Source\PSoC5/ErikaOS_1_cortex_mx_ee_cpu.inc ****  HAL Variables
 154:Generated_Source\PSoC5/ErikaOS_1_cortex_mx_ee_cpu.inc ****  ******************************************************************************/
 155:Generated_Source\PSoC5/ErikaOS_1_cortex_mx_ee_cpu.inc **** 
 156:Generated_Source\PSoC5/ErikaOS_1_cortex_mx_ee_cpu.inc **** #ifdef __MULTI__
 157:Generated_Source\PSoC5/ErikaOS_1_cortex_mx_ee_cpu.inc **** 
 158:Generated_Source\PSoC5/ErikaOS_1_cortex_mx_ee_cpu.inc **** /* Top-of-stack of each private stack */
 159:Generated_Source\PSoC5/ErikaOS_1_cortex_mx_ee_cpu.inc **** extern struct EE_TOS EE_cortex_mx_system_tos[];
 160:Generated_Source\PSoC5/ErikaOS_1_cortex_mx_ee_cpu.inc **** //#define	EE_std_system_tos EE_cortex_mx_system_tos
 161:Generated_Source\PSoC5/ErikaOS_1_cortex_mx_ee_cpu.inc **** 
 162:Generated_Source\PSoC5/ErikaOS_1_cortex_mx_ee_cpu.inc **** /* Index of the current stack */
 163:Generated_Source\PSoC5/ErikaOS_1_cortex_mx_ee_cpu.inc **** extern EE_UREG EE_cortex_mx_active_tos;
 164:Generated_Source\PSoC5/ErikaOS_1_cortex_mx_ee_cpu.inc **** #define	EE_hal_active_tos EE_cortex_mx_active_tos
 165:Generated_Source\PSoC5/ErikaOS_1_cortex_mx_ee_cpu.inc **** 
ARM GAS  C:\Users\Asus\AppData\Local\Temp\cc4NRN5T.s 			page 38


 166:Generated_Source\PSoC5/ErikaOS_1_cortex_mx_ee_cpu.inc **** /*extern	EE_UREG EE_pic30_thread_tos[];
 167:Generated_Source\PSoC5/ErikaOS_1_cortex_mx_ee_cpu.inc **** #define	EE_std_thread_tos EE_pic30_thread_tos */
 168:Generated_Source\PSoC5/ErikaOS_1_cortex_mx_ee_cpu.inc **** #endif /* __MULTI__ */
 169:Generated_Source\PSoC5/ErikaOS_1_cortex_mx_ee_cpu.inc **** 
 170:Generated_Source\PSoC5/ErikaOS_1_cortex_mx_ee_cpu.inc **** /*********************************************************************
 171:Generated_Source\PSoC5/ErikaOS_1_cortex_mx_ee_cpu.inc ****  Cortex M0 interrupt disabling/enabling
 172:Generated_Source\PSoC5/ErikaOS_1_cortex_mx_ee_cpu.inc ****  *********************************************************************/
 173:Generated_Source\PSoC5/ErikaOS_1_cortex_mx_ee_cpu.inc **** 
 174:Generated_Source\PSoC5/ErikaOS_1_cortex_mx_ee_cpu.inc **** /* Used to check the value returned by EE_cortex_mx_disableIRQ */
 175:Generated_Source\PSoC5/ErikaOS_1_cortex_mx_ee_cpu.inc **** #define EE_cortex_mx_are_IRQs_enabled(ie) ((ie) ^ 1)
 176:Generated_Source\PSoC5/ErikaOS_1_cortex_mx_ee_cpu.inc **** 
 177:Generated_Source\PSoC5/ErikaOS_1_cortex_mx_ee_cpu.inc **** /**
 178:Generated_Source\PSoC5/ErikaOS_1_cortex_mx_ee_cpu.inc ****  * Enable interrupts
 179:Generated_Source\PSoC5/ErikaOS_1_cortex_mx_ee_cpu.inc ****  */
 180:Generated_Source\PSoC5/ErikaOS_1_cortex_mx_ee_cpu.inc **** __INLINE__ void  EE_cortex_mx_enableIRQ(void)
 181:Generated_Source\PSoC5/ErikaOS_1_cortex_mx_ee_cpu.inc **** {
 182:Generated_Source\PSoC5/ErikaOS_1_cortex_mx_ee_cpu.inc **** #ifdef __IAR__
 183:Generated_Source\PSoC5/ErikaOS_1_cortex_mx_ee_cpu.inc **** 	__ASM ("cpsie i");
 184:Generated_Source\PSoC5/ErikaOS_1_cortex_mx_ee_cpu.inc **** #else	/* __IAR__ */
 185:Generated_Source\PSoC5/ErikaOS_1_cortex_mx_ee_cpu.inc **** #ifdef __CCS__
 186:Generated_Source\PSoC5/ErikaOS_1_cortex_mx_ee_cpu.inc **** 	__ASM ("    cpsie    i\n");
 187:Generated_Source\PSoC5/ErikaOS_1_cortex_mx_ee_cpu.inc **** #else	/* __CCS__ */
 188:Generated_Source\PSoC5/ErikaOS_1_cortex_mx_ee_cpu.inc **** #ifdef __KEIL__
 189:Generated_Source\PSoC5/ErikaOS_1_cortex_mx_ee_cpu.inc **** 	__enable_irq();
 190:Generated_Source\PSoC5/ErikaOS_1_cortex_mx_ee_cpu.inc **** #else	/* __KEIL__ */
 191:Generated_Source\PSoC5/ErikaOS_1_cortex_mx_ee_cpu.inc **** 	__ASM volatile("cpsie i");
 192:Generated_Source\PSoC5/ErikaOS_1_cortex_mx_ee_cpu.inc **** #endif	/* !__KEIL__ */
 193:Generated_Source\PSoC5/ErikaOS_1_cortex_mx_ee_cpu.inc **** #endif	/* !__CCS__ */
 194:Generated_Source\PSoC5/ErikaOS_1_cortex_mx_ee_cpu.inc **** #endif	/* !__IAR__ */
 195:Generated_Source\PSoC5/ErikaOS_1_cortex_mx_ee_cpu.inc **** }
 196:Generated_Source\PSoC5/ErikaOS_1_cortex_mx_ee_cpu.inc **** 
 197:Generated_Source\PSoC5/ErikaOS_1_cortex_mx_ee_cpu.inc **** /**
 198:Generated_Source\PSoC5/ErikaOS_1_cortex_mx_ee_cpu.inc ****  * Disable interrupts
 199:Generated_Source\PSoC5/ErikaOS_1_cortex_mx_ee_cpu.inc ****  */
 200:Generated_Source\PSoC5/ErikaOS_1_cortex_mx_ee_cpu.inc **** __INLINE__ void  EE_cortex_mx_disableIRQ(void)
 201:Generated_Source\PSoC5/ErikaOS_1_cortex_mx_ee_cpu.inc **** {
 202:Generated_Source\PSoC5/ErikaOS_1_cortex_mx_ee_cpu.inc **** #ifdef __IAR__
 203:Generated_Source\PSoC5/ErikaOS_1_cortex_mx_ee_cpu.inc **** 	__ASM ("cpsid i");
 204:Generated_Source\PSoC5/ErikaOS_1_cortex_mx_ee_cpu.inc **** #else	/* __IAR__ */
 205:Generated_Source\PSoC5/ErikaOS_1_cortex_mx_ee_cpu.inc **** #ifdef __CCS__
 206:Generated_Source\PSoC5/ErikaOS_1_cortex_mx_ee_cpu.inc **** 	__ASM ("    cpsid    i\n");
 207:Generated_Source\PSoC5/ErikaOS_1_cortex_mx_ee_cpu.inc **** #else	/* __CCS__ */
 208:Generated_Source\PSoC5/ErikaOS_1_cortex_mx_ee_cpu.inc **** #ifdef __KEIL__
 209:Generated_Source\PSoC5/ErikaOS_1_cortex_mx_ee_cpu.inc **** 	__disable_irq();
 210:Generated_Source\PSoC5/ErikaOS_1_cortex_mx_ee_cpu.inc **** #else	/* __KEIL__ */
 211:Generated_Source\PSoC5/ErikaOS_1_cortex_mx_ee_cpu.inc **** 	__ASM volatile("cpsid i");
 212:Generated_Source\PSoC5/ErikaOS_1_cortex_mx_ee_cpu.inc **** #endif	/* !__KEIL__ */
 213:Generated_Source\PSoC5/ErikaOS_1_cortex_mx_ee_cpu.inc **** #endif	/* !__CCS__ */
 214:Generated_Source\PSoC5/ErikaOS_1_cortex_mx_ee_cpu.inc **** #endif	/* !__IAR__ */
 215:Generated_Source\PSoC5/ErikaOS_1_cortex_mx_ee_cpu.inc **** }
 216:Generated_Source\PSoC5/ErikaOS_1_cortex_mx_ee_cpu.inc **** 
 217:Generated_Source\PSoC5/ErikaOS_1_cortex_mx_ee_cpu.inc **** /**
 218:Generated_Source\PSoC5/ErikaOS_1_cortex_mx_ee_cpu.inc ****  * Resume interrupts
 219:Generated_Source\PSoC5/ErikaOS_1_cortex_mx_ee_cpu.inc ****  */
 220:Generated_Source\PSoC5/ErikaOS_1_cortex_mx_ee_cpu.inc **** __INLINE__ void  EE_cortex_mx_resumeIRQ(EE_FREG f)
 221:Generated_Source\PSoC5/ErikaOS_1_cortex_mx_ee_cpu.inc **** {
 222:Generated_Source\PSoC5/ErikaOS_1_cortex_mx_ee_cpu.inc **** #ifdef __IAR__
ARM GAS  C:\Users\Asus\AppData\Local\Temp\cc4NRN5T.s 			page 39


 223:Generated_Source\PSoC5/ErikaOS_1_cortex_mx_ee_cpu.inc **** 	__set_PRIMASK(f);
 224:Generated_Source\PSoC5/ErikaOS_1_cortex_mx_ee_cpu.inc **** #else	/* __IAR__ */
 225:Generated_Source\PSoC5/ErikaOS_1_cortex_mx_ee_cpu.inc **** #ifdef __CCS__
 226:Generated_Source\PSoC5/ErikaOS_1_cortex_mx_ee_cpu.inc **** 	__ASM ("    msr    primask, r0\n");
 227:Generated_Source\PSoC5/ErikaOS_1_cortex_mx_ee_cpu.inc **** #else	/* __CCS__ */
 228:Generated_Source\PSoC5/ErikaOS_1_cortex_mx_ee_cpu.inc **** #ifdef __KEIL__
 229:Generated_Source\PSoC5/ErikaOS_1_cortex_mx_ee_cpu.inc **** 	register EE_FREG PRIMASK __ASM("primask");
 230:Generated_Source\PSoC5/ErikaOS_1_cortex_mx_ee_cpu.inc **** 	PRIMASK = f;
 231:Generated_Source\PSoC5/ErikaOS_1_cortex_mx_ee_cpu.inc **** #else	/* __KEIL__ */
 232:Generated_Source\PSoC5/ErikaOS_1_cortex_mx_ee_cpu.inc **** 	__ASM volatile("msr primask, %0" :: "r" (f));
 233:Generated_Source\PSoC5/ErikaOS_1_cortex_mx_ee_cpu.inc **** #endif	/* !__KEIL__ */
 234:Generated_Source\PSoC5/ErikaOS_1_cortex_mx_ee_cpu.inc **** #endif	/* !__CCS__ */
 235:Generated_Source\PSoC5/ErikaOS_1_cortex_mx_ee_cpu.inc **** #endif	/* !__IAR__ */
 236:Generated_Source\PSoC5/ErikaOS_1_cortex_mx_ee_cpu.inc **** }
 237:Generated_Source\PSoC5/ErikaOS_1_cortex_mx_ee_cpu.inc **** 
 238:Generated_Source\PSoC5/ErikaOS_1_cortex_mx_ee_cpu.inc **** /**
 239:Generated_Source\PSoC5/ErikaOS_1_cortex_mx_ee_cpu.inc ****  * Suspend interrupts
 240:Generated_Source\PSoC5/ErikaOS_1_cortex_mx_ee_cpu.inc ****  */
 241:Generated_Source\PSoC5/ErikaOS_1_cortex_mx_ee_cpu.inc **** __INLINE__ EE_FREG  EE_cortex_mx_suspendIRQ(void)
 242:Generated_Source\PSoC5/ErikaOS_1_cortex_mx_ee_cpu.inc **** {
 243:Generated_Source\PSoC5/ErikaOS_1_cortex_mx_ee_cpu.inc **** #ifndef __CCS__
 244:Generated_Source\PSoC5/ErikaOS_1_cortex_mx_ee_cpu.inc **** 	EE_FREG istat;
 245:Generated_Source\PSoC5/ErikaOS_1_cortex_mx_ee_cpu.inc **** #endif
 246:Generated_Source\PSoC5/ErikaOS_1_cortex_mx_ee_cpu.inc **** #ifdef __IAR__
 247:Generated_Source\PSoC5/ErikaOS_1_cortex_mx_ee_cpu.inc **** 	 istat = __get_PRIMASK();
 248:Generated_Source\PSoC5/ErikaOS_1_cortex_mx_ee_cpu.inc **** 	__ASM ("cpsid i");
 249:Generated_Source\PSoC5/ErikaOS_1_cortex_mx_ee_cpu.inc **** #else	/* __IAR__ */
 250:Generated_Source\PSoC5/ErikaOS_1_cortex_mx_ee_cpu.inc **** #ifdef __CCS__
 251:Generated_Source\PSoC5/ErikaOS_1_cortex_mx_ee_cpu.inc **** 	__ASM ("    mrs     r0, primask\n"
 252:Generated_Source\PSoC5/ErikaOS_1_cortex_mx_ee_cpu.inc **** 	       "    cpsid   i\n"
 253:Generated_Source\PSoC5/ErikaOS_1_cortex_mx_ee_cpu.inc **** 	       "    bx      lr\n");
 254:Generated_Source\PSoC5/ErikaOS_1_cortex_mx_ee_cpu.inc **** #else	/* __CCS__ */
 255:Generated_Source\PSoC5/ErikaOS_1_cortex_mx_ee_cpu.inc **** #ifdef __KEIL__
 256:Generated_Source\PSoC5/ErikaOS_1_cortex_mx_ee_cpu.inc **** 	register EE_FREG PRIMASK __ASM("primask");
 257:Generated_Source\PSoC5/ErikaOS_1_cortex_mx_ee_cpu.inc **** 	istat = PRIMASK;
 258:Generated_Source\PSoC5/ErikaOS_1_cortex_mx_ee_cpu.inc **** 	__disable_irq();
 259:Generated_Source\PSoC5/ErikaOS_1_cortex_mx_ee_cpu.inc **** #else	/* __KEIL__ */
 260:Generated_Source\PSoC5/ErikaOS_1_cortex_mx_ee_cpu.inc **** 	__ASM volatile ("mrs %0, primask" : "=r" (istat) );
 599              		.loc 3 260 0
 600              		.syntax unified
 601              	@ 260 "Generated_Source\PSoC5\ErikaOS_1_cortex_mx_ee_cpu.inc" 1
 602 0002 EFF31084 		mrs r4, primask
 603              	@ 0 "" 2
 261:Generated_Source\PSoC5/ErikaOS_1_cortex_mx_ee_cpu.inc **** 	__ASM volatile ("cpsid i");
 604              		.loc 3 261 0
 605              	@ 261 "Generated_Source\PSoC5\ErikaOS_1_cortex_mx_ee_cpu.inc" 1
 606 0006 72B6     		cpsid i
 607              	@ 0 "" 2
 608              		.thumb
 609              		.syntax unified
 610              	.LBE73:
 611              	.LBE72:
 612              	.LBE71:
 665:Generated_Source\PSoC5/ErikaOS_1_ee_altick.c ****   /* Error Value */
 666:Generated_Source\PSoC5/ErikaOS_1_ee_altick.c ****   register StatusType ev;
 667:Generated_Source\PSoC5/ErikaOS_1_ee_altick.c ****   /* Start Critical Section */
 668:Generated_Source\PSoC5/ErikaOS_1_ee_altick.c ****   register EE_FREG const flag = EE_hal_begin_nested_primitive();
ARM GAS  C:\Users\Asus\AppData\Local\Temp\cc4NRN5T.s 			page 40


 669:Generated_Source\PSoC5/ErikaOS_1_ee_altick.c **** #ifdef EE_SERVICE_PROTECTION__
 670:Generated_Source\PSoC5/ErikaOS_1_ee_altick.c ****   /* This function can be call only inside the Kernel */
 671:Generated_Source\PSoC5/ErikaOS_1_ee_altick.c ****   if ( EE_as_execution_context != Kernel_Context ) {
 672:Generated_Source\PSoC5/ErikaOS_1_ee_altick.c ****     ev = E_OS_CALLEVEL;
 673:Generated_Source\PSoC5/ErikaOS_1_ee_altick.c ****   } else
 674:Generated_Source\PSoC5/ErikaOS_1_ee_altick.c **** #endif /* EE_SERVICE_PROTECTION__ */
 675:Generated_Source\PSoC5/ErikaOS_1_ee_altick.c **** #if (EE_SOFT_COUNTERS_START > 0)
 676:Generated_Source\PSoC5/ErikaOS_1_ee_altick.c ****   if ( CounterID >= (CounterType)EE_SOFT_COUNTERS_START ) {
 677:Generated_Source\PSoC5/ErikaOS_1_ee_altick.c ****     ev = E_OS_ID;
 678:Generated_Source\PSoC5/ErikaOS_1_ee_altick.c ****   } else
 679:Generated_Source\PSoC5/ErikaOS_1_ee_altick.c **** #endif /* (EE_SOFT_COUNTERS_START > 0) */
 680:Generated_Source\PSoC5/ErikaOS_1_ee_altick.c ****   {
 681:Generated_Source\PSoC5/ErikaOS_1_ee_altick.c ****     EE_oo_IncrementCounterImplementation(CounterID);
 613              		.loc 1 681 0
 614 0008 FFF7FEFF 		bl	EE_oo_IncrementCounterImplementation
 615              	.LVL59:
 616              	.LBB74:
 617              	.LBB75:
 618              	.LBB76:
 232:Generated_Source\PSoC5/ErikaOS_1_cortex_mx_ee_cpu.inc **** #endif	/* !__KEIL__ */
 619              		.loc 3 232 0
 620              		.syntax unified
 621              	@ 232 "Generated_Source\PSoC5\ErikaOS_1_cortex_mx_ee_cpu.inc" 1
 622 000c 84F31088 		msr primask, r4
 623              	@ 0 "" 2
 624              		.thumb
 625              		.syntax unified
 626              	.LBE76:
 627              	.LBE75:
 628              	.LBE74:
 682:Generated_Source\PSoC5/ErikaOS_1_ee_altick.c ****     ev = E_OK;
 683:Generated_Source\PSoC5/ErikaOS_1_ee_altick.c ****   }
 684:Generated_Source\PSoC5/ErikaOS_1_ee_altick.c **** /* This if statement is not always necessary */
 685:Generated_Source\PSoC5/ErikaOS_1_ee_altick.c **** #if (defined(EE_SERVICE_PROTECTION__)) || (EE_SOFT_COUNTERS_START > 0)
 686:Generated_Source\PSoC5/ErikaOS_1_ee_altick.c ****   if ( ev != E_OK ) {
 687:Generated_Source\PSoC5/ErikaOS_1_ee_altick.c **** #endif
 688:Generated_Source\PSoC5/ErikaOS_1_ee_altick.c ****     EE_ORTI_set_lasterror(ev);
 689:Generated_Source\PSoC5/ErikaOS_1_ee_altick.c ****     EE_oo_notify_error_service(OSId_Kernel, ev);
 690:Generated_Source\PSoC5/ErikaOS_1_ee_altick.c ****     /* XXX: This is in any case a Kernel Bug it should never happens */
 691:Generated_Source\PSoC5/ErikaOS_1_ee_altick.c **** #if (defined(EE_SERVICE_PROTECTION__)) || (EE_SOFT_COUNTERS_START > 0)
 692:Generated_Source\PSoC5/ErikaOS_1_ee_altick.c ****   }
 693:Generated_Source\PSoC5/ErikaOS_1_ee_altick.c **** #endif
 694:Generated_Source\PSoC5/ErikaOS_1_ee_altick.c **** 
 695:Generated_Source\PSoC5/ErikaOS_1_ee_altick.c ****   EE_hal_end_nested_primitive(flag);
 696:Generated_Source\PSoC5/ErikaOS_1_ee_altick.c ****   return ev;
 697:Generated_Source\PSoC5/ErikaOS_1_ee_altick.c **** }
 629              		.loc 1 697 0
 630 0010 0020     		movs	r0, #0
 631 0012 10BD     		pop	{r4, pc}
 632              		.cfi_endproc
 633              	.LFE76:
 634              		.size	EE_oo_IncrementCounterHardware, .-EE_oo_IncrementCounterHardware
 635              		.section	.text.EE_oo_IncrementCounter,"ax",%progbits
 636              		.align	2
 637              		.global	EE_oo_IncrementCounter
 638              		.thumb
 639              		.thumb_func
ARM GAS  C:\Users\Asus\AppData\Local\Temp\cc4NRN5T.s 			page 41


 640              		.type	EE_oo_IncrementCounter, %function
 641              	EE_oo_IncrementCounter:
 642              	.LFB77:
 698:Generated_Source\PSoC5/ErikaOS_1_ee_altick.c **** 
 699:Generated_Source\PSoC5/ErikaOS_1_ee_altick.c **** #ifndef __PRIVATE_INCREMENTCOUNTER__
 700:Generated_Source\PSoC5/ErikaOS_1_ee_altick.c **** /* [OS399]: IncrementCounter */
 701:Generated_Source\PSoC5/ErikaOS_1_ee_altick.c **** StatusType EE_oo_IncrementCounter(CounterType CounterID)
 702:Generated_Source\PSoC5/ErikaOS_1_ee_altick.c **** {
 643              		.loc 1 702 0
 644              		.cfi_startproc
 645              		@ args = 0, pretend = 0, frame = 0
 646              		@ frame_needed = 0, uses_anonymous_args = 0
 647              	.LVL60:
 648 0000 38B5     		push	{r3, r4, r5, lr}
 649              		.cfi_def_cfa_offset 16
 650              		.cfi_offset 3, -16
 651              		.cfi_offset 4, -12
 652              		.cfi_offset 5, -8
 653              		.cfi_offset 14, -4
 654              	.LBB95:
 655              	.LBB96:
 656              	.LBB97:
 260:Generated_Source\PSoC5/ErikaOS_1_cortex_mx_ee_cpu.inc **** 	__ASM volatile ("cpsid i");
 657              		.loc 3 260 0
 658              		.syntax unified
 659              	@ 260 "Generated_Source\PSoC5\ErikaOS_1_cortex_mx_ee_cpu.inc" 1
 660 0002 EFF31085 		mrs r5, primask
 661              	@ 0 "" 2
 662              	.LVL61:
 663              		.loc 3 261 0
 664              	@ 261 "Generated_Source\PSoC5\ErikaOS_1_cortex_mx_ee_cpu.inc" 1
 665 0006 72B6     		cpsid i
 666              	@ 0 "" 2
 667              	.LVL62:
 668              		.thumb
 669              		.syntax unified
 670              	.LBE97:
 671              	.LBE96:
 672              	.LBE95:
 703:Generated_Source\PSoC5/ErikaOS_1_ee_altick.c ****   /* Error Value */
 704:Generated_Source\PSoC5/ErikaOS_1_ee_altick.c ****   register StatusType ev;
 705:Generated_Source\PSoC5/ErikaOS_1_ee_altick.c ****   /* Primitive Lock Procedure */
 706:Generated_Source\PSoC5/ErikaOS_1_ee_altick.c ****   EE_OS_DECLARE_AND_ENTER_CRITICAL_SECTION();
 707:Generated_Source\PSoC5/ErikaOS_1_ee_altick.c **** 
 708:Generated_Source\PSoC5/ErikaOS_1_ee_altick.c ****   EE_ORTI_set_service_in(EE_SERVICETRACE_INCREMENTCOUNTER);
 709:Generated_Source\PSoC5/ErikaOS_1_ee_altick.c **** 
 710:Generated_Source\PSoC5/ErikaOS_1_ee_altick.c ****   EE_as_monitoring_the_stack();
 711:Generated_Source\PSoC5/ErikaOS_1_ee_altick.c **** 
 712:Generated_Source\PSoC5/ErikaOS_1_ee_altick.c **** #ifdef EE_SERVICE_PROTECTION__
 713:Generated_Source\PSoC5/ErikaOS_1_ee_altick.c ****   /* [OS093]: If interrupts are disabled/suspended by a Task/OsIsr and the
 714:Generated_Source\PSoC5/ErikaOS_1_ee_altick.c ****       Task/OsIsr calls any OS service (excluding the interrupt services)
 715:Generated_Source\PSoC5/ErikaOS_1_ee_altick.c ****       then the Operating System shall ignore the service AND shall return
 716:Generated_Source\PSoC5/ErikaOS_1_ee_altick.c ****       E_OS_DISABLEDINT if the service returns a StatusType value. */
 717:Generated_Source\PSoC5/ErikaOS_1_ee_altick.c ****   /* [OS088]: If an OS-Application makes a service call from the wrong context
 718:Generated_Source\PSoC5/ErikaOS_1_ee_altick.c ****       AND is currently not inside a Category 1 ISR the Operating System module
 719:Generated_Source\PSoC5/ErikaOS_1_ee_altick.c ****       shall not perform the requested action (the service call shall have no
 720:Generated_Source\PSoC5/ErikaOS_1_ee_altick.c ****       effect), and return E_OS_CALLEVEL (see [12], section 13.1) or the
ARM GAS  C:\Users\Asus\AppData\Local\Temp\cc4NRN5T.s 			page 42


 721:Generated_Source\PSoC5/ErikaOS_1_ee_altick.c ****       "invalid value" of  the service. (BSW11009, BSW11013) */
 722:Generated_Source\PSoC5/ErikaOS_1_ee_altick.c ****   /* IncrementCounter is callable by Task and ISR2 */
 723:Generated_Source\PSoC5/ErikaOS_1_ee_altick.c ****   if ( EE_as_execution_context > ISR2_Context ) {
 724:Generated_Source\PSoC5/ErikaOS_1_ee_altick.c ****     ev = E_OS_CALLEVEL;
 725:Generated_Source\PSoC5/ErikaOS_1_ee_altick.c ****   } else if ( EE_oo_check_disableint_error() ) {
 726:Generated_Source\PSoC5/ErikaOS_1_ee_altick.c ****     ev = E_OS_DISABLEDINT;
 727:Generated_Source\PSoC5/ErikaOS_1_ee_altick.c ****   } else
 728:Generated_Source\PSoC5/ErikaOS_1_ee_altick.c **** #endif /* EE_SERVICE_PROTECTION__ */
 729:Generated_Source\PSoC5/ErikaOS_1_ee_altick.c **** 
 730:Generated_Source\PSoC5/ErikaOS_1_ee_altick.c **** #if ( (defined(EE_AS_OSAPPLICATIONS__)) && (defined(EE_SERVICE_PROTECTION__)) ) \
 731:Generated_Source\PSoC5/ErikaOS_1_ee_altick.c ****   || (defined (__OO_EXTENDED_STATUS__))
 732:Generated_Source\PSoC5/ErikaOS_1_ee_altick.c **** #ifdef EE_AS_RPC__
 733:Generated_Source\PSoC5/ErikaOS_1_ee_altick.c ****   /* [OS589]: All functions that are not allowed to operate cross core shall
 734:Generated_Source\PSoC5/ErikaOS_1_ee_altick.c ****       return E_OS_CORE in extended status if called with parameters that
 735:Generated_Source\PSoC5/ErikaOS_1_ee_altick.c ****       require a cross core operation. (BSW4080013) */
 736:Generated_Source\PSoC5/ErikaOS_1_ee_altick.c ****   if ( EE_AS_ID_REMOTE(CounterID) )
 737:Generated_Source\PSoC5/ErikaOS_1_ee_altick.c ****   {
 738:Generated_Source\PSoC5/ErikaOS_1_ee_altick.c ****     ev = E_OS_CORE;
 739:Generated_Source\PSoC5/ErikaOS_1_ee_altick.c ****   } else
 740:Generated_Source\PSoC5/ErikaOS_1_ee_altick.c **** #endif /* EE_AS_RPC__ */
 741:Generated_Source\PSoC5/ErikaOS_1_ee_altick.c ****   /* [OS285]: If the input parameter CounterID in a call of IncrementCounter()
 742:Generated_Source\PSoC5/ErikaOS_1_ee_altick.c ****       is not valid OR the counter is a hardware counter, IncrementCounter()
 743:Generated_Source\PSoC5/ErikaOS_1_ee_altick.c ****       shall return E_OS_ID. */
 744:Generated_Source\PSoC5/ErikaOS_1_ee_altick.c ****   if (
 673              		.loc 1 744 0
 674 0008 0028     		cmp	r0, #0
 675 000a 38D1     		bne	.L61
 745:Generated_Source\PSoC5/ErikaOS_1_ee_altick.c **** #if (EE_SOFT_COUNTERS_START > 0)
 746:Generated_Source\PSoC5/ErikaOS_1_ee_altick.c ****     (CounterID < (CounterType)EE_SOFT_COUNTERS_START) ||
 747:Generated_Source\PSoC5/ErikaOS_1_ee_altick.c **** #endif /* (EE_SOFT_COUNTERS_START > 0) */
 748:Generated_Source\PSoC5/ErikaOS_1_ee_altick.c ****     (CounterID >= EE_MAX_COUNTER) )
 749:Generated_Source\PSoC5/ErikaOS_1_ee_altick.c ****   {
 750:Generated_Source\PSoC5/ErikaOS_1_ee_altick.c ****     ev = E_OS_ID;
 751:Generated_Source\PSoC5/ErikaOS_1_ee_altick.c ****   } else
 752:Generated_Source\PSoC5/ErikaOS_1_ee_altick.c **** #if (defined(EE_AS_OSAPPLICATIONS__)) && (defined(EE_SERVICE_PROTECTION__))
 753:Generated_Source\PSoC5/ErikaOS_1_ee_altick.c ****   if ( EE_COUNTER_ACCESS_ERR(CounterID, EE_as_active_app) ) {
 754:Generated_Source\PSoC5/ErikaOS_1_ee_altick.c ****     ev = E_OS_ACCESS;
 755:Generated_Source\PSoC5/ErikaOS_1_ee_altick.c ****   } else
 756:Generated_Source\PSoC5/ErikaOS_1_ee_altick.c **** #endif /* EE_AS_OSAPPLICATIONS__ || E_SERVICE_PROTECTION__ */
 757:Generated_Source\PSoC5/ErikaOS_1_ee_altick.c **** #endif /* EE_AS_OSAPPLICATIONS__ || E_SERVICE_PROTECTION__ ||
 758:Generated_Source\PSoC5/ErikaOS_1_ee_altick.c **** E_SERVICE_PROTECTION__ ||
 759:Generated_Source\PSoC5/ErikaOS_1_ee_altick.c **** __OO_EXTENDED_STATUS__ */
 760:Generated_Source\PSoC5/ErikaOS_1_ee_altick.c ****   {
 761:Generated_Source\PSoC5/ErikaOS_1_ee_altick.c ****     /* Call to function that actually increment the counter */
 762:Generated_Source\PSoC5/ErikaOS_1_ee_altick.c ****     EE_oo_IncrementCounterImplementation(CounterID);
 676              		.loc 1 762 0
 677 000c FFF7FEFF 		bl	EE_oo_IncrementCounterImplementation
 678              	.LVL63:
 679              	.LBB98:
 680              	.LBB99:
 681              		.file 4 "Generated_Source\\PSoC5\\ErikaOS_1_common_ee_primitives.inc"
   1:Generated_Source\PSoC5/ErikaOS_1_common_ee_primitives.inc **** /* ###*B*###
   2:Generated_Source\PSoC5/ErikaOS_1_common_ee_primitives.inc ****  * ERIKA Enterprise - a tiny RTOS for small microcontrollers
   3:Generated_Source\PSoC5/ErikaOS_1_common_ee_primitives.inc ****  *
   4:Generated_Source\PSoC5/ErikaOS_1_common_ee_primitives.inc ****  * Copyright (C) 2002-2009  Evidence Srl
   5:Generated_Source\PSoC5/ErikaOS_1_common_ee_primitives.inc ****  *
   6:Generated_Source\PSoC5/ErikaOS_1_common_ee_primitives.inc ****  * This file is part of ERIKA Enterprise.
ARM GAS  C:\Users\Asus\AppData\Local\Temp\cc4NRN5T.s 			page 43


   7:Generated_Source\PSoC5/ErikaOS_1_common_ee_primitives.inc ****  *
   8:Generated_Source\PSoC5/ErikaOS_1_common_ee_primitives.inc ****  * ERIKA Enterprise is free software; you can redistribute it
   9:Generated_Source\PSoC5/ErikaOS_1_common_ee_primitives.inc ****  * and/or modify it under the terms of the GNU General Public License
  10:Generated_Source\PSoC5/ErikaOS_1_common_ee_primitives.inc ****  * version 2 as published by the Free Software Foundation, 
  11:Generated_Source\PSoC5/ErikaOS_1_common_ee_primitives.inc ****  * (with a special exception described below).
  12:Generated_Source\PSoC5/ErikaOS_1_common_ee_primitives.inc ****  *
  13:Generated_Source\PSoC5/ErikaOS_1_common_ee_primitives.inc ****  * Linking this code statically or dynamically with other modules is
  14:Generated_Source\PSoC5/ErikaOS_1_common_ee_primitives.inc ****  * making a combined work based on this code.  Thus, the terms and
  15:Generated_Source\PSoC5/ErikaOS_1_common_ee_primitives.inc ****  * conditions of the GNU General Public License cover the whole
  16:Generated_Source\PSoC5/ErikaOS_1_common_ee_primitives.inc ****  * combination.
  17:Generated_Source\PSoC5/ErikaOS_1_common_ee_primitives.inc ****  *
  18:Generated_Source\PSoC5/ErikaOS_1_common_ee_primitives.inc ****  * As a special exception, the copyright holders of this library give you
  19:Generated_Source\PSoC5/ErikaOS_1_common_ee_primitives.inc ****  * permission to link this code with independent modules to produce an
  20:Generated_Source\PSoC5/ErikaOS_1_common_ee_primitives.inc ****  * executable, regardless of the license terms of these independent
  21:Generated_Source\PSoC5/ErikaOS_1_common_ee_primitives.inc ****  * modules, and to copy and distribute the resulting executable under
  22:Generated_Source\PSoC5/ErikaOS_1_common_ee_primitives.inc ****  * terms of your choice, provided that you also meet, for each linked
  23:Generated_Source\PSoC5/ErikaOS_1_common_ee_primitives.inc ****  * independent module, the terms and conditions of the license of that
  24:Generated_Source\PSoC5/ErikaOS_1_common_ee_primitives.inc ****  * module.  An independent module is a module which is not derived from
  25:Generated_Source\PSoC5/ErikaOS_1_common_ee_primitives.inc ****  * or based on this library.  If you modify this code, you may extend
  26:Generated_Source\PSoC5/ErikaOS_1_common_ee_primitives.inc ****  * this exception to your version of the code, but you are not
  27:Generated_Source\PSoC5/ErikaOS_1_common_ee_primitives.inc ****  * obligated to do so.  If you do not wish to do so, delete this
  28:Generated_Source\PSoC5/ErikaOS_1_common_ee_primitives.inc ****  * exception statement from your version.
  29:Generated_Source\PSoC5/ErikaOS_1_common_ee_primitives.inc ****  *
  30:Generated_Source\PSoC5/ErikaOS_1_common_ee_primitives.inc ****  * ERIKA Enterprise is distributed in the hope that it will be
  31:Generated_Source\PSoC5/ErikaOS_1_common_ee_primitives.inc ****  * useful, but WITHOUT ANY WARRANTY; without even the implied warranty
  32:Generated_Source\PSoC5/ErikaOS_1_common_ee_primitives.inc ****  * of MERCHANTABILITY or FITNESS FOR A PARTICULAR PURPOSE.  See the
  33:Generated_Source\PSoC5/ErikaOS_1_common_ee_primitives.inc ****  * GNU General Public License version 2 for more details.
  34:Generated_Source\PSoC5/ErikaOS_1_common_ee_primitives.inc ****  *
  35:Generated_Source\PSoC5/ErikaOS_1_common_ee_primitives.inc ****  * You should have received a copy of the GNU General Public License
  36:Generated_Source\PSoC5/ErikaOS_1_common_ee_primitives.inc ****  * version 2 along with ERIKA Enterprise; if not, write to the
  37:Generated_Source\PSoC5/ErikaOS_1_common_ee_primitives.inc ****  * Free Software Foundation, Inc., 51 Franklin Street, Fifth Floor,
  38:Generated_Source\PSoC5/ErikaOS_1_common_ee_primitives.inc ****  * Boston, MA 02110-1301 USA.
  39:Generated_Source\PSoC5/ErikaOS_1_common_ee_primitives.inc ****  * ###*E*### */
  40:Generated_Source\PSoC5/ErikaOS_1_common_ee_primitives.inc **** 
  41:Generated_Source\PSoC5/ErikaOS_1_common_ee_primitives.inc **** /*
  42:Generated_Source\PSoC5/ErikaOS_1_common_ee_primitives.inc ****  * Functions used in HAL implementations, to be included by a specific
  43:Generated_Source\PSoC5/ErikaOS_1_common_ee_primitives.inc ****  * ee_internal.h header.
  44:Generated_Source\PSoC5/ErikaOS_1_common_ee_primitives.inc ****  * Derived from pkg/cpu/pic30/inc/ee_internal.h
  45:Generated_Source\PSoC5/ErikaOS_1_common_ee_primitives.inc ****  * Author: 2009 Bernardo Dal Seno
  46:Generated_Source\PSoC5/ErikaOS_1_common_ee_primitives.inc ****  */
  47:Generated_Source\PSoC5/ErikaOS_1_common_ee_primitives.inc **** 
  48:Generated_Source\PSoC5/ErikaOS_1_common_ee_primitives.inc **** /*
  49:Generated_Source\PSoC5/ErikaOS_1_common_ee_primitives.inc ****  * PSoC Port and API Generation
  50:Generated_Source\PSoC5/ErikaOS_1_common_ee_primitives.inc ****  * Carlos Fernando Meier Martinez
  51:Generated_Source\PSoC5/ErikaOS_1_common_ee_primitives.inc ****  * Hochschule Darmstadt, Germany. 2017.
  52:Generated_Source\PSoC5/ErikaOS_1_common_ee_primitives.inc ****  */
  53:Generated_Source\PSoC5/ErikaOS_1_common_ee_primitives.inc **** 
  54:Generated_Source\PSoC5/ErikaOS_1_common_ee_primitives.inc **** #ifndef PKG_CPU_COMMON_INC_EE_PRIMITIVES_H
  55:Generated_Source\PSoC5/ErikaOS_1_common_ee_primitives.inc **** #define PKG_CPU_COMMON_INC_EE_PRIMITIVES_H
  56:Generated_Source\PSoC5/ErikaOS_1_common_ee_primitives.inc **** 
  57:Generated_Source\PSoC5/ErikaOS_1_common_ee_primitives.inc **** /*
  58:Generated_Source\PSoC5/ErikaOS_1_common_ee_primitives.inc ****  * Nested Interrupts Handling
  59:Generated_Source\PSoC5/ErikaOS_1_common_ee_primitives.inc ****  */
  60:Generated_Source\PSoC5/ErikaOS_1_common_ee_primitives.inc **** 
  61:Generated_Source\PSoC5/ErikaOS_1_common_ee_primitives.inc **** /* If MemMap.h support is enabled (i.e. because memory protection): use it */
  62:Generated_Source\PSoC5/ErikaOS_1_common_ee_primitives.inc **** #ifdef EE_SUPPORT_MEMMAP_H
  63:Generated_Source\PSoC5/ErikaOS_1_common_ee_primitives.inc **** /* The following variables belong to ERIKA OS section: ee_kernel_bss */
ARM GAS  C:\Users\Asus\AppData\Local\Temp\cc4NRN5T.s 			page 44


  64:Generated_Source\PSoC5/ErikaOS_1_common_ee_primitives.inc **** #define OS_START_SEC_VAR_NOINIT
  65:Generated_Source\PSoC5/ErikaOS_1_common_ee_primitives.inc **** #include "MemMap.inc"
  66:Generated_Source\PSoC5/ErikaOS_1_common_ee_primitives.inc **** #endif /* EE_SUPPORT_MEMMAP_H */
  67:Generated_Source\PSoC5/ErikaOS_1_common_ee_primitives.inc **** 
  68:Generated_Source\PSoC5/ErikaOS_1_common_ee_primitives.inc **** extern EE_UREG EE_IRQ_nesting_level;
  69:Generated_Source\PSoC5/ErikaOS_1_common_ee_primitives.inc **** 
  70:Generated_Source\PSoC5/ErikaOS_1_common_ee_primitives.inc **** /* If MemMap.h support is enabled (i.e. because memory protection): use it */
  71:Generated_Source\PSoC5/ErikaOS_1_common_ee_primitives.inc **** #ifdef EE_SUPPORT_MEMMAP_H
  72:Generated_Source\PSoC5/ErikaOS_1_common_ee_primitives.inc **** #define OS_STOP_SEC_VAR_NOINIT
  73:Generated_Source\PSoC5/ErikaOS_1_common_ee_primitives.inc **** #include "MemMap.inc"
  74:Generated_Source\PSoC5/ErikaOS_1_common_ee_primitives.inc **** #endif /* EE_SUPPORT_MEMMAP_H */
  75:Generated_Source\PSoC5/ErikaOS_1_common_ee_primitives.inc **** 
  76:Generated_Source\PSoC5/ErikaOS_1_common_ee_primitives.inc **** /* can be called with interrupt enabled */
  77:Generated_Source\PSoC5/ErikaOS_1_common_ee_primitives.inc **** __INLINE__ EE_UREG  EE_hal_get_IRQ_nesting_level(void)
  78:Generated_Source\PSoC5/ErikaOS_1_common_ee_primitives.inc **** {
  79:Generated_Source\PSoC5/ErikaOS_1_common_ee_primitives.inc ****     return EE_IRQ_nesting_level;
 682              		.loc 4 79 0
 683 0010 204B     		ldr	r3, .L66
 684 0012 1B68     		ldr	r3, [r3]
 685              	.LBE99:
 686              	.LBE98:
 763:Generated_Source\PSoC5/ErikaOS_1_ee_altick.c **** 
 764:Generated_Source\PSoC5/ErikaOS_1_ee_altick.c ****     /* After all counter updates check if I'm not in a ISR2 and then
 765:Generated_Source\PSoC5/ErikaOS_1_ee_altick.c ****        execute rescheduling. */
 766:Generated_Source\PSoC5/ErikaOS_1_ee_altick.c ****     if ( EE_hal_get_IRQ_nesting_level() == 0U ) {
 687              		.loc 1 766 0
 688 0014 002B     		cmp	r3, #0
 689 0016 34D1     		bne	.L62
 690              	.LBB100:
 691              	.LBB101:
 692              	.LBB102:
 693              	.LBB103:
 240:Generated_Source\PSoC5/ErikaOS_1_ee_oo_internal.inc **** }
 694              		.loc 2 240 0
 695 0018 1F4B     		ldr	r3, .L66+4
 696 001a 1C68     		ldr	r4, [r3]
 697              	.LBE103:
 698              	.LBE102:
 631:Generated_Source\PSoC5/ErikaOS_1_ee_oo_internal.inc **** }
 632:Generated_Source\PSoC5/ErikaOS_1_ee_oo_internal.inc **** 
 633:Generated_Source\PSoC5/ErikaOS_1_ee_oo_internal.inc **** /* Execute a preemption */
 634:Generated_Source\PSoC5/ErikaOS_1_ee_oo_internal.inc **** #ifndef __PRIVATE_PREEMPTION_POINTS__
 635:Generated_Source\PSoC5/ErikaOS_1_ee_oo_internal.inc **** /*
 636:Generated_Source\PSoC5/ErikaOS_1_ee_oo_internal.inc ****   Moved preemption check implementation into an outside method because the
 637:Generated_Source\PSoC5/ErikaOS_1_ee_oo_internal.inc ****   behaviour is common to EE_ActivateTask, EE_oo_ForceSchedule,
 638:Generated_Source\PSoC5/ErikaOS_1_ee_oo_internal.inc ****   EE_oo_IncrementCounter, EE_oo_ReleaseResource, EE_oo_PostSem
 639:Generated_Source\PSoC5/ErikaOS_1_ee_oo_internal.inc **** */
 640:Generated_Source\PSoC5/ErikaOS_1_ee_oo_internal.inc **** __INLINE__ void  EE_oo_preemption_point(void)
 641:Generated_Source\PSoC5/ErikaOS_1_ee_oo_internal.inc **** {
 642:Generated_Source\PSoC5/ErikaOS_1_ee_oo_internal.inc ****   register EE_TID current, rq;
 643:Generated_Source\PSoC5/ErikaOS_1_ee_oo_internal.inc **** 
 644:Generated_Source\PSoC5/ErikaOS_1_ee_oo_internal.inc ****   /* check if there is a preemption */
 645:Generated_Source\PSoC5/ErikaOS_1_ee_oo_internal.inc ****   current = EE_stk_queryfirst();
 646:Generated_Source\PSoC5/ErikaOS_1_ee_oo_internal.inc ****   rq      = EE_rq_queryfirst();
 699              		.loc 2 646 0
 700 001c FFF7FEFF 		bl	EE_rq_queryfirst
 701              	.LVL64:
ARM GAS  C:\Users\Asus\AppData\Local\Temp\cc4NRN5T.s 			page 45


 647:Generated_Source\PSoC5/ErikaOS_1_ee_oo_internal.inc **** 
 648:Generated_Source\PSoC5/ErikaOS_1_ee_oo_internal.inc **** #if (defined(EE_AS_OSAPPLICATIONS__)) && (defined(__EE_MEMORY_PROTECTION__))
 649:Generated_Source\PSoC5/ErikaOS_1_ee_oo_internal.inc **** #if (defined(EE_SYSCALL_NR)) && (defined(EE_MAX_SYS_SERVICEID)) \
 650:Generated_Source\PSoC5/ErikaOS_1_ee_oo_internal.inc ****   && (EE_SYSCALL_NR > EE_MAX_SYS_SERVICEID)
 651:Generated_Source\PSoC5/ErikaOS_1_ee_oo_internal.inc ****   /* Reaction to timing protection can be defined to terminate the
 652:Generated_Source\PSoC5/ErikaOS_1_ee_oo_internal.inc ****      OSApplication. If a task is inside CallTrustedFunction() and task
 653:Generated_Source\PSoC5/ErikaOS_1_ee_oo_internal.inc ****      rescheduling takes place within the same OSApplication,
 654:Generated_Source\PSoC5/ErikaOS_1_ee_oo_internal.inc ****      the newly running higher priority task may cause timing protection and
 655:Generated_Source\PSoC5/ErikaOS_1_ee_oo_internal.inc ****      terminate the OSApplication, thus indirectly aborting the trusted
 656:Generated_Source\PSoC5/ErikaOS_1_ee_oo_internal.inc ****      function. To avoid this, the scheduling of other Tasks which belong to
 657:Generated_Source\PSoC5/ErikaOS_1_ee_oo_internal.inc ****      the same OS-Application as the caller needs to be restricted, as well as
 658:Generated_Source\PSoC5/ErikaOS_1_ee_oo_internal.inc ****      the availability of interrupts of the same OS-Application. */
 659:Generated_Source\PSoC5/ErikaOS_1_ee_oo_internal.inc ****   /* [SWS_Os_00563]: The OperatingSystem shall not schedule any other Tasks
 660:Generated_Source\PSoC5/ErikaOS_1_ee_oo_internal.inc ****       which belong to the same OS-Application as the non-trusted caller of the
 661:Generated_Source\PSoC5/ErikaOS_1_ee_oo_internal.inc ****       service. Also interrupts of Category 2 which belong to the same
 662:Generated_Source\PSoC5/ErikaOS_1_ee_oo_internal.inc ****       OS-Application shall be disabled during the execution of the service. */
 663:Generated_Source\PSoC5/ErikaOS_1_ee_oo_internal.inc ****   if (  (EE_as_active_app != EE_th_app[rq + 1]) ||
 664:Generated_Source\PSoC5/ErikaOS_1_ee_oo_internal.inc ****         (EE_as_Application_RAM[EE_as_active_app].
 665:Generated_Source\PSoC5/ErikaOS_1_ee_oo_internal.inc ****           TrustedFunctionCallsCounter == 0U) ||
 666:Generated_Source\PSoC5/ErikaOS_1_ee_oo_internal.inc ****         (EE_as_Application_ROM[EE_as_active_app].Mode == EE_MEMPROT_TRUST_MODE)
 667:Generated_Source\PSoC5/ErikaOS_1_ee_oo_internal.inc ****      )
 668:Generated_Source\PSoC5/ErikaOS_1_ee_oo_internal.inc **** #endif /* EE_SYSCALL_NR > EE_MAX_SYS_SERVICEID */
 669:Generated_Source\PSoC5/ErikaOS_1_ee_oo_internal.inc **** #endif /* EE_AS_OSAPPLICATIONS__ && __EE_MEMORY_PROTECTION__ */
 670:Generated_Source\PSoC5/ErikaOS_1_ee_oo_internal.inc ****   {
 671:Generated_Source\PSoC5/ErikaOS_1_ee_oo_internal.inc ****     if ( rq != EE_NIL ) {
 702              		.loc 2 671 0
 703 0020 B0F1FF3F 		cmp	r0, #-1
 704 0024 2FD0     		beq	.L63
 672:Generated_Source\PSoC5/ErikaOS_1_ee_oo_internal.inc ****       /* We check if the system ceiling is greater or not the first task
 673:Generated_Source\PSoC5/ErikaOS_1_ee_oo_internal.inc ****          in the ready queue */
 674:Generated_Source\PSoC5/ErikaOS_1_ee_oo_internal.inc ****       if ( EE_sys_ceiling < EE_th_ready_prio[rq] ) {
 705              		.loc 2 674 0
 706 0026 1D4B     		ldr	r3, .L66+8
 707 0028 53F82020 		ldr	r2, [r3, r0, lsl #2]
 708 002c 1C4B     		ldr	r3, .L66+12
 709 002e 1B68     		ldr	r3, [r3]
 710 0030 9A42     		cmp	r2, r3
 711 0032 2AD9     		bls	.L64
 675:Generated_Source\PSoC5/ErikaOS_1_ee_oo_internal.inc **** 
 676:Generated_Source\PSoC5/ErikaOS_1_ee_oo_internal.inc ****         if ( current != EE_NIL ) {
 712              		.loc 2 676 0
 713 0034 B4F1FF3F 		cmp	r4, #-1
 714 0038 03D0     		beq	.L59
 677:Generated_Source\PSoC5/ErikaOS_1_ee_oo_internal.inc ****           EE_oo_call_PostTaskHook();
 678:Generated_Source\PSoC5/ErikaOS_1_ee_oo_internal.inc ****           /* We have to put the task in the READY status */
 679:Generated_Source\PSoC5/ErikaOS_1_ee_oo_internal.inc ****           EE_th_status[current] = READY;
 715              		.loc 2 679 0
 716 003a 0221     		movs	r1, #2
 717 003c 194A     		ldr	r2, .L66+16
 718 003e 42F82410 		str	r1, [r2, r4, lsl #2]
 719              	.L59:
 680:Generated_Source\PSoC5/ErikaOS_1_ee_oo_internal.inc ****           /* !!! BUT NOT IN THE READY QUEUE !!!
 681:Generated_Source\PSoC5/ErikaOS_1_ee_oo_internal.inc ****              The task remains into the Stacked Queue! */
 682:Generated_Source\PSoC5/ErikaOS_1_ee_oo_internal.inc ****         }
 683:Generated_Source\PSoC5/ErikaOS_1_ee_oo_internal.inc **** 
 684:Generated_Source\PSoC5/ErikaOS_1_ee_oo_internal.inc ****         /* Get the new internal resource */
 685:Generated_Source\PSoC5/ErikaOS_1_ee_oo_internal.inc ****         EE_sys_ceiling |= EE_th_dispatch_prio[rq];
ARM GAS  C:\Users\Asus\AppData\Local\Temp\cc4NRN5T.s 			page 46


 720              		.loc 2 685 0
 721 0042 194A     		ldr	r2, .L66+20
 722 0044 52F82020 		ldr	r2, [r2, r0, lsl #2]
 723 0048 1343     		orrs	r3, r3, r2
 724 004a 154A     		ldr	r2, .L66+12
 725 004c 1360     		str	r3, [r2]
 686:Generated_Source\PSoC5/ErikaOS_1_ee_oo_internal.inc ****         /* Put the task in running state */
 687:Generated_Source\PSoC5/ErikaOS_1_ee_oo_internal.inc ****         EE_th_status[rq] = RUNNING;
 726              		.loc 2 687 0
 727 004e 0022     		movs	r2, #0
 728 0050 144B     		ldr	r3, .L66+16
 729 0052 43F82020 		str	r2, [r3, r0, lsl #2]
 730              	.LBB104:
 731              	.LBB105:
 566:Generated_Source\PSoC5/ErikaOS_1_ee_oo_internal.inc ****     if ( EE_th_waswaiting[tmp] ) {
 732              		.loc 2 566 0
 733 0056 FFF7FEFF 		bl	EE_rq2stk_exchange
 734              	.LVL65:
 567:Generated_Source\PSoC5/ErikaOS_1_ee_oo_internal.inc ****       /* if the task was waiting switch the context to restart it */
 735              		.loc 2 567 0
 736 005a 144B     		ldr	r3, .L66+24
 737 005c 53F82030 		ldr	r3, [r3, r0, lsl #2]
 738 0060 4BB1     		cbz	r3, .L60
 569:Generated_Source\PSoC5/ErikaOS_1_ee_oo_internal.inc ****       /* Call the PreTaskHook, here no stub will do that for you */
 739              		.loc 2 569 0
 740 0062 0024     		movs	r4, #0
 741 0064 114B     		ldr	r3, .L66+24
 742 0066 43F82040 		str	r4, [r3, r0, lsl #2]
 743              	.LVL66:
 744              	.LBB106:
 745              	.LBB107:
 746              		.file 5 "Generated_Source\\PSoC5\\ErikaOS_1_cortex_mx_ee_context.inc"
   1:Generated_Source\PSoC5/ErikaOS_1_cortex_mx_ee_context.inc **** /* ###*B*###
   2:Generated_Source\PSoC5/ErikaOS_1_cortex_mx_ee_context.inc ****  * ERIKA Enterprise - a tiny RTOS for small microcontrollers
   3:Generated_Source\PSoC5/ErikaOS_1_cortex_mx_ee_context.inc ****  *
   4:Generated_Source\PSoC5/ErikaOS_1_cortex_mx_ee_context.inc ****  * Copyright (C) 2002-2011  Evidence Srl
   5:Generated_Source\PSoC5/ErikaOS_1_cortex_mx_ee_context.inc ****  *
   6:Generated_Source\PSoC5/ErikaOS_1_cortex_mx_ee_context.inc ****  * This file is part of ERIKA Enterprise.
   7:Generated_Source\PSoC5/ErikaOS_1_cortex_mx_ee_context.inc ****  *
   8:Generated_Source\PSoC5/ErikaOS_1_cortex_mx_ee_context.inc ****  * ERIKA Enterprise is free software; you can redistribute it
   9:Generated_Source\PSoC5/ErikaOS_1_cortex_mx_ee_context.inc ****  * and/or modify it under the terms of the GNU General Public License
  10:Generated_Source\PSoC5/ErikaOS_1_cortex_mx_ee_context.inc ****  * version 2 as published by the Free Software Foundation, 
  11:Generated_Source\PSoC5/ErikaOS_1_cortex_mx_ee_context.inc ****  * (with a special exception described below).
  12:Generated_Source\PSoC5/ErikaOS_1_cortex_mx_ee_context.inc ****  *
  13:Generated_Source\PSoC5/ErikaOS_1_cortex_mx_ee_context.inc ****  * Linking this code statically or dynamically with other modules is
  14:Generated_Source\PSoC5/ErikaOS_1_cortex_mx_ee_context.inc ****  * making a combined work based on this code.  Thus, the terms and
  15:Generated_Source\PSoC5/ErikaOS_1_cortex_mx_ee_context.inc ****  * conditions of the GNU General Public License cover the whole
  16:Generated_Source\PSoC5/ErikaOS_1_cortex_mx_ee_context.inc ****  * combination.
  17:Generated_Source\PSoC5/ErikaOS_1_cortex_mx_ee_context.inc ****  *
  18:Generated_Source\PSoC5/ErikaOS_1_cortex_mx_ee_context.inc ****  * As a special exception, the copyright holders of this library give you
  19:Generated_Source\PSoC5/ErikaOS_1_cortex_mx_ee_context.inc ****  * permission to link this code with independent modules to produce an
  20:Generated_Source\PSoC5/ErikaOS_1_cortex_mx_ee_context.inc ****  * executable, regardless of the license terms of these independent
  21:Generated_Source\PSoC5/ErikaOS_1_cortex_mx_ee_context.inc ****  * modules, and to copy and distribute the resulting executable under
  22:Generated_Source\PSoC5/ErikaOS_1_cortex_mx_ee_context.inc ****  * terms of your choice, provided that you also meet, for each linked
  23:Generated_Source\PSoC5/ErikaOS_1_cortex_mx_ee_context.inc ****  * independent module, the terms and conditions of the license of that
  24:Generated_Source\PSoC5/ErikaOS_1_cortex_mx_ee_context.inc ****  * module.  An independent module is a module which is not derived from
  25:Generated_Source\PSoC5/ErikaOS_1_cortex_mx_ee_context.inc ****  * or based on this library.  If you modify this code, you may extend
ARM GAS  C:\Users\Asus\AppData\Local\Temp\cc4NRN5T.s 			page 47


  26:Generated_Source\PSoC5/ErikaOS_1_cortex_mx_ee_context.inc ****  * this exception to your version of the code, but you are not
  27:Generated_Source\PSoC5/ErikaOS_1_cortex_mx_ee_context.inc ****  * obligated to do so.  If you do not wish to do so, delete this
  28:Generated_Source\PSoC5/ErikaOS_1_cortex_mx_ee_context.inc ****  * exception statement from your version.
  29:Generated_Source\PSoC5/ErikaOS_1_cortex_mx_ee_context.inc ****  *
  30:Generated_Source\PSoC5/ErikaOS_1_cortex_mx_ee_context.inc ****  * ERIKA Enterprise is distributed in the hope that it will be
  31:Generated_Source\PSoC5/ErikaOS_1_cortex_mx_ee_context.inc ****  * useful, but WITHOUT ANY WARRANTY; without even the implied warranty
  32:Generated_Source\PSoC5/ErikaOS_1_cortex_mx_ee_context.inc ****  * of MERCHANTABILITY or FITNESS FOR A PARTICULAR PURPOSE.  See the
  33:Generated_Source\PSoC5/ErikaOS_1_cortex_mx_ee_context.inc ****  * GNU General Public License version 2 for more details.
  34:Generated_Source\PSoC5/ErikaOS_1_cortex_mx_ee_context.inc ****  *
  35:Generated_Source\PSoC5/ErikaOS_1_cortex_mx_ee_context.inc ****  * You should have received a copy of the GNU General Public License
  36:Generated_Source\PSoC5/ErikaOS_1_cortex_mx_ee_context.inc ****  * version 2 along with ERIKA Enterprise; if not, write to the
  37:Generated_Source\PSoC5/ErikaOS_1_cortex_mx_ee_context.inc ****  * Free Software Foundation, Inc., 51 Franklin Street, Fifth Floor,
  38:Generated_Source\PSoC5/ErikaOS_1_cortex_mx_ee_context.inc ****  * Boston, MA 02110-1301 USA.
  39:Generated_Source\PSoC5/ErikaOS_1_cortex_mx_ee_context.inc ****  * ###*E*### */
  40:Generated_Source\PSoC5/ErikaOS_1_cortex_mx_ee_context.inc **** 
  41:Generated_Source\PSoC5/ErikaOS_1_cortex_mx_ee_context.inc **** /** 
  42:Generated_Source\PSoC5/ErikaOS_1_cortex_mx_ee_context.inc **** 	@file ee_internal.h
  43:Generated_Source\PSoC5/ErikaOS_1_cortex_mx_ee_context.inc **** 	@brief Derived from cpu/common/inc/ee_internal.h
  44:Generated_Source\PSoC5/ErikaOS_1_cortex_mx_ee_context.inc **** 	@author Gianluca Franchino
  45:Generated_Source\PSoC5/ErikaOS_1_cortex_mx_ee_context.inc **** 	@author Giuseppe Serano
  46:Generated_Source\PSoC5/ErikaOS_1_cortex_mx_ee_context.inc **** 	@date 2011
  47:Generated_Source\PSoC5/ErikaOS_1_cortex_mx_ee_context.inc **** */  
  48:Generated_Source\PSoC5/ErikaOS_1_cortex_mx_ee_context.inc ****     
  49:Generated_Source\PSoC5/ErikaOS_1_cortex_mx_ee_context.inc **** /*
  50:Generated_Source\PSoC5/ErikaOS_1_cortex_mx_ee_context.inc ****  * PSoC Port and API Generation
  51:Generated_Source\PSoC5/ErikaOS_1_cortex_mx_ee_context.inc ****  * Carlos Fernando Meier Martinez
  52:Generated_Source\PSoC5/ErikaOS_1_cortex_mx_ee_context.inc ****  * Hochschule Darmstadt, Germany. 2017.
  53:Generated_Source\PSoC5/ErikaOS_1_cortex_mx_ee_context.inc ****  */
  54:Generated_Source\PSoC5/ErikaOS_1_cortex_mx_ee_context.inc **** 
  55:Generated_Source\PSoC5/ErikaOS_1_cortex_mx_ee_context.inc **** #ifndef __INCLUDE_CPU_CORTEX_MX_EE_CONTEXT__
  56:Generated_Source\PSoC5/ErikaOS_1_cortex_mx_ee_context.inc **** #define __INCLUDE_CPU_CORTEX_MX_EE_CONTEXT__
  57:Generated_Source\PSoC5/ErikaOS_1_cortex_mx_ee_context.inc **** 
  58:Generated_Source\PSoC5/ErikaOS_1_cortex_mx_ee_context.inc **** /*
  59:Generated_Source\PSoC5/ErikaOS_1_cortex_mx_ee_context.inc ****  * Instructions
  60:Generated_Source\PSoC5/ErikaOS_1_cortex_mx_ee_context.inc ****  *
  61:Generated_Source\PSoC5/ErikaOS_1_cortex_mx_ee_context.inc ****  * The monostack part is complete (obviously, the functions to disable/enable
  62:Generated_Source\PSoC5/ErikaOS_1_cortex_mx_ee_context.inc ****  *  interrupts are not included here).  For the multistack part you have to
  63:Generated_Source\PSoC5/ErikaOS_1_cortex_mx_ee_context.inc ****  *  provide two additional things:
  64:Generated_Source\PSoC5/ErikaOS_1_cortex_mx_ee_context.inc ****  *  1. An assembly implementation of EE_std_change_context_multi(); see below.
  65:Generated_Source\PSoC5/ErikaOS_1_cortex_mx_ee_context.inc ****  *  2. A #define directive for EE_hal_active_tos, which is just an alias for the
  66:Generated_Source\PSoC5/ErikaOS_1_cortex_mx_ee_context.inc ****  *  actual architecture-dependent variable.  This variable contains the index of
  67:Generated_Source\PSoC5/ErikaOS_1_cortex_mx_ee_context.inc ****  *  the current stack.
  68:Generated_Source\PSoC5/ErikaOS_1_cortex_mx_ee_context.inc ****  */
  69:Generated_Source\PSoC5/ErikaOS_1_cortex_mx_ee_context.inc **** 
  70:Generated_Source\PSoC5/ErikaOS_1_cortex_mx_ee_context.inc **** /* After a task terminates, the scheduler puts the id of the new task to launch
  71:Generated_Source\PSoC5/ErikaOS_1_cortex_mx_ee_context.inc ****  * or switch to in this variable.  If the is stacked, its id is marked so. */
  72:Generated_Source\PSoC5/ErikaOS_1_cortex_mx_ee_context.inc **** extern EE_TID EE_std_endcycle_next_tid;
  73:Generated_Source\PSoC5/ErikaOS_1_cortex_mx_ee_context.inc **** 
  74:Generated_Source\PSoC5/ErikaOS_1_cortex_mx_ee_context.inc **** /* The multistack version must be implemented in ASM; no standard
  75:Generated_Source\PSoC5/ErikaOS_1_cortex_mx_ee_context.inc ****  * implementation, sorry.  This is the only function that performs context
  76:Generated_Source\PSoC5/ErikaOS_1_cortex_mx_ee_context.inc ****  * switching.  The multistack version doesn't jump to the task body if its TID
  77:Generated_Source\PSoC5/ErikaOS_1_cortex_mx_ee_context.inc ****  * has been maked as stacked.  This is used to switch to a task that has been
  78:Generated_Source\PSoC5/ErikaOS_1_cortex_mx_ee_context.inc ****  * suspend by a previous call to EE_std_change_contex(). */
  79:Generated_Source\PSoC5/ErikaOS_1_cortex_mx_ee_context.inc **** void EE_cortex_mx_change_context(EE_TID tid);
  80:Generated_Source\PSoC5/ErikaOS_1_cortex_mx_ee_context.inc **** /* Pseudo code for EE_std_change_context_multi():
  81:Generated_Source\PSoC5/ErikaOS_1_cortex_mx_ee_context.inc ****      begin:
  82:Generated_Source\PSoC5/ErikaOS_1_cortex_mx_ee_context.inc ****       tos_index = EE_std_thread_tos[tid+1];
ARM GAS  C:\Users\Asus\AppData\Local\Temp\cc4NRN5T.s 			page 48


  83:Generated_Source\PSoC5/ErikaOS_1_cortex_mx_ee_context.inc ****       if is_not_the_current_stack(tos_index) {
  84:Generated_Source\PSoC5/ErikaOS_1_cortex_mx_ee_context.inc ****           save_caller_saved_registers();
  85:Generated_Source\PSoC5/ErikaOS_1_cortex_mx_ee_context.inc ****           switch_stacks(tos_index);
  86:Generated_Source\PSoC5/ErikaOS_1_cortex_mx_ee_context.inc ****           restore_caller_saved_registers();
  87:Generated_Source\PSoC5/ErikaOS_1_cortex_mx_ee_context.inc ****       }
  88:Generated_Source\PSoC5/ErikaOS_1_cortex_mx_ee_context.inc ****       if (is_not_marked_stacked(tid)) {
  89:Generated_Source\PSoC5/ErikaOS_1_cortex_mx_ee_context.inc ****           tid = EE_std_run_task_code(tid);
  90:Generated_Source\PSoC5/ErikaOS_1_cortex_mx_ee_context.inc ****           goto begin;
  91:Generated_Source\PSoC5/ErikaOS_1_cortex_mx_ee_context.inc ****       }
  92:Generated_Source\PSoC5/ErikaOS_1_cortex_mx_ee_context.inc **** 
  93:Generated_Source\PSoC5/ErikaOS_1_cortex_mx_ee_context.inc ****       Please notice that the "goto begin" is actually a recursive call to
  94:Generated_Source\PSoC5/ErikaOS_1_cortex_mx_ee_context.inc ****       EE_std_change_context_multi(), but in this way there is no stack growing.
  95:Generated_Source\PSoC5/ErikaOS_1_cortex_mx_ee_context.inc ****       
  96:Generated_Source\PSoC5/ErikaOS_1_cortex_mx_ee_context.inc ****       Please notice also that 'tid' must NOT be saved onto the stack before
  97:Generated_Source\PSoC5/ErikaOS_1_cortex_mx_ee_context.inc ****       switching stacks, otherwise when switching from another stack back to the
  98:Generated_Source\PSoC5/ErikaOS_1_cortex_mx_ee_context.inc ****       current one, you would overwrite its value.
  99:Generated_Source\PSoC5/ErikaOS_1_cortex_mx_ee_context.inc **** 
 100:Generated_Source\PSoC5/ErikaOS_1_cortex_mx_ee_context.inc ****       For processors where the return address is saved in a register, that
 101:Generated_Source\PSoC5/ErikaOS_1_cortex_mx_ee_context.inc ****       register must be saved in the stack too.
 102:Generated_Source\PSoC5/ErikaOS_1_cortex_mx_ee_context.inc **** 
 103:Generated_Source\PSoC5/ErikaOS_1_cortex_mx_ee_context.inc ****       switch_stacks() should also update EE_hal_active_tos.
 104:Generated_Source\PSoC5/ErikaOS_1_cortex_mx_ee_context.inc **** */
 105:Generated_Source\PSoC5/ErikaOS_1_cortex_mx_ee_context.inc **** 
 106:Generated_Source\PSoC5/ErikaOS_1_cortex_mx_ee_context.inc **** /* Call a the body of a task */
 107:Generated_Source\PSoC5/ErikaOS_1_cortex_mx_ee_context.inc **** #if defined(__OO_BCC1__) || defined(__OO_BCC2__) || \
 108:Generated_Source\PSoC5/ErikaOS_1_cortex_mx_ee_context.inc ****  defined(__OO_ECC1__) || defined(__OO_ECC2__)
 109:Generated_Source\PSoC5/ErikaOS_1_cortex_mx_ee_context.inc **** #define EE_call_task_body(tid)  EE_oo_thread_stub()
 110:Generated_Source\PSoC5/ErikaOS_1_cortex_mx_ee_context.inc **** #else
 111:Generated_Source\PSoC5/ErikaOS_1_cortex_mx_ee_context.inc **** #define EE_call_task_body(tid)  (((void (*)(void))EE_hal_thread_body[tid])())
 112:Generated_Source\PSoC5/ErikaOS_1_cortex_mx_ee_context.inc **** #endif
 113:Generated_Source\PSoC5/ErikaOS_1_cortex_mx_ee_context.inc **** 
 114:Generated_Source\PSoC5/ErikaOS_1_cortex_mx_ee_context.inc **** 
 115:Generated_Source\PSoC5/ErikaOS_1_cortex_mx_ee_context.inc **** /* Launch a new task, possibly switching to a different stack, clean up the task
 116:Generated_Source\PSoC5/ErikaOS_1_cortex_mx_ee_context.inc ****  * after it ends, and call the scheduler (and switch to other tasks/stacks)
 117:Generated_Source\PSoC5/ErikaOS_1_cortex_mx_ee_context.inc ****  * until there are no more tasks to switch to.  In the multistack version, also
 118:Generated_Source\PSoC5/ErikaOS_1_cortex_mx_ee_context.inc ****  * change the current stack before returning if the scheduler asks for it. */
 119:Generated_Source\PSoC5/ErikaOS_1_cortex_mx_ee_context.inc **** __DECLARE_INLINE__ void EE_hal_ready2stacked(EE_TID tid);
 120:Generated_Source\PSoC5/ErikaOS_1_cortex_mx_ee_context.inc **** 
 121:Generated_Source\PSoC5/ErikaOS_1_cortex_mx_ee_context.inc **** 
 122:Generated_Source\PSoC5/ErikaOS_1_cortex_mx_ee_context.inc **** /* Launch a new task on the current stack, clean up the task after it ends, and
 123:Generated_Source\PSoC5/ErikaOS_1_cortex_mx_ee_context.inc ****  * call the scheduler.  Return the next task to launch, which is "marked as
 124:Generated_Source\PSoC5/ErikaOS_1_cortex_mx_ee_context.inc ****  * stacked" if there is no new task to launch. */
 125:Generated_Source\PSoC5/ErikaOS_1_cortex_mx_ee_context.inc **** EE_TID EE_std_run_task_code(EE_TID tid);
 126:Generated_Source\PSoC5/ErikaOS_1_cortex_mx_ee_context.inc **** 
 127:Generated_Source\PSoC5/ErikaOS_1_cortex_mx_ee_context.inc **** 
 128:Generated_Source\PSoC5/ErikaOS_1_cortex_mx_ee_context.inc **** /*
 129:Generated_Source\PSoC5/ErikaOS_1_cortex_mx_ee_context.inc ****  * Inline implementations
 130:Generated_Source\PSoC5/ErikaOS_1_cortex_mx_ee_context.inc ****  */
 131:Generated_Source\PSoC5/ErikaOS_1_cortex_mx_ee_context.inc **** 
 132:Generated_Source\PSoC5/ErikaOS_1_cortex_mx_ee_context.inc **** 
 133:Generated_Source\PSoC5/ErikaOS_1_cortex_mx_ee_context.inc **** #ifdef __MONO__
 134:Generated_Source\PSoC5/ErikaOS_1_cortex_mx_ee_context.inc **** 
 135:Generated_Source\PSoC5/ErikaOS_1_cortex_mx_ee_context.inc **** /* With monostack, we need only the information that the task is stacked.  We
 136:Generated_Source\PSoC5/ErikaOS_1_cortex_mx_ee_context.inc ****  * don't need to know which task it is, as there is no new stack to switch
 137:Generated_Source\PSoC5/ErikaOS_1_cortex_mx_ee_context.inc ****  * to. */
 138:Generated_Source\PSoC5/ErikaOS_1_cortex_mx_ee_context.inc **** #define EE_std_mark_tid_stacked(tid) ((EE_TID)-1)
 139:Generated_Source\PSoC5/ErikaOS_1_cortex_mx_ee_context.inc **** 
ARM GAS  C:\Users\Asus\AppData\Local\Temp\cc4NRN5T.s 			page 49


 140:Generated_Source\PSoC5/ErikaOS_1_cortex_mx_ee_context.inc **** #define EE_std_need_context_change(tid) ((tid) >= 0)
 141:Generated_Source\PSoC5/ErikaOS_1_cortex_mx_ee_context.inc **** 
 142:Generated_Source\PSoC5/ErikaOS_1_cortex_mx_ee_context.inc **** #endif /* __MONO__ */
 143:Generated_Source\PSoC5/ErikaOS_1_cortex_mx_ee_context.inc **** 
 144:Generated_Source\PSoC5/ErikaOS_1_cortex_mx_ee_context.inc **** 
 145:Generated_Source\PSoC5/ErikaOS_1_cortex_mx_ee_context.inc **** #ifdef __MULTI__
 146:Generated_Source\PSoC5/ErikaOS_1_cortex_mx_ee_context.inc **** 
 147:Generated_Source\PSoC5/ErikaOS_1_cortex_mx_ee_context.inc **** /* TID_IS_STACKED_MARK must set the most significative bit */
 148:Generated_Source\PSoC5/ErikaOS_1_cortex_mx_ee_context.inc **** #define EE_std_mark_tid_stacked(tid) ((tid) | (EE_TID)TID_IS_STACKED_MARK)
 149:Generated_Source\PSoC5/ErikaOS_1_cortex_mx_ee_context.inc **** 
 150:Generated_Source\PSoC5/ErikaOS_1_cortex_mx_ee_context.inc **** extern int EE_std_need_context_change(EE_TID tid);
 151:Generated_Source\PSoC5/ErikaOS_1_cortex_mx_ee_context.inc **** 
 152:Generated_Source\PSoC5/ErikaOS_1_cortex_mx_ee_context.inc **** __INLINE__ void  EE_hal_stkchange(EE_TID tid)
 153:Generated_Source\PSoC5/ErikaOS_1_cortex_mx_ee_context.inc **** {
 154:Generated_Source\PSoC5/ErikaOS_1_cortex_mx_ee_context.inc ****     EE_cortex_mx_change_context(EE_std_mark_tid_stacked(tid));
 747              		.loc 5 154 0
 748 006a 40F00040 		orr	r0, r0, #-2147483648
 749              	.LVL67:
 750 006e FFF7FEFF 		bl	EE_cortex_mx_change_context
 751              	.LVL68:
 752              	.LBE107:
 753              	.LBE106:
 754              	.LBE105:
 755              	.LBE104:
 756              	.LBE101:
 757              	.LBE100:
 767:Generated_Source\PSoC5/ErikaOS_1_ee_altick.c ****       EE_oo_preemption_point();
 768:Generated_Source\PSoC5/ErikaOS_1_ee_altick.c ****     }
 769:Generated_Source\PSoC5/ErikaOS_1_ee_altick.c ****     ev = E_OK;
 758              		.loc 1 769 0
 759 0072 2046     		mov	r0, r4
 760 0074 0AE0     		b	.L58
 761              	.LVL69:
 762              	.L60:
 763              	.LBB113:
 764              	.LBB112:
 765              	.LBB111:
 766              	.LBB110:
 767              	.LBB108:
 768              	.LBB109:
 155:Generated_Source\PSoC5/ErikaOS_1_cortex_mx_ee_context.inc **** }
 156:Generated_Source\PSoC5/ErikaOS_1_cortex_mx_ee_context.inc **** 
 157:Generated_Source\PSoC5/ErikaOS_1_cortex_mx_ee_context.inc **** #endif /* __MULTI__ */
 158:Generated_Source\PSoC5/ErikaOS_1_cortex_mx_ee_context.inc **** 
 159:Generated_Source\PSoC5/ErikaOS_1_cortex_mx_ee_context.inc **** 
 160:Generated_Source\PSoC5/ErikaOS_1_cortex_mx_ee_context.inc **** /* The functions below should work for both the monostack and multistack
 161:Generated_Source\PSoC5/ErikaOS_1_cortex_mx_ee_context.inc ****  * versions of the kernel, thanks to the macros defined above.  In the mono
 162:Generated_Source\PSoC5/ErikaOS_1_cortex_mx_ee_context.inc ****  * version, all the stack-related stuff is ignored. */
 163:Generated_Source\PSoC5/ErikaOS_1_cortex_mx_ee_context.inc **** 
 164:Generated_Source\PSoC5/ErikaOS_1_cortex_mx_ee_context.inc **** 
 165:Generated_Source\PSoC5/ErikaOS_1_cortex_mx_ee_context.inc **** __INLINE__ void  EE_hal_ready2stacked(EE_TID tid)
 166:Generated_Source\PSoC5/ErikaOS_1_cortex_mx_ee_context.inc **** {
 167:Generated_Source\PSoC5/ErikaOS_1_cortex_mx_ee_context.inc ****     EE_cortex_mx_change_context(tid);
 769              		.loc 5 167 0
 770 0076 FFF7FEFF 		bl	EE_cortex_mx_change_context
 771              	.LVL70:
 772              	.LBE109:
ARM GAS  C:\Users\Asus\AppData\Local\Temp\cc4NRN5T.s 			page 50


 773              	.LBE108:
 774              	.LBE110:
 775              	.LBE111:
 776              	.LBE112:
 777              	.LBE113:
 778              		.loc 1 769 0
 779 007a 0020     		movs	r0, #0
 780 007c 06E0     		b	.L58
 781              	.LVL71:
 782              	.L61:
 750:Generated_Source\PSoC5/ErikaOS_1_ee_altick.c ****   } else
 783              		.loc 1 750 0
 784 007e 0320     		movs	r0, #3
 785              	.LVL72:
 786 0080 04E0     		b	.L58
 787              	.L62:
 788              		.loc 1 769 0
 789 0082 0020     		movs	r0, #0
 790 0084 02E0     		b	.L58
 791              	.LVL73:
 792              	.L63:
 793 0086 0020     		movs	r0, #0
 794              	.LVL74:
 795 0088 00E0     		b	.L58
 796              	.LVL75:
 797              	.L64:
 798 008a 0020     		movs	r0, #0
 799              	.LVL76:
 800              	.L58:
 801              	.LBB114:
 802              	.LBB115:
 803              	.LBB116:
 232:Generated_Source\PSoC5/ErikaOS_1_cortex_mx_ee_cpu.inc **** #endif	/* !__KEIL__ */
 804              		.loc 3 232 0
 805              		.syntax unified
 806              	@ 232 "Generated_Source\PSoC5\ErikaOS_1_cortex_mx_ee_cpu.inc" 1
 807 008c 85F31088 		msr primask, r5
 808              	@ 0 "" 2
 809              	.LVL77:
 810              		.thumb
 811              		.syntax unified
 812              	.LBE116:
 813              	.LBE115:
 814              	.LBE114:
 770:Generated_Source\PSoC5/ErikaOS_1_ee_altick.c ****   }
 771:Generated_Source\PSoC5/ErikaOS_1_ee_altick.c **** 
 772:Generated_Source\PSoC5/ErikaOS_1_ee_altick.c ****   if ( ev != E_OK ) {
 773:Generated_Source\PSoC5/ErikaOS_1_ee_altick.c ****     EE_ORTI_set_lasterror(ev);
 774:Generated_Source\PSoC5/ErikaOS_1_ee_altick.c ****     EE_oo_notify_error_IncrementCounter(CounterID, ev);
 775:Generated_Source\PSoC5/ErikaOS_1_ee_altick.c ****   }
 776:Generated_Source\PSoC5/ErikaOS_1_ee_altick.c **** 
 777:Generated_Source\PSoC5/ErikaOS_1_ee_altick.c ****   EE_ORTI_set_service_out(EE_SERVICETRACE_INCREMENTCOUNTER);
 778:Generated_Source\PSoC5/ErikaOS_1_ee_altick.c ****   EE_OS_EXIT_CRITICAL_SECTION();
 779:Generated_Source\PSoC5/ErikaOS_1_ee_altick.c **** 
 780:Generated_Source\PSoC5/ErikaOS_1_ee_altick.c ****   return ev;
 781:Generated_Source\PSoC5/ErikaOS_1_ee_altick.c **** }
 815              		.loc 1 781 0
ARM GAS  C:\Users\Asus\AppData\Local\Temp\cc4NRN5T.s 			page 51


 816 0090 38BD     		pop	{r3, r4, r5, pc}
 817              	.L67:
 818 0092 00BF     		.align	2
 819              	.L66:
 820 0094 00000000 		.word	EE_IRQ_nesting_level
 821 0098 00000000 		.word	EE_stkfirst
 822 009c 00000000 		.word	EE_th_ready_prio
 823 00a0 00000000 		.word	EE_sys_ceiling
 824 00a4 00000000 		.word	EE_th_status
 825 00a8 00000000 		.word	EE_th_dispatch_prio
 826 00ac 00000000 		.word	EE_th_waswaiting
 827              		.cfi_endproc
 828              	.LFE77:
 829              		.size	EE_oo_IncrementCounter, .-EE_oo_IncrementCounter
 830              		.text
 831              	.Letext0:
 832              		.file 6 "Generated_Source\\PSoC5\\ErikaOS_1_common_ee_types.inc"
 833              		.file 7 "Generated_Source\\PSoC5\\ErikaOS_1_ee_oo_common.inc"
 834              		.file 8 "Generated_Source\\PSoC5\\ErikaOS_1_cortex_mx_ee_internal.inc"
 835              		.file 9 "Generated_Source\\PSoC5\\ErikaOS_1_ee_as_internal.inc"
 836              		.file 10 "Generated_Source\\PSoC5\\ErikaOS_1_ee_oo_intfunc.inc"