ARM GAS  C:\Users\Asus\AppData\Local\Temp\ccswB91r.s 			page 1


   1              		.syntax unified
   2              		.cpu cortex-m3
   3              		.fpu softvfp
   4              		.eabi_attribute 20, 1
   5              		.eabi_attribute 21, 1
   6              		.eabi_attribute 23, 3
   7              		.eabi_attribute 24, 1
   8              		.eabi_attribute 25, 1
   9              		.eabi_attribute 26, 1
  10              		.eabi_attribute 30, 1
  11              		.eabi_attribute 34, 1
  12              		.eabi_attribute 18, 4
  13              		.thumb
  14              		.syntax unified
  15              		.file	"ErikaOS_1_ee_algetbase.c"
  16              		.text
  17              	.Ltext0:
  18              		.cfi_sections	.debug_frame
  19              		.section	.text.EE_oo_GetAlarmBase,"ax",%progbits
  20              		.align	2
  21              		.global	EE_oo_GetAlarmBase
  22              		.thumb
  23              		.thumb_func
  24              		.type	EE_oo_GetAlarmBase, %function
  25              	EE_oo_GetAlarmBase:
  26              	.LFB70:
  27              		.file 1 "Generated_Source\\PSoC5\\ErikaOS_1_ee_algetbase.c"
   1:Generated_Source\PSoC5/ErikaOS_1_ee_algetbase.c **** /* ###*B*###
   2:Generated_Source\PSoC5/ErikaOS_1_ee_algetbase.c ****  * ERIKA Enterprise - a tiny RTOS for small microcontrollers
   3:Generated_Source\PSoC5/ErikaOS_1_ee_algetbase.c ****  *
   4:Generated_Source\PSoC5/ErikaOS_1_ee_algetbase.c ****  * Copyright (C) 2002-2008  Evidence Srl
   5:Generated_Source\PSoC5/ErikaOS_1_ee_algetbase.c ****  *
   6:Generated_Source\PSoC5/ErikaOS_1_ee_algetbase.c ****  * This file is part of ERIKA Enterprise.
   7:Generated_Source\PSoC5/ErikaOS_1_ee_algetbase.c ****  *
   8:Generated_Source\PSoC5/ErikaOS_1_ee_algetbase.c ****  * ERIKA Enterprise is free software; you can redistribute it
   9:Generated_Source\PSoC5/ErikaOS_1_ee_algetbase.c ****  * and/or modify it under the terms of the GNU General Public License
  10:Generated_Source\PSoC5/ErikaOS_1_ee_algetbase.c ****  * version 2 as published by the Free Software Foundation, 
  11:Generated_Source\PSoC5/ErikaOS_1_ee_algetbase.c ****  * (with a special exception described below).
  12:Generated_Source\PSoC5/ErikaOS_1_ee_algetbase.c ****  *
  13:Generated_Source\PSoC5/ErikaOS_1_ee_algetbase.c ****  * Linking this code statically or dynamically with other modules is
  14:Generated_Source\PSoC5/ErikaOS_1_ee_algetbase.c ****  * making a combined work based on this code.  Thus, the terms and
  15:Generated_Source\PSoC5/ErikaOS_1_ee_algetbase.c ****  * conditions of the GNU General Public License cover the whole
  16:Generated_Source\PSoC5/ErikaOS_1_ee_algetbase.c ****  * combination.
  17:Generated_Source\PSoC5/ErikaOS_1_ee_algetbase.c ****  *
  18:Generated_Source\PSoC5/ErikaOS_1_ee_algetbase.c ****  * As a special exception, the copyright holders of this library give you
  19:Generated_Source\PSoC5/ErikaOS_1_ee_algetbase.c ****  * permission to link this code with independent modules to produce an
  20:Generated_Source\PSoC5/ErikaOS_1_ee_algetbase.c ****  * executable, regardless of the license terms of these independent
  21:Generated_Source\PSoC5/ErikaOS_1_ee_algetbase.c ****  * modules, and to copy and distribute the resulting executable under
  22:Generated_Source\PSoC5/ErikaOS_1_ee_algetbase.c ****  * terms of your choice, provided that you also meet, for each linked
  23:Generated_Source\PSoC5/ErikaOS_1_ee_algetbase.c ****  * independent module, the terms and conditions of the license of that
  24:Generated_Source\PSoC5/ErikaOS_1_ee_algetbase.c ****  * module.  An independent module is a module which is not derived from
  25:Generated_Source\PSoC5/ErikaOS_1_ee_algetbase.c ****  * or based on this library.  If you modify this code, you may extend
  26:Generated_Source\PSoC5/ErikaOS_1_ee_algetbase.c ****  * this exception to your version of the code, but you are not
  27:Generated_Source\PSoC5/ErikaOS_1_ee_algetbase.c ****  * obligated to do so.  If you do not wish to do so, delete this
  28:Generated_Source\PSoC5/ErikaOS_1_ee_algetbase.c ****  * exception statement from your version.
  29:Generated_Source\PSoC5/ErikaOS_1_ee_algetbase.c ****  *
  30:Generated_Source\PSoC5/ErikaOS_1_ee_algetbase.c ****  * ERIKA Enterprise is distributed in the hope that it will be
ARM GAS  C:\Users\Asus\AppData\Local\Temp\ccswB91r.s 			page 2


  31:Generated_Source\PSoC5/ErikaOS_1_ee_algetbase.c ****  * useful, but WITHOUT ANY WARRANTY; without even the implied warranty
  32:Generated_Source\PSoC5/ErikaOS_1_ee_algetbase.c ****  * of MERCHANTABILITY or FITNESS FOR A PARTICULAR PURPOSE.  See the
  33:Generated_Source\PSoC5/ErikaOS_1_ee_algetbase.c ****  * GNU General Public License version 2 for more details.
  34:Generated_Source\PSoC5/ErikaOS_1_ee_algetbase.c ****  *
  35:Generated_Source\PSoC5/ErikaOS_1_ee_algetbase.c ****  * You should have received a copy of the GNU General Public License
  36:Generated_Source\PSoC5/ErikaOS_1_ee_algetbase.c ****  * version 2 along with ERIKA Enterprise; if not, write to the
  37:Generated_Source\PSoC5/ErikaOS_1_ee_algetbase.c ****  * Free Software Foundation, Inc., 51 Franklin Street, Fifth Floor,
  38:Generated_Source\PSoC5/ErikaOS_1_ee_algetbase.c ****  * Boston, MA 02110-1301 USA.
  39:Generated_Source\PSoC5/ErikaOS_1_ee_algetbase.c ****  * ###*E*### */
  40:Generated_Source\PSoC5/ErikaOS_1_ee_algetbase.c **** 
  41:Generated_Source\PSoC5/ErikaOS_1_ee_algetbase.c **** /*
  42:Generated_Source\PSoC5/ErikaOS_1_ee_algetbase.c ****  * Author: 2002 Paolo Gai
  43:Generated_Source\PSoC5/ErikaOS_1_ee_algetbase.c ****  * CVS: $Id: ee_algetbase.c,v 1.1 2005/07/16 12:23:42 pj Exp $
  44:Generated_Source\PSoC5/ErikaOS_1_ee_algetbase.c ****  */
  45:Generated_Source\PSoC5/ErikaOS_1_ee_algetbase.c **** 
  46:Generated_Source\PSoC5/ErikaOS_1_ee_algetbase.c **** /*
  47:Generated_Source\PSoC5/ErikaOS_1_ee_algetbase.c ****  * PSoC Port and API Generation
  48:Generated_Source\PSoC5/ErikaOS_1_ee_algetbase.c ****  * Carlos Fernando Meier Martinez
  49:Generated_Source\PSoC5/ErikaOS_1_ee_algetbase.c ****  * Hochschule Darmstadt, Germany. 2017.
  50:Generated_Source\PSoC5/ErikaOS_1_ee_algetbase.c ****  */
  51:Generated_Source\PSoC5/ErikaOS_1_ee_algetbase.c **** 
  52:Generated_Source\PSoC5/ErikaOS_1_ee_algetbase.c **** #include "ErikaOS_1_ee_internal.inc"
  53:Generated_Source\PSoC5/ErikaOS_1_ee_algetbase.c **** #if (defined(__OO_BCC1__) || defined(__OO_BCC2__) || defined(__OO_ECC1__) || defined(__OO_ECC2__)) 
  54:Generated_Source\PSoC5/ErikaOS_1_ee_algetbase.c **** /* GetAlarmBase
  55:Generated_Source\PSoC5/ErikaOS_1_ee_algetbase.c ****    - This function returns the base characteristics of a counter
  56:Generated_Source\PSoC5/ErikaOS_1_ee_algetbase.c ****    - in Extended Status it returns E_OK or E_OS_ID if the alarm_id is invalid
  57:Generated_Source\PSoC5/ErikaOS_1_ee_algetbase.c **** */
  58:Generated_Source\PSoC5/ErikaOS_1_ee_algetbase.c **** 
  59:Generated_Source\PSoC5/ErikaOS_1_ee_algetbase.c **** #ifndef __PRIVATE_GETALARMBASE__
  60:Generated_Source\PSoC5/ErikaOS_1_ee_algetbase.c **** StatusType EE_oo_GetAlarmBase(AlarmType AlarmID, AlarmBaseRefType Info)
  61:Generated_Source\PSoC5/ErikaOS_1_ee_algetbase.c **** {
  28              		.loc 1 61 0
  29              		.cfi_startproc
  30              		@ args = 0, pretend = 0, frame = 0
  31              		@ frame_needed = 0, uses_anonymous_args = 0
  32              		@ link register save eliminated.
  33              	.LVL0:
  34              	.LBB25:
  35              	.LBB26:
  36              	.LBB27:
  37              		.file 2 "Generated_Source\\PSoC5\\ErikaOS_1_cortex_mx_ee_cpu.inc"
   1:Generated_Source\PSoC5/ErikaOS_1_cortex_mx_ee_cpu.inc **** /* ###*B*###
   2:Generated_Source\PSoC5/ErikaOS_1_cortex_mx_ee_cpu.inc ****  * ERIKA Enterprise - a tiny RTOS for small microcontrollers
   3:Generated_Source\PSoC5/ErikaOS_1_cortex_mx_ee_cpu.inc ****  *
   4:Generated_Source\PSoC5/ErikaOS_1_cortex_mx_ee_cpu.inc ****  * Copyright (C) 2002-2011  Evidence Srl
   5:Generated_Source\PSoC5/ErikaOS_1_cortex_mx_ee_cpu.inc ****  *
   6:Generated_Source\PSoC5/ErikaOS_1_cortex_mx_ee_cpu.inc ****  * This file is part of ERIKA Enterprise.
   7:Generated_Source\PSoC5/ErikaOS_1_cortex_mx_ee_cpu.inc ****  *
   8:Generated_Source\PSoC5/ErikaOS_1_cortex_mx_ee_cpu.inc ****  * ERIKA Enterprise is free software; you can redistribute it
   9:Generated_Source\PSoC5/ErikaOS_1_cortex_mx_ee_cpu.inc ****  * and/or modify it under the terms of the GNU General Public License
  10:Generated_Source\PSoC5/ErikaOS_1_cortex_mx_ee_cpu.inc ****  * version 2 as published by the Free Software Foundation, 
  11:Generated_Source\PSoC5/ErikaOS_1_cortex_mx_ee_cpu.inc ****  * (with a special exception described below).
  12:Generated_Source\PSoC5/ErikaOS_1_cortex_mx_ee_cpu.inc ****  *
  13:Generated_Source\PSoC5/ErikaOS_1_cortex_mx_ee_cpu.inc ****  * Linking this code statically or dynamically with other modules is
  14:Generated_Source\PSoC5/ErikaOS_1_cortex_mx_ee_cpu.inc ****  * making a combined work based on this code.  Thus, the terms and
  15:Generated_Source\PSoC5/ErikaOS_1_cortex_mx_ee_cpu.inc ****  * conditions of the GNU General Public License cover the whole
  16:Generated_Source\PSoC5/ErikaOS_1_cortex_mx_ee_cpu.inc ****  * combination.
ARM GAS  C:\Users\Asus\AppData\Local\Temp\ccswB91r.s 			page 3


  17:Generated_Source\PSoC5/ErikaOS_1_cortex_mx_ee_cpu.inc ****  *
  18:Generated_Source\PSoC5/ErikaOS_1_cortex_mx_ee_cpu.inc ****  * As a special exception, the copyright holders of this library give you
  19:Generated_Source\PSoC5/ErikaOS_1_cortex_mx_ee_cpu.inc ****  * permission to link this code with independent modules to produce an
  20:Generated_Source\PSoC5/ErikaOS_1_cortex_mx_ee_cpu.inc ****  * executable, regardless of the license terms of these independent
  21:Generated_Source\PSoC5/ErikaOS_1_cortex_mx_ee_cpu.inc ****  * modules, and to copy and distribute the resulting executable under
  22:Generated_Source\PSoC5/ErikaOS_1_cortex_mx_ee_cpu.inc ****  * terms of your choice, provided that you also meet, for each linked
  23:Generated_Source\PSoC5/ErikaOS_1_cortex_mx_ee_cpu.inc ****  * independent module, the terms and conditions of the license of that
  24:Generated_Source\PSoC5/ErikaOS_1_cortex_mx_ee_cpu.inc ****  * module.  An independent module is a module which is not derived from
  25:Generated_Source\PSoC5/ErikaOS_1_cortex_mx_ee_cpu.inc ****  * or based on this library.  If you modify this code, you may extend
  26:Generated_Source\PSoC5/ErikaOS_1_cortex_mx_ee_cpu.inc ****  * this exception to your version of the code, but you are not
  27:Generated_Source\PSoC5/ErikaOS_1_cortex_mx_ee_cpu.inc ****  * obligated to do so.  If you do not wish to do so, delete this
  28:Generated_Source\PSoC5/ErikaOS_1_cortex_mx_ee_cpu.inc ****  * exception statement from your version.
  29:Generated_Source\PSoC5/ErikaOS_1_cortex_mx_ee_cpu.inc ****  *
  30:Generated_Source\PSoC5/ErikaOS_1_cortex_mx_ee_cpu.inc ****  * ERIKA Enterprise is distributed in the hope that it will be
  31:Generated_Source\PSoC5/ErikaOS_1_cortex_mx_ee_cpu.inc ****  * useful, but WITHOUT ANY WARRANTY; without even the implied warranty
  32:Generated_Source\PSoC5/ErikaOS_1_cortex_mx_ee_cpu.inc ****  * of MERCHANTABILITY or FITNESS FOR A PARTICULAR PURPOSE.  See the
  33:Generated_Source\PSoC5/ErikaOS_1_cortex_mx_ee_cpu.inc ****  * GNU General Public License version 2 for more details.
  34:Generated_Source\PSoC5/ErikaOS_1_cortex_mx_ee_cpu.inc ****  *
  35:Generated_Source\PSoC5/ErikaOS_1_cortex_mx_ee_cpu.inc ****  * You should have received a copy of the GNU General Public License
  36:Generated_Source\PSoC5/ErikaOS_1_cortex_mx_ee_cpu.inc ****  * version 2 along with ERIKA Enterprise; if not, write to the
  37:Generated_Source\PSoC5/ErikaOS_1_cortex_mx_ee_cpu.inc ****  * Free Software Foundation, Inc., 51 Franklin Street, Fifth Floor,
  38:Generated_Source\PSoC5/ErikaOS_1_cortex_mx_ee_cpu.inc ****  * Boston, MA 02110-1301 USA.
  39:Generated_Source\PSoC5/ErikaOS_1_cortex_mx_ee_cpu.inc ****  * ###*E*### */
  40:Generated_Source\PSoC5/ErikaOS_1_cortex_mx_ee_cpu.inc **** 
  41:Generated_Source\PSoC5/ErikaOS_1_cortex_mx_ee_cpu.inc **** /** 
  42:Generated_Source\PSoC5/ErikaOS_1_cortex_mx_ee_cpu.inc **** 	@file ee_cpu.h
  43:Generated_Source\PSoC5/ErikaOS_1_cortex_mx_ee_cpu.inc **** 	@brief CPU-dependent part of HAL. Derived from pkg/cpu/pic30/inc/ee_cpu.h
  44:Generated_Source\PSoC5/ErikaOS_1_cortex_mx_ee_cpu.inc **** 	@author Gianluca Franchino
  45:Generated_Source\PSoC5/ErikaOS_1_cortex_mx_ee_cpu.inc **** 	@author Giuseppe Serano
  46:Generated_Source\PSoC5/ErikaOS_1_cortex_mx_ee_cpu.inc **** 	@date 2011
  47:Generated_Source\PSoC5/ErikaOS_1_cortex_mx_ee_cpu.inc **** */ 
  48:Generated_Source\PSoC5/ErikaOS_1_cortex_mx_ee_cpu.inc ****     
  49:Generated_Source\PSoC5/ErikaOS_1_cortex_mx_ee_cpu.inc **** /*
  50:Generated_Source\PSoC5/ErikaOS_1_cortex_mx_ee_cpu.inc ****  * PSoC Port and API Generation
  51:Generated_Source\PSoC5/ErikaOS_1_cortex_mx_ee_cpu.inc ****  * Carlos Fernando Meier Martinez
  52:Generated_Source\PSoC5/ErikaOS_1_cortex_mx_ee_cpu.inc ****  * Hochschule Darmstadt, Germany. 2017.
  53:Generated_Source\PSoC5/ErikaOS_1_cortex_mx_ee_cpu.inc ****  */
  54:Generated_Source\PSoC5/ErikaOS_1_cortex_mx_ee_cpu.inc **** 
  55:Generated_Source\PSoC5/ErikaOS_1_cortex_mx_ee_cpu.inc **** #ifndef __INCLUDE_CORTEX_MX_EE_CPU_H__
  56:Generated_Source\PSoC5/ErikaOS_1_cortex_mx_ee_cpu.inc **** #define __INCLUDE_CORTEX_MX_EE_CPU_H__
  57:Generated_Source\PSoC5/ErikaOS_1_cortex_mx_ee_cpu.inc **** 
  58:Generated_Source\PSoC5/ErikaOS_1_cortex_mx_ee_cpu.inc **** #include "ErikaOS_1_eecfg.inc"
  59:Generated_Source\PSoC5/ErikaOS_1_cortex_mx_ee_cpu.inc **** 
  60:Generated_Source\PSoC5/ErikaOS_1_cortex_mx_ee_cpu.inc **** 
  61:Generated_Source\PSoC5/ErikaOS_1_cortex_mx_ee_cpu.inc **** #ifdef __GNU__
  62:Generated_Source\PSoC5/ErikaOS_1_cortex_mx_ee_cpu.inc **** #include "ErikaOS_1_common_ee_compiler_gcc.inc"
  63:Generated_Source\PSoC5/ErikaOS_1_cortex_mx_ee_cpu.inc **** #endif
  64:Generated_Source\PSoC5/ErikaOS_1_cortex_mx_ee_cpu.inc **** 
  65:Generated_Source\PSoC5/ErikaOS_1_cortex_mx_ee_cpu.inc **** /* Initial stack offset (in words): Used in multistack. */
  66:Generated_Source\PSoC5/ErikaOS_1_cortex_mx_ee_cpu.inc **** #ifndef CORTEX_MX_INIT_TOS_OFFSET
  67:Generated_Source\PSoC5/ErikaOS_1_cortex_mx_ee_cpu.inc **** #define CORTEX_MX_INIT_TOS_OFFSET 10
  68:Generated_Source\PSoC5/ErikaOS_1_cortex_mx_ee_cpu.inc **** #endif
  69:Generated_Source\PSoC5/ErikaOS_1_cortex_mx_ee_cpu.inc **** 
  70:Generated_Source\PSoC5/ErikaOS_1_cortex_mx_ee_cpu.inc **** /*************************************************************************
  71:Generated_Source\PSoC5/ErikaOS_1_cortex_mx_ee_cpu.inc ****  HAL Types and structures
  72:Generated_Source\PSoC5/ErikaOS_1_cortex_mx_ee_cpu.inc ****  *************************************************************************/
  73:Generated_Source\PSoC5/ErikaOS_1_cortex_mx_ee_cpu.inc **** 
ARM GAS  C:\Users\Asus\AppData\Local\Temp\ccswB91r.s 			page 4


  74:Generated_Source\PSoC5/ErikaOS_1_cortex_mx_ee_cpu.inc **** /* Primitive data types */
  75:Generated_Source\PSoC5/ErikaOS_1_cortex_mx_ee_cpu.inc **** #include "ErikaOS_1_common_ee_types.inc"
  76:Generated_Source\PSoC5/ErikaOS_1_cortex_mx_ee_cpu.inc **** 
  77:Generated_Source\PSoC5/ErikaOS_1_cortex_mx_ee_cpu.inc **** typedef EE_UINT32 EE_UREG;
  78:Generated_Source\PSoC5/ErikaOS_1_cortex_mx_ee_cpu.inc **** typedef EE_INT32  EE_SREG;
  79:Generated_Source\PSoC5/ErikaOS_1_cortex_mx_ee_cpu.inc **** typedef EE_UINT32 EE_FREG;
  80:Generated_Source\PSoC5/ErikaOS_1_cortex_mx_ee_cpu.inc **** #define EE_UREG_SIZE 4
  81:Generated_Source\PSoC5/ErikaOS_1_cortex_mx_ee_cpu.inc **** 
  82:Generated_Source\PSoC5/ErikaOS_1_cortex_mx_ee_cpu.inc **** /* boolean type */
  83:Generated_Source\PSoC5/ErikaOS_1_cortex_mx_ee_cpu.inc **** #ifndef EE_TYPEBOOL
  84:Generated_Source\PSoC5/ErikaOS_1_cortex_mx_ee_cpu.inc **** typedef EE_UREG EE_TYPEBOOL;
  85:Generated_Source\PSoC5/ErikaOS_1_cortex_mx_ee_cpu.inc **** #endif
  86:Generated_Source\PSoC5/ErikaOS_1_cortex_mx_ee_cpu.inc **** 
  87:Generated_Source\PSoC5/ErikaOS_1_cortex_mx_ee_cpu.inc **** /* boolean true define */
  88:Generated_Source\PSoC5/ErikaOS_1_cortex_mx_ee_cpu.inc **** #ifndef EE_TRUE
  89:Generated_Source\PSoC5/ErikaOS_1_cortex_mx_ee_cpu.inc **** #define EE_TRUE ((EE_TYPEBOOL)1U)
  90:Generated_Source\PSoC5/ErikaOS_1_cortex_mx_ee_cpu.inc **** #endif
  91:Generated_Source\PSoC5/ErikaOS_1_cortex_mx_ee_cpu.inc **** 
  92:Generated_Source\PSoC5/ErikaOS_1_cortex_mx_ee_cpu.inc **** /* boolean false define */
  93:Generated_Source\PSoC5/ErikaOS_1_cortex_mx_ee_cpu.inc **** #ifndef EE_FALSE
  94:Generated_Source\PSoC5/ErikaOS_1_cortex_mx_ee_cpu.inc **** #define EE_FALSE ((EE_TYPEBOOL)0U)
  95:Generated_Source\PSoC5/ErikaOS_1_cortex_mx_ee_cpu.inc **** #endif
  96:Generated_Source\PSoC5/ErikaOS_1_cortex_mx_ee_cpu.inc **** 
  97:Generated_Source\PSoC5/ErikaOS_1_cortex_mx_ee_cpu.inc **** #define	EE_HWREG_PTR		volatile EE_UREG *
  98:Generated_Source\PSoC5/ErikaOS_1_cortex_mx_ee_cpu.inc **** #define	EE_HWREG_ADDR(x)	((EE_HWREG_PTR)(x))
  99:Generated_Source\PSoC5/ErikaOS_1_cortex_mx_ee_cpu.inc **** #define	EE_HWREG(x)		(*EE_HWREG_ADDR(x))
 100:Generated_Source\PSoC5/ErikaOS_1_cortex_mx_ee_cpu.inc **** 
 101:Generated_Source\PSoC5/ErikaOS_1_cortex_mx_ee_cpu.inc **** #ifdef __GNU__
 102:Generated_Source\PSoC5/ErikaOS_1_cortex_mx_ee_cpu.inc **** 
 103:Generated_Source\PSoC5/ErikaOS_1_cortex_mx_ee_cpu.inc **** /* Get current SP */
 104:Generated_Source\PSoC5/ErikaOS_1_cortex_mx_ee_cpu.inc **** __INLINE__ EE_UINT32  __current_sp(void)
 105:Generated_Source\PSoC5/ErikaOS_1_cortex_mx_ee_cpu.inc **** {
 106:Generated_Source\PSoC5/ErikaOS_1_cortex_mx_ee_cpu.inc **** EE_UINT32 temp;
 107:Generated_Source\PSoC5/ErikaOS_1_cortex_mx_ee_cpu.inc **** __ASM ("mov %0, sp" : "=r" (temp) : );
 108:Generated_Source\PSoC5/ErikaOS_1_cortex_mx_ee_cpu.inc **** return temp;
 109:Generated_Source\PSoC5/ErikaOS_1_cortex_mx_ee_cpu.inc **** }
 110:Generated_Source\PSoC5/ErikaOS_1_cortex_mx_ee_cpu.inc **** 
 111:Generated_Source\PSoC5/ErikaOS_1_cortex_mx_ee_cpu.inc **** /* Set a breakpoint */
 112:Generated_Source\PSoC5/ErikaOS_1_cortex_mx_ee_cpu.inc **** #define __breakpoint(value)	__ASM ("bkpt "#value)
 113:Generated_Source\PSoC5/ErikaOS_1_cortex_mx_ee_cpu.inc **** 
 114:Generated_Source\PSoC5/ErikaOS_1_cortex_mx_ee_cpu.inc **** #endif
 115:Generated_Source\PSoC5/ErikaOS_1_cortex_mx_ee_cpu.inc **** 
 116:Generated_Source\PSoC5/ErikaOS_1_cortex_mx_ee_cpu.inc **** /* ISR Priority representation type */
 117:Generated_Source\PSoC5/ErikaOS_1_cortex_mx_ee_cpu.inc **** typedef EE_UREG EE_TYPEISR2PRIO;
 118:Generated_Source\PSoC5/ErikaOS_1_cortex_mx_ee_cpu.inc **** 
 119:Generated_Source\PSoC5/ErikaOS_1_cortex_mx_ee_cpu.inc **** /* Thread IDs */
 120:Generated_Source\PSoC5/ErikaOS_1_cortex_mx_ee_cpu.inc **** typedef EE_INT32 EE_TID;
 121:Generated_Source\PSoC5/ErikaOS_1_cortex_mx_ee_cpu.inc **** 
 122:Generated_Source\PSoC5/ErikaOS_1_cortex_mx_ee_cpu.inc **** /* Thread IDs - unsigned version*/
 123:Generated_Source\PSoC5/ErikaOS_1_cortex_mx_ee_cpu.inc **** typedef EE_UINT32 EE_UTID;
 124:Generated_Source\PSoC5/ErikaOS_1_cortex_mx_ee_cpu.inc **** 
 125:Generated_Source\PSoC5/ErikaOS_1_cortex_mx_ee_cpu.inc **** /* Used by the common layer to decide whether to start a new thread */
 126:Generated_Source\PSoC5/ErikaOS_1_cortex_mx_ee_cpu.inc **** #define TID_IS_STACKED_MARK 0x80000000
 127:Generated_Source\PSoC5/ErikaOS_1_cortex_mx_ee_cpu.inc **** 
 128:Generated_Source\PSoC5/ErikaOS_1_cortex_mx_ee_cpu.inc **** /* EE_TYPEIRQ is currently unused */
 129:Generated_Source\PSoC5/ErikaOS_1_cortex_mx_ee_cpu.inc **** 
 130:Generated_Source\PSoC5/ErikaOS_1_cortex_mx_ee_cpu.inc **** /* XXX: define EE_TIME? */
ARM GAS  C:\Users\Asus\AppData\Local\Temp\ccswB91r.s 			page 5


 131:Generated_Source\PSoC5/ErikaOS_1_cortex_mx_ee_cpu.inc **** 
 132:Generated_Source\PSoC5/ErikaOS_1_cortex_mx_ee_cpu.inc **** /* Use the "standard" implementation */
 133:Generated_Source\PSoC5/ErikaOS_1_cortex_mx_ee_cpu.inc **** #include "ErikaOS_1_common_ee_hal_structs.inc"
 134:Generated_Source\PSoC5/ErikaOS_1_cortex_mx_ee_cpu.inc **** 
 135:Generated_Source\PSoC5/ErikaOS_1_cortex_mx_ee_cpu.inc **** /******************************************************************************
 136:Generated_Source\PSoC5/ErikaOS_1_cortex_mx_ee_cpu.inc ****  Application dependent data types
 137:Generated_Source\PSoC5/ErikaOS_1_cortex_mx_ee_cpu.inc ****  ******************************************************************************/
 138:Generated_Source\PSoC5/ErikaOS_1_cortex_mx_ee_cpu.inc **** 
 139:Generated_Source\PSoC5/ErikaOS_1_cortex_mx_ee_cpu.inc **** #ifdef	__HAS_TYPES_H__
 140:Generated_Source\PSoC5/ErikaOS_1_cortex_mx_ee_cpu.inc **** #include	"types.h"
 141:Generated_Source\PSoC5/ErikaOS_1_cortex_mx_ee_cpu.inc **** #endif
 142:Generated_Source\PSoC5/ErikaOS_1_cortex_mx_ee_cpu.inc **** 
 143:Generated_Source\PSoC5/ErikaOS_1_cortex_mx_ee_cpu.inc **** /******************************************************************************
 144:Generated_Source\PSoC5/ErikaOS_1_cortex_mx_ee_cpu.inc ****  CPU Peripherals
 145:Generated_Source\PSoC5/ErikaOS_1_cortex_mx_ee_cpu.inc ****  ******************************************************************************/
 146:Generated_Source\PSoC5/ErikaOS_1_cortex_mx_ee_cpu.inc **** 
 147:Generated_Source\PSoC5/ErikaOS_1_cortex_mx_ee_cpu.inc **** #ifdef __CORTEX_MX__
 148:Generated_Source\PSoC5/ErikaOS_1_cortex_mx_ee_cpu.inc **** #include "ErikaOS_1_cortex_mx_ee_nvic.inc"
 149:Generated_Source\PSoC5/ErikaOS_1_cortex_mx_ee_cpu.inc **** #include "ErikaOS_1_cortex_mx_ee_systick.inc"
 150:Generated_Source\PSoC5/ErikaOS_1_cortex_mx_ee_cpu.inc **** #endif
 151:Generated_Source\PSoC5/ErikaOS_1_cortex_mx_ee_cpu.inc **** 
 152:Generated_Source\PSoC5/ErikaOS_1_cortex_mx_ee_cpu.inc **** /******************************************************************************
 153:Generated_Source\PSoC5/ErikaOS_1_cortex_mx_ee_cpu.inc ****  HAL Variables
 154:Generated_Source\PSoC5/ErikaOS_1_cortex_mx_ee_cpu.inc ****  ******************************************************************************/
 155:Generated_Source\PSoC5/ErikaOS_1_cortex_mx_ee_cpu.inc **** 
 156:Generated_Source\PSoC5/ErikaOS_1_cortex_mx_ee_cpu.inc **** #ifdef __MULTI__
 157:Generated_Source\PSoC5/ErikaOS_1_cortex_mx_ee_cpu.inc **** 
 158:Generated_Source\PSoC5/ErikaOS_1_cortex_mx_ee_cpu.inc **** /* Top-of-stack of each private stack */
 159:Generated_Source\PSoC5/ErikaOS_1_cortex_mx_ee_cpu.inc **** extern struct EE_TOS EE_cortex_mx_system_tos[];
 160:Generated_Source\PSoC5/ErikaOS_1_cortex_mx_ee_cpu.inc **** //#define	EE_std_system_tos EE_cortex_mx_system_tos
 161:Generated_Source\PSoC5/ErikaOS_1_cortex_mx_ee_cpu.inc **** 
 162:Generated_Source\PSoC5/ErikaOS_1_cortex_mx_ee_cpu.inc **** /* Index of the current stack */
 163:Generated_Source\PSoC5/ErikaOS_1_cortex_mx_ee_cpu.inc **** extern EE_UREG EE_cortex_mx_active_tos;
 164:Generated_Source\PSoC5/ErikaOS_1_cortex_mx_ee_cpu.inc **** #define	EE_hal_active_tos EE_cortex_mx_active_tos
 165:Generated_Source\PSoC5/ErikaOS_1_cortex_mx_ee_cpu.inc **** 
 166:Generated_Source\PSoC5/ErikaOS_1_cortex_mx_ee_cpu.inc **** /*extern	EE_UREG EE_pic30_thread_tos[];
 167:Generated_Source\PSoC5/ErikaOS_1_cortex_mx_ee_cpu.inc **** #define	EE_std_thread_tos EE_pic30_thread_tos */
 168:Generated_Source\PSoC5/ErikaOS_1_cortex_mx_ee_cpu.inc **** #endif /* __MULTI__ */
 169:Generated_Source\PSoC5/ErikaOS_1_cortex_mx_ee_cpu.inc **** 
 170:Generated_Source\PSoC5/ErikaOS_1_cortex_mx_ee_cpu.inc **** /*********************************************************************
 171:Generated_Source\PSoC5/ErikaOS_1_cortex_mx_ee_cpu.inc ****  Cortex M0 interrupt disabling/enabling
 172:Generated_Source\PSoC5/ErikaOS_1_cortex_mx_ee_cpu.inc ****  *********************************************************************/
 173:Generated_Source\PSoC5/ErikaOS_1_cortex_mx_ee_cpu.inc **** 
 174:Generated_Source\PSoC5/ErikaOS_1_cortex_mx_ee_cpu.inc **** /* Used to check the value returned by EE_cortex_mx_disableIRQ */
 175:Generated_Source\PSoC5/ErikaOS_1_cortex_mx_ee_cpu.inc **** #define EE_cortex_mx_are_IRQs_enabled(ie) ((ie) ^ 1)
 176:Generated_Source\PSoC5/ErikaOS_1_cortex_mx_ee_cpu.inc **** 
 177:Generated_Source\PSoC5/ErikaOS_1_cortex_mx_ee_cpu.inc **** /**
 178:Generated_Source\PSoC5/ErikaOS_1_cortex_mx_ee_cpu.inc ****  * Enable interrupts
 179:Generated_Source\PSoC5/ErikaOS_1_cortex_mx_ee_cpu.inc ****  */
 180:Generated_Source\PSoC5/ErikaOS_1_cortex_mx_ee_cpu.inc **** __INLINE__ void  EE_cortex_mx_enableIRQ(void)
 181:Generated_Source\PSoC5/ErikaOS_1_cortex_mx_ee_cpu.inc **** {
 182:Generated_Source\PSoC5/ErikaOS_1_cortex_mx_ee_cpu.inc **** #ifdef __IAR__
 183:Generated_Source\PSoC5/ErikaOS_1_cortex_mx_ee_cpu.inc **** 	__ASM ("cpsie i");
 184:Generated_Source\PSoC5/ErikaOS_1_cortex_mx_ee_cpu.inc **** #else	/* __IAR__ */
 185:Generated_Source\PSoC5/ErikaOS_1_cortex_mx_ee_cpu.inc **** #ifdef __CCS__
 186:Generated_Source\PSoC5/ErikaOS_1_cortex_mx_ee_cpu.inc **** 	__ASM ("    cpsie    i\n");
 187:Generated_Source\PSoC5/ErikaOS_1_cortex_mx_ee_cpu.inc **** #else	/* __CCS__ */
ARM GAS  C:\Users\Asus\AppData\Local\Temp\ccswB91r.s 			page 6


 188:Generated_Source\PSoC5/ErikaOS_1_cortex_mx_ee_cpu.inc **** #ifdef __KEIL__
 189:Generated_Source\PSoC5/ErikaOS_1_cortex_mx_ee_cpu.inc **** 	__enable_irq();
 190:Generated_Source\PSoC5/ErikaOS_1_cortex_mx_ee_cpu.inc **** #else	/* __KEIL__ */
 191:Generated_Source\PSoC5/ErikaOS_1_cortex_mx_ee_cpu.inc **** 	__ASM volatile("cpsie i");
 192:Generated_Source\PSoC5/ErikaOS_1_cortex_mx_ee_cpu.inc **** #endif	/* !__KEIL__ */
 193:Generated_Source\PSoC5/ErikaOS_1_cortex_mx_ee_cpu.inc **** #endif	/* !__CCS__ */
 194:Generated_Source\PSoC5/ErikaOS_1_cortex_mx_ee_cpu.inc **** #endif	/* !__IAR__ */
 195:Generated_Source\PSoC5/ErikaOS_1_cortex_mx_ee_cpu.inc **** }
 196:Generated_Source\PSoC5/ErikaOS_1_cortex_mx_ee_cpu.inc **** 
 197:Generated_Source\PSoC5/ErikaOS_1_cortex_mx_ee_cpu.inc **** /**
 198:Generated_Source\PSoC5/ErikaOS_1_cortex_mx_ee_cpu.inc ****  * Disable interrupts
 199:Generated_Source\PSoC5/ErikaOS_1_cortex_mx_ee_cpu.inc ****  */
 200:Generated_Source\PSoC5/ErikaOS_1_cortex_mx_ee_cpu.inc **** __INLINE__ void  EE_cortex_mx_disableIRQ(void)
 201:Generated_Source\PSoC5/ErikaOS_1_cortex_mx_ee_cpu.inc **** {
 202:Generated_Source\PSoC5/ErikaOS_1_cortex_mx_ee_cpu.inc **** #ifdef __IAR__
 203:Generated_Source\PSoC5/ErikaOS_1_cortex_mx_ee_cpu.inc **** 	__ASM ("cpsid i");
 204:Generated_Source\PSoC5/ErikaOS_1_cortex_mx_ee_cpu.inc **** #else	/* __IAR__ */
 205:Generated_Source\PSoC5/ErikaOS_1_cortex_mx_ee_cpu.inc **** #ifdef __CCS__
 206:Generated_Source\PSoC5/ErikaOS_1_cortex_mx_ee_cpu.inc **** 	__ASM ("    cpsid    i\n");
 207:Generated_Source\PSoC5/ErikaOS_1_cortex_mx_ee_cpu.inc **** #else	/* __CCS__ */
 208:Generated_Source\PSoC5/ErikaOS_1_cortex_mx_ee_cpu.inc **** #ifdef __KEIL__
 209:Generated_Source\PSoC5/ErikaOS_1_cortex_mx_ee_cpu.inc **** 	__disable_irq();
 210:Generated_Source\PSoC5/ErikaOS_1_cortex_mx_ee_cpu.inc **** #else	/* __KEIL__ */
 211:Generated_Source\PSoC5/ErikaOS_1_cortex_mx_ee_cpu.inc **** 	__ASM volatile("cpsid i");
 212:Generated_Source\PSoC5/ErikaOS_1_cortex_mx_ee_cpu.inc **** #endif	/* !__KEIL__ */
 213:Generated_Source\PSoC5/ErikaOS_1_cortex_mx_ee_cpu.inc **** #endif	/* !__CCS__ */
 214:Generated_Source\PSoC5/ErikaOS_1_cortex_mx_ee_cpu.inc **** #endif	/* !__IAR__ */
 215:Generated_Source\PSoC5/ErikaOS_1_cortex_mx_ee_cpu.inc **** }
 216:Generated_Source\PSoC5/ErikaOS_1_cortex_mx_ee_cpu.inc **** 
 217:Generated_Source\PSoC5/ErikaOS_1_cortex_mx_ee_cpu.inc **** /**
 218:Generated_Source\PSoC5/ErikaOS_1_cortex_mx_ee_cpu.inc ****  * Resume interrupts
 219:Generated_Source\PSoC5/ErikaOS_1_cortex_mx_ee_cpu.inc ****  */
 220:Generated_Source\PSoC5/ErikaOS_1_cortex_mx_ee_cpu.inc **** __INLINE__ void  EE_cortex_mx_resumeIRQ(EE_FREG f)
 221:Generated_Source\PSoC5/ErikaOS_1_cortex_mx_ee_cpu.inc **** {
 222:Generated_Source\PSoC5/ErikaOS_1_cortex_mx_ee_cpu.inc **** #ifdef __IAR__
 223:Generated_Source\PSoC5/ErikaOS_1_cortex_mx_ee_cpu.inc **** 	__set_PRIMASK(f);
 224:Generated_Source\PSoC5/ErikaOS_1_cortex_mx_ee_cpu.inc **** #else	/* __IAR__ */
 225:Generated_Source\PSoC5/ErikaOS_1_cortex_mx_ee_cpu.inc **** #ifdef __CCS__
 226:Generated_Source\PSoC5/ErikaOS_1_cortex_mx_ee_cpu.inc **** 	__ASM ("    msr    primask, r0\n");
 227:Generated_Source\PSoC5/ErikaOS_1_cortex_mx_ee_cpu.inc **** #else	/* __CCS__ */
 228:Generated_Source\PSoC5/ErikaOS_1_cortex_mx_ee_cpu.inc **** #ifdef __KEIL__
 229:Generated_Source\PSoC5/ErikaOS_1_cortex_mx_ee_cpu.inc **** 	register EE_FREG PRIMASK __ASM("primask");
 230:Generated_Source\PSoC5/ErikaOS_1_cortex_mx_ee_cpu.inc **** 	PRIMASK = f;
 231:Generated_Source\PSoC5/ErikaOS_1_cortex_mx_ee_cpu.inc **** #else	/* __KEIL__ */
 232:Generated_Source\PSoC5/ErikaOS_1_cortex_mx_ee_cpu.inc **** 	__ASM volatile("msr primask, %0" :: "r" (f));
 233:Generated_Source\PSoC5/ErikaOS_1_cortex_mx_ee_cpu.inc **** #endif	/* !__KEIL__ */
 234:Generated_Source\PSoC5/ErikaOS_1_cortex_mx_ee_cpu.inc **** #endif	/* !__CCS__ */
 235:Generated_Source\PSoC5/ErikaOS_1_cortex_mx_ee_cpu.inc **** #endif	/* !__IAR__ */
 236:Generated_Source\PSoC5/ErikaOS_1_cortex_mx_ee_cpu.inc **** }
 237:Generated_Source\PSoC5/ErikaOS_1_cortex_mx_ee_cpu.inc **** 
 238:Generated_Source\PSoC5/ErikaOS_1_cortex_mx_ee_cpu.inc **** /**
 239:Generated_Source\PSoC5/ErikaOS_1_cortex_mx_ee_cpu.inc ****  * Suspend interrupts
 240:Generated_Source\PSoC5/ErikaOS_1_cortex_mx_ee_cpu.inc ****  */
 241:Generated_Source\PSoC5/ErikaOS_1_cortex_mx_ee_cpu.inc **** __INLINE__ EE_FREG  EE_cortex_mx_suspendIRQ(void)
 242:Generated_Source\PSoC5/ErikaOS_1_cortex_mx_ee_cpu.inc **** {
 243:Generated_Source\PSoC5/ErikaOS_1_cortex_mx_ee_cpu.inc **** #ifndef __CCS__
 244:Generated_Source\PSoC5/ErikaOS_1_cortex_mx_ee_cpu.inc **** 	EE_FREG istat;
ARM GAS  C:\Users\Asus\AppData\Local\Temp\ccswB91r.s 			page 7


 245:Generated_Source\PSoC5/ErikaOS_1_cortex_mx_ee_cpu.inc **** #endif
 246:Generated_Source\PSoC5/ErikaOS_1_cortex_mx_ee_cpu.inc **** #ifdef __IAR__
 247:Generated_Source\PSoC5/ErikaOS_1_cortex_mx_ee_cpu.inc **** 	 istat = __get_PRIMASK();
 248:Generated_Source\PSoC5/ErikaOS_1_cortex_mx_ee_cpu.inc **** 	__ASM ("cpsid i");
 249:Generated_Source\PSoC5/ErikaOS_1_cortex_mx_ee_cpu.inc **** #else	/* __IAR__ */
 250:Generated_Source\PSoC5/ErikaOS_1_cortex_mx_ee_cpu.inc **** #ifdef __CCS__
 251:Generated_Source\PSoC5/ErikaOS_1_cortex_mx_ee_cpu.inc **** 	__ASM ("    mrs     r0, primask\n"
 252:Generated_Source\PSoC5/ErikaOS_1_cortex_mx_ee_cpu.inc **** 	       "    cpsid   i\n"
 253:Generated_Source\PSoC5/ErikaOS_1_cortex_mx_ee_cpu.inc **** 	       "    bx      lr\n");
 254:Generated_Source\PSoC5/ErikaOS_1_cortex_mx_ee_cpu.inc **** #else	/* __CCS__ */
 255:Generated_Source\PSoC5/ErikaOS_1_cortex_mx_ee_cpu.inc **** #ifdef __KEIL__
 256:Generated_Source\PSoC5/ErikaOS_1_cortex_mx_ee_cpu.inc **** 	register EE_FREG PRIMASK __ASM("primask");
 257:Generated_Source\PSoC5/ErikaOS_1_cortex_mx_ee_cpu.inc **** 	istat = PRIMASK;
 258:Generated_Source\PSoC5/ErikaOS_1_cortex_mx_ee_cpu.inc **** 	__disable_irq();
 259:Generated_Source\PSoC5/ErikaOS_1_cortex_mx_ee_cpu.inc **** #else	/* __KEIL__ */
 260:Generated_Source\PSoC5/ErikaOS_1_cortex_mx_ee_cpu.inc **** 	__ASM volatile ("mrs %0, primask" : "=r" (istat) );
  38              		.loc 2 260 0
  39              		.syntax unified
  40              	@ 260 "Generated_Source\PSoC5\ErikaOS_1_cortex_mx_ee_cpu.inc" 1
  41 0000 EFF31083 		mrs r3, primask
  42              	@ 0 "" 2
  43              	.LVL1:
 261:Generated_Source\PSoC5/ErikaOS_1_cortex_mx_ee_cpu.inc **** 	__ASM volatile ("cpsid i");
  44              		.loc 2 261 0
  45              	@ 261 "Generated_Source\PSoC5\ErikaOS_1_cortex_mx_ee_cpu.inc" 1
  46 0004 72B6     		cpsid i
  47              	@ 0 "" 2
  48              	.LVL2:
  49              		.thumb
  50              		.syntax unified
  51              	.LBE27:
  52              	.LBE26:
  53              	.LBE25:
  62:Generated_Source\PSoC5/ErikaOS_1_ee_algetbase.c ****   /* Error Value */
  63:Generated_Source\PSoC5/ErikaOS_1_ee_algetbase.c ****   register StatusType ev;
  64:Generated_Source\PSoC5/ErikaOS_1_ee_algetbase.c ****   /* Primitive Lock Procedure */
  65:Generated_Source\PSoC5/ErikaOS_1_ee_algetbase.c ****   EE_OS_DECLARE_AND_ENTER_CRITICAL_SECTION();
  66:Generated_Source\PSoC5/ErikaOS_1_ee_algetbase.c **** 
  67:Generated_Source\PSoC5/ErikaOS_1_ee_algetbase.c ****   EE_ORTI_set_service_in(EE_SERVICETRACE_GETALARMBASE);
  68:Generated_Source\PSoC5/ErikaOS_1_ee_algetbase.c **** 
  69:Generated_Source\PSoC5/ErikaOS_1_ee_algetbase.c ****   EE_as_monitoring_the_stack();
  70:Generated_Source\PSoC5/ErikaOS_1_ee_algetbase.c **** 
  71:Generated_Source\PSoC5/ErikaOS_1_ee_algetbase.c **** #ifdef EE_SERVICE_PROTECTION__
  72:Generated_Source\PSoC5/ErikaOS_1_ee_algetbase.c ****   /*  [OS093]: If interrupts are disabled/suspended by a Task/OsIsr and the
  73:Generated_Source\PSoC5/ErikaOS_1_ee_algetbase.c ****       Task/OsIsr calls any OS service (excluding the interrupt services)
  74:Generated_Source\PSoC5/ErikaOS_1_ee_algetbase.c ****       then the Operating System shall ignore the service AND shall return
  75:Generated_Source\PSoC5/ErikaOS_1_ee_algetbase.c ****       E_OS_DISABLEDINT if the service returns a StatusType value. */
  76:Generated_Source\PSoC5/ErikaOS_1_ee_algetbase.c ****   /*  [OS088]: If an OS-Application makes a service call from the wrong context
  77:Generated_Source\PSoC5/ErikaOS_1_ee_algetbase.c ****       AND is currently not inside a Category 1 ISR the Operating System module
  78:Generated_Source\PSoC5/ErikaOS_1_ee_algetbase.c ****       shall not perform the requested action (the service call shall have no
  79:Generated_Source\PSoC5/ErikaOS_1_ee_algetbase.c ****       effect), and return E_OS_CALLEVEL (see [12], section 13.1) or the
  80:Generated_Source\PSoC5/ErikaOS_1_ee_algetbase.c ****       "invalid value" of  the service. (BSW11009, BSW11013) */
  81:Generated_Source\PSoC5/ErikaOS_1_ee_algetbase.c ****   /* GetAlarmBase is callable by Task, ISR2, ErrorHook Pre and Post TaskHook */
  82:Generated_Source\PSoC5/ErikaOS_1_ee_algetbase.c ****   if ( (EE_as_execution_context > ErrorHook_Context) &&
  83:Generated_Source\PSoC5/ErikaOS_1_ee_algetbase.c ****        (EE_as_execution_context != PreTaskHook_Context) &&
  84:Generated_Source\PSoC5/ErikaOS_1_ee_algetbase.c ****        (EE_as_execution_context != PostTaskHook_Context) ) {
  85:Generated_Source\PSoC5/ErikaOS_1_ee_algetbase.c ****     ev = E_OS_CALLEVEL;
ARM GAS  C:\Users\Asus\AppData\Local\Temp\ccswB91r.s 			page 8


  86:Generated_Source\PSoC5/ErikaOS_1_ee_algetbase.c ****   } else if ( EE_oo_check_disableint_error() ) {
  87:Generated_Source\PSoC5/ErikaOS_1_ee_algetbase.c ****     ev = E_OS_DISABLEDINT;
  88:Generated_Source\PSoC5/ErikaOS_1_ee_algetbase.c ****   } else
  89:Generated_Source\PSoC5/ErikaOS_1_ee_algetbase.c **** #endif /* EE_SERVICE_PROTECTION__ */
  90:Generated_Source\PSoC5/ErikaOS_1_ee_algetbase.c **** 
  91:Generated_Source\PSoC5/ErikaOS_1_ee_algetbase.c ****   /* [OS566]: The Operating System API shall check in extended mode all pointer
  92:Generated_Source\PSoC5/ErikaOS_1_ee_algetbase.c ****       argument for NULL pointer and return OS_E_PARAMETER_POINTER 
  93:Generated_Source\PSoC5/ErikaOS_1_ee_algetbase.c ****       if such argument is NULL. +
  94:Generated_Source\PSoC5/ErikaOS_1_ee_algetbase.c ****       MISRA dictate NULL check for pointers always. */
  95:Generated_Source\PSoC5/ErikaOS_1_ee_algetbase.c ****   if ( Info == NULL ) {
  54              		.loc 1 95 0
  55 0006 99B1     		cbz	r1, .L3
  96:Generated_Source\PSoC5/ErikaOS_1_ee_algetbase.c ****       ev = E_OS_PARAM_POINTER;
  97:Generated_Source\PSoC5/ErikaOS_1_ee_algetbase.c ****   } else
  98:Generated_Source\PSoC5/ErikaOS_1_ee_algetbase.c **** #if (defined(EE_AS_OSAPPLICATIONS__)) && (defined(EE_SERVICE_PROTECTION__)) \
  99:Generated_Source\PSoC5/ErikaOS_1_ee_algetbase.c ****   && (defined(__EE_MEMORY_PROTECTION__))
 100:Generated_Source\PSoC5/ErikaOS_1_ee_algetbase.c ****     /* [SWS_Os_00051]: If an invalid address (address is not writable by this
 101:Generated_Source\PSoC5/ErikaOS_1_ee_algetbase.c ****         OS-Application) is passed as an out-parameter to an Operating System
 102:Generated_Source\PSoC5/ErikaOS_1_ee_algetbase.c ****         service, the Operating System module shall return the status code
 103:Generated_Source\PSoC5/ErikaOS_1_ee_algetbase.c ****         E_OS_ILLEGAL_ADDRESS. (SRS_Os_11009, SRS_Os_11013) */
 104:Generated_Source\PSoC5/ErikaOS_1_ee_algetbase.c ****   if ( !OSMEMORY_IS_WRITEABLE(EE_hal_get_app_mem_access(EE_as_active_app,
 105:Generated_Source\PSoC5/ErikaOS_1_ee_algetbase.c ****     Info, sizeof(*Info))) )
 106:Generated_Source\PSoC5/ErikaOS_1_ee_algetbase.c ****   {
 107:Generated_Source\PSoC5/ErikaOS_1_ee_algetbase.c ****     ev = E_OS_ILLEGAL_ADDRESS;
 108:Generated_Source\PSoC5/ErikaOS_1_ee_algetbase.c ****   } else
 109:Generated_Source\PSoC5/ErikaOS_1_ee_algetbase.c **** #endif /* EE_AS_OSAPPLICATIONS__ && __EE_MEMORY_PROTECTION__ &&
 110:Generated_Source\PSoC5/ErikaOS_1_ee_algetbase.c ****   EE_SERVICE_PROTECTION__ */
 111:Generated_Source\PSoC5/ErikaOS_1_ee_algetbase.c **** 
 112:Generated_Source\PSoC5/ErikaOS_1_ee_algetbase.c **** #ifdef EE_AS_RPC__
 113:Generated_Source\PSoC5/ErikaOS_1_ee_algetbase.c ****   if ( EE_AS_ID_REMOTE(AlarmID) ) {
 114:Generated_Source\PSoC5/ErikaOS_1_ee_algetbase.c ****     EE_os_param os_info;
 115:Generated_Source\PSoC5/ErikaOS_1_ee_algetbase.c ****     EE_os_param unmarked_alarm_id;
 116:Generated_Source\PSoC5/ErikaOS_1_ee_algetbase.c ****     unmarked_alarm_id.value_param = EE_AS_UNMARK_REMOTE_ID(AlarmID);
 117:Generated_Source\PSoC5/ErikaOS_1_ee_algetbase.c ****     os_info.alarm_base_ref = Info;
 118:Generated_Source\PSoC5/ErikaOS_1_ee_algetbase.c ****     /* forward the request to another CPU in synchronous way */
 119:Generated_Source\PSoC5/ErikaOS_1_ee_algetbase.c ****     ev = EE_as_rpc(OSServiceId_GetAlarmBase, unmarked_alarm_id, os_info,
 120:Generated_Source\PSoC5/ErikaOS_1_ee_algetbase.c ****       EE_OS_INVALID_PARAM);
 121:Generated_Source\PSoC5/ErikaOS_1_ee_algetbase.c ****   } else {
 122:Generated_Source\PSoC5/ErikaOS_1_ee_algetbase.c **** #endif /* EE_AS_RPC__ */
 123:Generated_Source\PSoC5/ErikaOS_1_ee_algetbase.c **** 
 124:Generated_Source\PSoC5/ErikaOS_1_ee_algetbase.c **** /* If local alarm are not defined cut everything else */
 125:Generated_Source\PSoC5/ErikaOS_1_ee_algetbase.c **** #if (defined(EE_MAX_ALARM)) && (EE_MAX_ALARM > 0U)
 126:Generated_Source\PSoC5/ErikaOS_1_ee_algetbase.c **** 
 127:Generated_Source\PSoC5/ErikaOS_1_ee_algetbase.c **** #if (defined(EE_AS_OSAPPLICATIONS__)) && (defined(EE_SERVICE_PROTECTION__))
 128:Generated_Source\PSoC5/ErikaOS_1_ee_algetbase.c ****     if ( AlarmID >= EE_MAX_ALARM ) {
 129:Generated_Source\PSoC5/ErikaOS_1_ee_algetbase.c ****       ev = E_OS_ID;
 130:Generated_Source\PSoC5/ErikaOS_1_ee_algetbase.c ****     } else if ( EE_ALARM_ACCESS_ERR(AlarmID, EE_as_active_app) ) {
 131:Generated_Source\PSoC5/ErikaOS_1_ee_algetbase.c ****       ev = E_OS_ACCESS;
 132:Generated_Source\PSoC5/ErikaOS_1_ee_algetbase.c ****     } else
 133:Generated_Source\PSoC5/ErikaOS_1_ee_algetbase.c **** #elif defined(__OO_EXTENDED_STATUS__)
 134:Generated_Source\PSoC5/ErikaOS_1_ee_algetbase.c ****     if ( AlarmID >= EE_MAX_ALARM ) {
  56              		.loc 1 134 0
  57 0008 A0B9     		cbnz	r0, .L4
  61:Generated_Source\PSoC5/ErikaOS_1_ee_algetbase.c ****   /* Error Value */
  58              		.loc 1 61 0
  59 000a 70B4     		push	{r4, r5, r6}
  60              		.cfi_def_cfa_offset 12
ARM GAS  C:\Users\Asus\AppData\Local\Temp\ccswB91r.s 			page 9


  61              		.cfi_offset 4, -12
  62              		.cfi_offset 5, -8
  63              		.cfi_offset 6, -4
  64              	.LBB28:
 135:Generated_Source\PSoC5/ErikaOS_1_ee_algetbase.c ****       ev = E_OS_ID;
 136:Generated_Source\PSoC5/ErikaOS_1_ee_algetbase.c ****     } else
 137:Generated_Source\PSoC5/ErikaOS_1_ee_algetbase.c **** #endif /* EE_AS_OSAPPLICATIONS__ || E_SERVICE_PROTECTION__ ||
 138:Generated_Source\PSoC5/ErikaOS_1_ee_algetbase.c **** __OO_EXTENDED_STATUS__ */
 139:Generated_Source\PSoC5/ErikaOS_1_ee_algetbase.c ****     {
 140:Generated_Source\PSoC5/ErikaOS_1_ee_algetbase.c ****       /* Fill the informations required */
 141:Generated_Source\PSoC5/ErikaOS_1_ee_algetbase.c ****       register EE_oo_counter_ROM_type const * c_ref =
 142:Generated_Source\PSoC5/ErikaOS_1_ee_algetbase.c ****         &EE_counter_ROM[EE_oo_counter_object_ROM[AlarmID].c];
  65              		.loc 1 142 0
  66 000c 00EB4000 		add	r0, r0, r0, lsl #1
  67              	.LVL3:
  68 0010 8200     		lsls	r2, r0, #2
  69 0012 0C48     		ldr	r0, .L7
  70 0014 8258     		ldr	r2, [r0, r2]
  71              	.LVL4:
 143:Generated_Source\PSoC5/ErikaOS_1_ee_algetbase.c **** 
 144:Generated_Source\PSoC5/ErikaOS_1_ee_algetbase.c ****       Info->maxallowedvalue = c_ref->maxallowedvalue;
  72              		.loc 1 144 0
  73 0016 0C4C     		ldr	r4, .L7+4
  74 0018 5500     		lsls	r5, r2, #1
  75 001a AE18     		adds	r6, r5, r2
  76 001c B000     		lsls	r0, r6, #2
  77 001e 2618     		adds	r6, r4, r0
  78 0020 2058     		ldr	r0, [r4, r0]
  79 0022 0860     		str	r0, [r1]
 145:Generated_Source\PSoC5/ErikaOS_1_ee_algetbase.c ****       Info->ticksperbase    = c_ref->ticksperbase;
  80              		.loc 1 145 0
  81 0024 7068     		ldr	r0, [r6, #4]
  82 0026 4860     		str	r0, [r1, #4]
 146:Generated_Source\PSoC5/ErikaOS_1_ee_algetbase.c **** #ifdef __OO_EXTENDED_STATUS__
 147:Generated_Source\PSoC5/ErikaOS_1_ee_algetbase.c ****       Info->mincycle        = c_ref->mincycle;
  83              		.loc 1 147 0
  84 0028 B268     		ldr	r2, [r6, #8]
  85              	.LVL5:
  86 002a 8A60     		str	r2, [r1, #8]
  87              	.LVL6:
 148:Generated_Source\PSoC5/ErikaOS_1_ee_algetbase.c **** #endif /* __OO_EXTENDED_STATUS__ */
 149:Generated_Source\PSoC5/ErikaOS_1_ee_algetbase.c **** 
 150:Generated_Source\PSoC5/ErikaOS_1_ee_algetbase.c ****       ev = E_OK;
  88              		.loc 1 150 0
  89 002c 0020     		movs	r0, #0
  90 002e 05E0     		b	.L2
  91              	.LVL7:
  92              	.L3:
  93              		.cfi_def_cfa_offset 0
  94              		.cfi_restore 4
  95              		.cfi_restore 5
  96              		.cfi_restore 6
  97              	.LBE28:
  96:Generated_Source\PSoC5/ErikaOS_1_ee_algetbase.c ****   } else
  98              		.loc 1 96 0
  99 0030 0E20     		movs	r0, #14
 100              	.LVL8:
ARM GAS  C:\Users\Asus\AppData\Local\Temp\ccswB91r.s 			page 10


 101 0032 00E0     		b	.L6
 102              	.LVL9:
 103              	.L4:
 135:Generated_Source\PSoC5/ErikaOS_1_ee_algetbase.c ****     } else
 104              		.loc 1 135 0
 105 0034 0320     		movs	r0, #3
 106              	.LVL10:
 107              	.L6:
 108              	.LBB29:
 109              	.LBB30:
 110              	.LBB31:
 232:Generated_Source\PSoC5/ErikaOS_1_cortex_mx_ee_cpu.inc **** #endif	/* !__KEIL__ */
 111              		.loc 2 232 0
 112              		.syntax unified
 113              	@ 232 "Generated_Source\PSoC5\ErikaOS_1_cortex_mx_ee_cpu.inc" 1
 114 0036 83F31088 		msr primask, r3
 115              	@ 0 "" 2
 116              	.LVL11:
 117              		.thumb
 118              		.syntax unified
 119              	.LBE31:
 120              	.LBE30:
 121              	.LBE29:
 151:Generated_Source\PSoC5/ErikaOS_1_ee_algetbase.c ****     }
 152:Generated_Source\PSoC5/ErikaOS_1_ee_algetbase.c **** #else /* EE_MAX_ALARM > 0U */
 153:Generated_Source\PSoC5/ErikaOS_1_ee_algetbase.c ****     {
 154:Generated_Source\PSoC5/ErikaOS_1_ee_algetbase.c ****       ev = E_OS_ID;
 155:Generated_Source\PSoC5/ErikaOS_1_ee_algetbase.c ****     }
 156:Generated_Source\PSoC5/ErikaOS_1_ee_algetbase.c **** #endif /* EE_MAX_ALARM > 0U */
 157:Generated_Source\PSoC5/ErikaOS_1_ee_algetbase.c **** 
 158:Generated_Source\PSoC5/ErikaOS_1_ee_algetbase.c **** #ifdef EE_AS_RPC__
 159:Generated_Source\PSoC5/ErikaOS_1_ee_algetbase.c ****   }
 160:Generated_Source\PSoC5/ErikaOS_1_ee_algetbase.c **** #endif /* EE_AS_RPC__ */
 161:Generated_Source\PSoC5/ErikaOS_1_ee_algetbase.c **** 
 162:Generated_Source\PSoC5/ErikaOS_1_ee_algetbase.c ****   if ( ev != E_OK ) {
 163:Generated_Source\PSoC5/ErikaOS_1_ee_algetbase.c ****     EE_ORTI_set_lasterror(ev);
 164:Generated_Source\PSoC5/ErikaOS_1_ee_algetbase.c ****     EE_oo_notify_error_GetAlarmBase(AlarmID, Info, ev);
 165:Generated_Source\PSoC5/ErikaOS_1_ee_algetbase.c ****   }
 166:Generated_Source\PSoC5/ErikaOS_1_ee_algetbase.c **** 
 167:Generated_Source\PSoC5/ErikaOS_1_ee_algetbase.c ****   EE_ORTI_set_service_out(EE_SERVICETRACE_GETALARMBASE);
 168:Generated_Source\PSoC5/ErikaOS_1_ee_algetbase.c ****   EE_OS_EXIT_CRITICAL_SECTION();
 169:Generated_Source\PSoC5/ErikaOS_1_ee_algetbase.c **** 
 170:Generated_Source\PSoC5/ErikaOS_1_ee_algetbase.c ****   return ev;
 171:Generated_Source\PSoC5/ErikaOS_1_ee_algetbase.c **** }
 122              		.loc 1 171 0
 123 003a 7047     		bx	lr
 124              	.LVL12:
 125              	.L2:
 126              		.cfi_def_cfa_offset 12
 127              		.cfi_offset 4, -12
 128              		.cfi_offset 5, -8
 129              		.cfi_offset 6, -4
 130              	.LBB34:
 131              	.LBB33:
 132              	.LBB32:
 232:Generated_Source\PSoC5/ErikaOS_1_cortex_mx_ee_cpu.inc **** #endif	/* !__KEIL__ */
 133              		.loc 2 232 0
ARM GAS  C:\Users\Asus\AppData\Local\Temp\ccswB91r.s 			page 11


 134              		.syntax unified
 135              	@ 232 "Generated_Source\PSoC5\ErikaOS_1_cortex_mx_ee_cpu.inc" 1
 136 003c 83F31088 		msr primask, r3
 137              	@ 0 "" 2
 138              	.LVL13:
 139              		.thumb
 140              		.syntax unified
 141              	.LBE32:
 142              	.LBE33:
 143              	.LBE34:
 144              		.loc 1 171 0
 145 0040 70BC     		pop	{r4, r5, r6}
 146              		.cfi_restore 6
 147              		.cfi_restore 5
 148              		.cfi_restore 4
 149              		.cfi_def_cfa_offset 0
 150 0042 7047     		bx	lr
 151              	.L8:
 152              		.align	2
 153              	.L7:
 154 0044 00000000 		.word	EE_oo_counter_object_ROM
 155 0048 00000000 		.word	EE_counter_ROM
 156              		.cfi_endproc
 157              	.LFE70:
 158              		.size	EE_oo_GetAlarmBase, .-EE_oo_GetAlarmBase
 159              		.text
 160              	.Letext0:
 161              		.file 3 "Generated_Source\\PSoC5\\ErikaOS_1_common_ee_types.inc"
 162              		.file 4 "Generated_Source\\PSoC5\\ErikaOS_1_ee_oo_common.inc"
 163              		.file 5 "Generated_Source\\PSoC5\\ErikaOS_1_cortex_mx_ee_internal.inc"
 164              		.file 6 "Generated_Source\\PSoC5\\ErikaOS_1_common_ee_primitives.inc"
 165              		.file 7 "Generated_Source\\PSoC5\\ErikaOS_1_cortex_mx_ee_context.inc"
 166              		.file 8 "Generated_Source\\PSoC5\\ErikaOS_1_ee_oo_intfunc.inc"
 167              		.file 9 "Generated_Source\\PSoC5\\ErikaOS_1_ee_oo_internal.inc"
 168              		.file 10 "Generated_Source\\PSoC5\\ErikaOS_1_ee_as_internal.inc"