ARM GAS  C:\Users\Asus\AppData\Local\Temp\ccwRUyhH.s 			page 1


   1              		.syntax unified
   2              		.cpu cortex-m3
   3              		.fpu softvfp
   4              		.eabi_attribute 20, 1
   5              		.eabi_attribute 21, 1
   6              		.eabi_attribute 23, 3
   7              		.eabi_attribute 24, 1
   8              		.eabi_attribute 25, 1
   9              		.eabi_attribute 26, 1
  10              		.eabi_attribute 30, 1
  11              		.eabi_attribute 34, 1
  12              		.eabi_attribute 18, 4
  13              		.thumb
  14              		.syntax unified
  15              		.file	"JOYSTICK_ADC_XY.c"
  16              		.text
  17              	.Ltext0:
  18              		.cfi_sections	.debug_frame
  19              		.section	.text.JOYSTICK_ADC_XY_Disable,"ax",%progbits
  20              		.align	2
  21              		.global	JOYSTICK_ADC_XY_Disable
  22              		.thumb
  23              		.thumb_func
  24              		.type	JOYSTICK_ADC_XY_Disable, %function
  25              	JOYSTICK_ADC_XY_Disable:
  26              	.LFB0:
  27              		.file 1 "Generated_Source\\PSoC5\\JOYSTICK_ADC_XY.c"
   1:Generated_Source\PSoC5/JOYSTICK_ADC_XY.c **** /*******************************************************************************
   2:Generated_Source\PSoC5/JOYSTICK_ADC_XY.c **** * File Name: JOYSTICK_ADC_XY.c
   3:Generated_Source\PSoC5/JOYSTICK_ADC_XY.c **** * Version 2.10
   4:Generated_Source\PSoC5/JOYSTICK_ADC_XY.c **** *
   5:Generated_Source\PSoC5/JOYSTICK_ADC_XY.c **** * Description:
   6:Generated_Source\PSoC5/JOYSTICK_ADC_XY.c **** *  This file provides the API functionality of the ADC SAR Sequencer Component
   7:Generated_Source\PSoC5/JOYSTICK_ADC_XY.c **** *
   8:Generated_Source\PSoC5/JOYSTICK_ADC_XY.c **** * Note:
   9:Generated_Source\PSoC5/JOYSTICK_ADC_XY.c **** *  None
  10:Generated_Source\PSoC5/JOYSTICK_ADC_XY.c **** *
  11:Generated_Source\PSoC5/JOYSTICK_ADC_XY.c **** ********************************************************************************
  12:Generated_Source\PSoC5/JOYSTICK_ADC_XY.c **** * Copyright 2012-2015, Cypress Semiconductor Corporation.  All rights reserved.
  13:Generated_Source\PSoC5/JOYSTICK_ADC_XY.c **** * You may use this file only in accordance with the license, terms, conditions,
  14:Generated_Source\PSoC5/JOYSTICK_ADC_XY.c **** * disclaimers, and limitations in the end user license agreement accompanying
  15:Generated_Source\PSoC5/JOYSTICK_ADC_XY.c **** * the software package with which this file was provided.
  16:Generated_Source\PSoC5/JOYSTICK_ADC_XY.c **** *******************************************************************************/
  17:Generated_Source\PSoC5/JOYSTICK_ADC_XY.c **** 
  18:Generated_Source\PSoC5/JOYSTICK_ADC_XY.c **** #include "JOYSTICK_ADC_XY.h"
  19:Generated_Source\PSoC5/JOYSTICK_ADC_XY.c **** #if(JOYSTICK_ADC_XY_IRQ_REMOVE == 0u)
  20:Generated_Source\PSoC5/JOYSTICK_ADC_XY.c ****     #include "JOYSTICK_ADC_XY_IRQ.h"
  21:Generated_Source\PSoC5/JOYSTICK_ADC_XY.c **** #endif   /* End JOYSTICK_ADC_XY_IRQ_REMOVE */
  22:Generated_Source\PSoC5/JOYSTICK_ADC_XY.c **** 
  23:Generated_Source\PSoC5/JOYSTICK_ADC_XY.c **** int16  JOYSTICK_ADC_XY_finalArray[JOYSTICK_ADC_XY_NUMBER_OF_CHANNELS];
  24:Generated_Source\PSoC5/JOYSTICK_ADC_XY.c **** uint32 JOYSTICK_ADC_XY_initVar = 0u;
  25:Generated_Source\PSoC5/JOYSTICK_ADC_XY.c **** static uint8 JOYSTICK_ADC_XY_tempChan;
  26:Generated_Source\PSoC5/JOYSTICK_ADC_XY.c **** static uint8 JOYSTICK_ADC_XY_finalChan;
  27:Generated_Source\PSoC5/JOYSTICK_ADC_XY.c **** static uint8 JOYSTICK_ADC_XY_tempTD = CY_DMA_INVALID_TD;
  28:Generated_Source\PSoC5/JOYSTICK_ADC_XY.c **** static uint8 JOYSTICK_ADC_XY_finalTD = CY_DMA_INVALID_TD;
  29:Generated_Source\PSoC5/JOYSTICK_ADC_XY.c **** 
  30:Generated_Source\PSoC5/JOYSTICK_ADC_XY.c **** 
ARM GAS  C:\Users\Asus\AppData\Local\Temp\ccwRUyhH.s 			page 2


  31:Generated_Source\PSoC5/JOYSTICK_ADC_XY.c **** /****************************************************************************
  32:Generated_Source\PSoC5/JOYSTICK_ADC_XY.c **** * Function Name: JOYSTICK_ADC_XY_Disable()
  33:Generated_Source\PSoC5/JOYSTICK_ADC_XY.c **** *****************************************************************************
  34:Generated_Source\PSoC5/JOYSTICK_ADC_XY.c **** *
  35:Generated_Source\PSoC5/JOYSTICK_ADC_XY.c **** * Summary:
  36:Generated_Source\PSoC5/JOYSTICK_ADC_XY.c **** *  Disables the component without disabling the ADC SAR.
  37:Generated_Source\PSoC5/JOYSTICK_ADC_XY.c **** *
  38:Generated_Source\PSoC5/JOYSTICK_ADC_XY.c **** * Parameters:
  39:Generated_Source\PSoC5/JOYSTICK_ADC_XY.c **** *  None.
  40:Generated_Source\PSoC5/JOYSTICK_ADC_XY.c **** *
  41:Generated_Source\PSoC5/JOYSTICK_ADC_XY.c **** * Return:
  42:Generated_Source\PSoC5/JOYSTICK_ADC_XY.c **** *  None.
  43:Generated_Source\PSoC5/JOYSTICK_ADC_XY.c **** *
  44:Generated_Source\PSoC5/JOYSTICK_ADC_XY.c **** * Side Effects:
  45:Generated_Source\PSoC5/JOYSTICK_ADC_XY.c **** *  None.
  46:Generated_Source\PSoC5/JOYSTICK_ADC_XY.c **** *
  47:Generated_Source\PSoC5/JOYSTICK_ADC_XY.c **** * Reentrant:
  48:Generated_Source\PSoC5/JOYSTICK_ADC_XY.c **** *  No.
  49:Generated_Source\PSoC5/JOYSTICK_ADC_XY.c **** *
  50:Generated_Source\PSoC5/JOYSTICK_ADC_XY.c **** ****************************************************************************/
  51:Generated_Source\PSoC5/JOYSTICK_ADC_XY.c **** void JOYSTICK_ADC_XY_Disable(void)
  52:Generated_Source\PSoC5/JOYSTICK_ADC_XY.c **** {
  28              		.loc 1 52 0
  29              		.cfi_startproc
  30              		@ args = 0, pretend = 0, frame = 0
  31              		@ frame_needed = 0, uses_anonymous_args = 0
  32 0000 70B5     		push	{r4, r5, r6, lr}
  33              		.cfi_def_cfa_offset 16
  34              		.cfi_offset 4, -16
  35              		.cfi_offset 5, -12
  36              		.cfi_offset 6, -8
  37              		.cfi_offset 14, -4
  53:Generated_Source\PSoC5/JOYSTICK_ADC_XY.c ****     JOYSTICK_ADC_XY_CONTROL_REG &= ((uint8)(~JOYSTICK_ADC_XY_BASE_COMPONENT_ENABLE));
  38              		.loc 1 53 0
  39 0002 0B4A     		ldr	r2, .L3
  40 0004 1378     		ldrb	r3, [r2]	@ zero_extendqisi2
  41 0006 03F0FE03 		and	r3, r3, #254
  42 000a 1370     		strb	r3, [r2]
  54:Generated_Source\PSoC5/JOYSTICK_ADC_XY.c **** 
  55:Generated_Source\PSoC5/JOYSTICK_ADC_XY.c ****     (void) CyDmaChDisable(JOYSTICK_ADC_XY_tempChan);
  43              		.loc 1 55 0
  44 000c 094E     		ldr	r6, .L3+4
  45 000e 3078     		ldrb	r0, [r6]	@ zero_extendqisi2
  46 0010 FFF7FEFF 		bl	CyDmaChDisable
  47              	.LVL0:
  56:Generated_Source\PSoC5/JOYSTICK_ADC_XY.c ****     CyDmaTdFree(JOYSTICK_ADC_XY_tempTD);
  48              		.loc 1 56 0
  49 0014 084C     		ldr	r4, .L3+8
  50 0016 2078     		ldrb	r0, [r4]	@ zero_extendqisi2
  51 0018 FFF7FEFF 		bl	CyDmaTdFree
  52              	.LVL1:
  57:Generated_Source\PSoC5/JOYSTICK_ADC_XY.c ****     JOYSTICK_ADC_XY_tempTD = CY_DMA_INVALID_TD;
  53              		.loc 1 57 0
  54 001c FF25     		movs	r5, #255
  55 001e 2570     		strb	r5, [r4]
  58:Generated_Source\PSoC5/JOYSTICK_ADC_XY.c **** 
  59:Generated_Source\PSoC5/JOYSTICK_ADC_XY.c ****     (void) CyDmaChDisable(JOYSTICK_ADC_XY_finalChan);
ARM GAS  C:\Users\Asus\AppData\Local\Temp\ccwRUyhH.s 			page 3


  56              		.loc 1 59 0
  57 0020 7078     		ldrb	r0, [r6, #1]	@ zero_extendqisi2
  58 0022 FFF7FEFF 		bl	CyDmaChDisable
  59              	.LVL2:
  60:Generated_Source\PSoC5/JOYSTICK_ADC_XY.c ****     CyDmaTdFree(JOYSTICK_ADC_XY_finalTD);
  60              		.loc 1 60 0
  61 0026 6078     		ldrb	r0, [r4, #1]	@ zero_extendqisi2
  62 0028 FFF7FEFF 		bl	CyDmaTdFree
  63              	.LVL3:
  61:Generated_Source\PSoC5/JOYSTICK_ADC_XY.c ****     JOYSTICK_ADC_XY_finalTD = CY_DMA_INVALID_TD;
  64              		.loc 1 61 0
  65 002c 6570     		strb	r5, [r4, #1]
  66 002e 70BD     		pop	{r4, r5, r6, pc}
  67              	.L4:
  68              		.align	2
  69              	.L3:
  70 0030 79650040 		.word	1073767801
  71 0034 00000000 		.word	.LANCHOR0
  72 0038 00000000 		.word	.LANCHOR1
  73              		.cfi_endproc
  74              	.LFE0:
  75              		.size	JOYSTICK_ADC_XY_Disable, .-JOYSTICK_ADC_XY_Disable
  76              		.section	.text.JOYSTICK_ADC_XY_Init,"ax",%progbits
  77              		.align	2
  78              		.global	JOYSTICK_ADC_XY_Init
  79              		.thumb
  80              		.thumb_func
  81              		.type	JOYSTICK_ADC_XY_Init, %function
  82              	JOYSTICK_ADC_XY_Init:
  83              	.LFB1:
  62:Generated_Source\PSoC5/JOYSTICK_ADC_XY.c **** }
  63:Generated_Source\PSoC5/JOYSTICK_ADC_XY.c **** 
  64:Generated_Source\PSoC5/JOYSTICK_ADC_XY.c **** 
  65:Generated_Source\PSoC5/JOYSTICK_ADC_XY.c **** /*******************************************************************************
  66:Generated_Source\PSoC5/JOYSTICK_ADC_XY.c **** * Function Name: JOYSTICK_ADC_XY_Init
  67:Generated_Source\PSoC5/JOYSTICK_ADC_XY.c **** ********************************************************************************
  68:Generated_Source\PSoC5/JOYSTICK_ADC_XY.c **** *
  69:Generated_Source\PSoC5/JOYSTICK_ADC_XY.c **** * Summary:
  70:Generated_Source\PSoC5/JOYSTICK_ADC_XY.c **** *  Inits channels for DMA transfer. Provides loading period to the AMUX address
  71:Generated_Source\PSoC5/JOYSTICK_ADC_XY.c **** *  selection counter
  72:Generated_Source\PSoC5/JOYSTICK_ADC_XY.c **** *
  73:Generated_Source\PSoC5/JOYSTICK_ADC_XY.c **** * Parameters:
  74:Generated_Source\PSoC5/JOYSTICK_ADC_XY.c **** *  None.
  75:Generated_Source\PSoC5/JOYSTICK_ADC_XY.c **** *
  76:Generated_Source\PSoC5/JOYSTICK_ADC_XY.c **** * Return:
  77:Generated_Source\PSoC5/JOYSTICK_ADC_XY.c **** *  None.
  78:Generated_Source\PSoC5/JOYSTICK_ADC_XY.c **** *
  79:Generated_Source\PSoC5/JOYSTICK_ADC_XY.c **** * Reentrant:
  80:Generated_Source\PSoC5/JOYSTICK_ADC_XY.c **** *  No.
  81:Generated_Source\PSoC5/JOYSTICK_ADC_XY.c **** *
  82:Generated_Source\PSoC5/JOYSTICK_ADC_XY.c **** *******************************************************************************/
  83:Generated_Source\PSoC5/JOYSTICK_ADC_XY.c **** void JOYSTICK_ADC_XY_Init(void)
  84:Generated_Source\PSoC5/JOYSTICK_ADC_XY.c **** {
  84              		.loc 1 84 0
  85              		.cfi_startproc
  86              		@ args = 0, pretend = 0, frame = 0
  87              		@ frame_needed = 0, uses_anonymous_args = 0
ARM GAS  C:\Users\Asus\AppData\Local\Temp\ccwRUyhH.s 			page 4


  88 0000 10B5     		push	{r4, lr}
  89              		.cfi_def_cfa_offset 8
  90              		.cfi_offset 4, -8
  91              		.cfi_offset 14, -4
  85:Generated_Source\PSoC5/JOYSTICK_ADC_XY.c ****     /* Init DMA, 2 bytes bursts, each burst requires a request */
  86:Generated_Source\PSoC5/JOYSTICK_ADC_XY.c ****     JOYSTICK_ADC_XY_tempChan = JOYSTICK_ADC_XY_TempBuf_DmaInitialize(JOYSTICK_ADC_XY_TEMP_BYTES_PER
  92              		.loc 1 86 0
  93 0002 41F6FF73 		movw	r3, #8191
  94 0006 4FF48042 		mov	r2, #16384
  95 000a 0121     		movs	r1, #1
  96 000c 0220     		movs	r0, #2
  97 000e FFF7FEFF 		bl	JOYSTICK_ADC_XY_TempBuf_DmaInitialize
  98              	.LVL4:
  99 0012 084C     		ldr	r4, .L7
 100 0014 2070     		strb	r0, [r4]
  87:Generated_Source\PSoC5/JOYSTICK_ADC_XY.c ****         JOYSTICK_ADC_XY_REQUEST_PER_BURST, (uint16)(HI16(CYDEV_PERIPH_BASE)), (uint16)(HI16(CYDEV_S
  88:Generated_Source\PSoC5/JOYSTICK_ADC_XY.c **** 
  89:Generated_Source\PSoC5/JOYSTICK_ADC_XY.c ****     /* Init DMA, (JOYSTICK_ADC_XY_NUMBER_OF_CHANNELS << 1u) bytes bursts, each burst requires a req
  90:Generated_Source\PSoC5/JOYSTICK_ADC_XY.c ****     JOYSTICK_ADC_XY_finalChan = JOYSTICK_ADC_XY_FinalBuf_DmaInitialize((uint8)JOYSTICK_ADC_XY_FINAL
 101              		.loc 1 90 0
 102 0016 41F6FF73 		movw	r3, #8191
 103 001a 1A46     		mov	r2, r3
 104 001c 0121     		movs	r1, #1
 105 001e 0420     		movs	r0, #4
 106 0020 FFF7FEFF 		bl	JOYSTICK_ADC_XY_FinalBuf_DmaInitialize
 107              	.LVL5:
 108 0024 6070     		strb	r0, [r4, #1]
  91:Generated_Source\PSoC5/JOYSTICK_ADC_XY.c ****         JOYSTICK_ADC_XY_REQUEST_PER_BURST, (uint16)(HI16(CYDEV_SRAM_BASE)), (uint16)(HI16(CYDEV_SRA
  92:Generated_Source\PSoC5/JOYSTICK_ADC_XY.c **** 
  93:Generated_Source\PSoC5/JOYSTICK_ADC_XY.c ****     #if(JOYSTICK_ADC_XY_IRQ_REMOVE == 0u)
  94:Generated_Source\PSoC5/JOYSTICK_ADC_XY.c ****         /* Set the ISR to point to the JOYSTICK_ADC_XY_IRQ Interrupt. */
  95:Generated_Source\PSoC5/JOYSTICK_ADC_XY.c ****         JOYSTICK_ADC_XY_IRQ_SetVector(&JOYSTICK_ADC_XY_ISR);
 109              		.loc 1 95 0
 110 0026 0448     		ldr	r0, .L7+4
 111 0028 FFF7FEFF 		bl	JOYSTICK_ADC_XY_IRQ_SetVector
 112              	.LVL6:
  96:Generated_Source\PSoC5/JOYSTICK_ADC_XY.c ****         /* Set the priority. */
  97:Generated_Source\PSoC5/JOYSTICK_ADC_XY.c ****         JOYSTICK_ADC_XY_IRQ_SetPriority((uint8)JOYSTICK_ADC_XY_INTC_NUMBER);
 113              		.loc 1 97 0
 114 002c 0020     		movs	r0, #0
 115 002e FFF7FEFF 		bl	JOYSTICK_ADC_XY_IRQ_SetPriority
 116              	.LVL7:
 117 0032 10BD     		pop	{r4, pc}
 118              	.L8:
 119              		.align	2
 120              	.L7:
 121 0034 00000000 		.word	.LANCHOR0
 122 0038 00000000 		.word	JOYSTICK_ADC_XY_ISR
 123              		.cfi_endproc
 124              	.LFE1:
 125              		.size	JOYSTICK_ADC_XY_Init, .-JOYSTICK_ADC_XY_Init
 126              		.section	.text.JOYSTICK_ADC_XY_Enable,"ax",%progbits
 127              		.align	2
 128              		.global	JOYSTICK_ADC_XY_Enable
 129              		.thumb
 130              		.thumb_func
 131              		.type	JOYSTICK_ADC_XY_Enable, %function
ARM GAS  C:\Users\Asus\AppData\Local\Temp\ccwRUyhH.s 			page 5


 132              	JOYSTICK_ADC_XY_Enable:
 133              	.LFB2:
  98:Generated_Source\PSoC5/JOYSTICK_ADC_XY.c ****     #endif   /* End JOYSTICK_ADC_XY_IRQ_REMOVE */
  99:Generated_Source\PSoC5/JOYSTICK_ADC_XY.c **** 
 100:Generated_Source\PSoC5/JOYSTICK_ADC_XY.c **** }
 101:Generated_Source\PSoC5/JOYSTICK_ADC_XY.c **** 
 102:Generated_Source\PSoC5/JOYSTICK_ADC_XY.c **** 
 103:Generated_Source\PSoC5/JOYSTICK_ADC_XY.c **** /*******************************************************************************
 104:Generated_Source\PSoC5/JOYSTICK_ADC_XY.c **** * Function Name: JOYSTICK_ADC_XY_Enable
 105:Generated_Source\PSoC5/JOYSTICK_ADC_XY.c **** ********************************************************************************
 106:Generated_Source\PSoC5/JOYSTICK_ADC_XY.c **** *
 107:Generated_Source\PSoC5/JOYSTICK_ADC_XY.c **** * Summary:
 108:Generated_Source\PSoC5/JOYSTICK_ADC_XY.c **** *  Enables DMA channels, address selection counter and FSM of Base component
 109:Generated_Source\PSoC5/JOYSTICK_ADC_XY.c **** *
 110:Generated_Source\PSoC5/JOYSTICK_ADC_XY.c **** * Parameters:
 111:Generated_Source\PSoC5/JOYSTICK_ADC_XY.c **** *  None.
 112:Generated_Source\PSoC5/JOYSTICK_ADC_XY.c **** *
 113:Generated_Source\PSoC5/JOYSTICK_ADC_XY.c **** * Return:
 114:Generated_Source\PSoC5/JOYSTICK_ADC_XY.c **** *  None.
 115:Generated_Source\PSoC5/JOYSTICK_ADC_XY.c **** *
 116:Generated_Source\PSoC5/JOYSTICK_ADC_XY.c **** * Side Effects:
 117:Generated_Source\PSoC5/JOYSTICK_ADC_XY.c **** *  None.
 118:Generated_Source\PSoC5/JOYSTICK_ADC_XY.c **** *
 119:Generated_Source\PSoC5/JOYSTICK_ADC_XY.c **** * Reentrant:
 120:Generated_Source\PSoC5/JOYSTICK_ADC_XY.c **** *  No.
 121:Generated_Source\PSoC5/JOYSTICK_ADC_XY.c **** *
 122:Generated_Source\PSoC5/JOYSTICK_ADC_XY.c **** *******************************************************************************/
 123:Generated_Source\PSoC5/JOYSTICK_ADC_XY.c **** void JOYSTICK_ADC_XY_Enable(void)
 124:Generated_Source\PSoC5/JOYSTICK_ADC_XY.c **** {
 134              		.loc 1 124 0
 135              		.cfi_startproc
 136              		@ args = 0, pretend = 0, frame = 0
 137              		@ frame_needed = 0, uses_anonymous_args = 0
 138 0000 70B5     		push	{r4, r5, r6, lr}
 139              		.cfi_def_cfa_offset 16
 140              		.cfi_offset 4, -16
 141              		.cfi_offset 5, -12
 142              		.cfi_offset 6, -8
 143              		.cfi_offset 14, -4
 125:Generated_Source\PSoC5/JOYSTICK_ADC_XY.c ****     uint8 enableInterrupts;
 126:Generated_Source\PSoC5/JOYSTICK_ADC_XY.c **** 
 127:Generated_Source\PSoC5/JOYSTICK_ADC_XY.c ****     static int16 JOYSTICK_ADC_XY_tempArray[JOYSTICK_ADC_XY_NUMBER_OF_CHANNELS];
 128:Generated_Source\PSoC5/JOYSTICK_ADC_XY.c ****     
 129:Generated_Source\PSoC5/JOYSTICK_ADC_XY.c ****     (void)CyDmaClearPendingDrq(JOYSTICK_ADC_XY_tempChan);
 144              		.loc 1 129 0
 145 0002 2C4C     		ldr	r4, .L13
 146 0004 2078     		ldrb	r0, [r4]	@ zero_extendqisi2
 147 0006 FFF7FEFF 		bl	CyDmaClearPendingDrq
 148              	.LVL8:
 130:Generated_Source\PSoC5/JOYSTICK_ADC_XY.c ****     (void)CyDmaClearPendingDrq(JOYSTICK_ADC_XY_finalChan);
 149              		.loc 1 130 0
 150 000a 6078     		ldrb	r0, [r4, #1]	@ zero_extendqisi2
 151 000c FFF7FEFF 		bl	CyDmaClearPendingDrq
 152              	.LVL9:
 131:Generated_Source\PSoC5/JOYSTICK_ADC_XY.c ****     
 132:Generated_Source\PSoC5/JOYSTICK_ADC_XY.c ****     
 133:Generated_Source\PSoC5/JOYSTICK_ADC_XY.c ****     /* Provides initialization procedure for the TempBuf DMA
ARM GAS  C:\Users\Asus\AppData\Local\Temp\ccwRUyhH.s 			page 6


 134:Generated_Source\PSoC5/JOYSTICK_ADC_XY.c ****     * Configure this Td as follows:
 135:Generated_Source\PSoC5/JOYSTICK_ADC_XY.c ****     *  - The TD is looping on itself
 136:Generated_Source\PSoC5/JOYSTICK_ADC_XY.c ****     *  - Increment the destination address, but not the source address
 137:Generated_Source\PSoC5/JOYSTICK_ADC_XY.c ****     */
 138:Generated_Source\PSoC5/JOYSTICK_ADC_XY.c **** 
 139:Generated_Source\PSoC5/JOYSTICK_ADC_XY.c ****     if (JOYSTICK_ADC_XY_tempTD == DMA_INVALID_TD)
 153              		.loc 1 139 0
 154 0010 294B     		ldr	r3, .L13+4
 155 0012 1B78     		ldrb	r3, [r3]	@ zero_extendqisi2
 156 0014 FF2B     		cmp	r3, #255
 157 0016 03D1     		bne	.L10
 140:Generated_Source\PSoC5/JOYSTICK_ADC_XY.c ****     {
 141:Generated_Source\PSoC5/JOYSTICK_ADC_XY.c ****         JOYSTICK_ADC_XY_tempTD = CyDmaTdAllocate();
 158              		.loc 1 141 0
 159 0018 FFF7FEFF 		bl	CyDmaTdAllocate
 160              	.LVL10:
 161 001c 264B     		ldr	r3, .L13+4
 162 001e 1870     		strb	r0, [r3]
 163              	.L10:
 142:Generated_Source\PSoC5/JOYSTICK_ADC_XY.c ****     }
 143:Generated_Source\PSoC5/JOYSTICK_ADC_XY.c **** 
 144:Generated_Source\PSoC5/JOYSTICK_ADC_XY.c ****     (void) CyDmaTdSetConfiguration(JOYSTICK_ADC_XY_tempTD, JOYSTICK_ADC_XY_TEMP_TRANSFER_COUNT,
 164              		.loc 1 144 0
 165 0020 254D     		ldr	r5, .L13+4
 166 0022 2878     		ldrb	r0, [r5]	@ zero_extendqisi2
 167 0024 0623     		movs	r3, #6
 168 0026 0246     		mov	r2, r0
 169 0028 0421     		movs	r1, #4
 170 002a FFF7FEFF 		bl	CyDmaTdSetConfiguration
 171              	.LVL11:
 145:Generated_Source\PSoC5/JOYSTICK_ADC_XY.c ****         JOYSTICK_ADC_XY_tempTD, ((uint8)JOYSTICK_ADC_XY_TempBuf__TD_TERMOUT_EN | (uint8)TD_INC_DST_
 146:Generated_Source\PSoC5/JOYSTICK_ADC_XY.c **** 
 147:Generated_Source\PSoC5/JOYSTICK_ADC_XY.c ****     /* From the SAR to the TempArray */
 148:Generated_Source\PSoC5/JOYSTICK_ADC_XY.c ****     (void) CyDmaTdSetAddress(JOYSTICK_ADC_XY_tempTD, (uint16)(LO16((uint32)JOYSTICK_ADC_XY_SAR_DATA
 172              		.loc 1 148 0
 173 002e 214E     		ldr	r6, .L13
 174 0030 341D     		adds	r4, r6, #4
 175 0032 A4B2     		uxth	r4, r4
 176 0034 2246     		mov	r2, r4
 177 0036 45F6A031 		movw	r1, #23456
 178 003a 2878     		ldrb	r0, [r5]	@ zero_extendqisi2
 179 003c FFF7FEFF 		bl	CyDmaTdSetAddress
 180              	.LVL12:
 149:Generated_Source\PSoC5/JOYSTICK_ADC_XY.c ****         (uint16)(LO16((uint32)JOYSTICK_ADC_XY_tempArray)));
 150:Generated_Source\PSoC5/JOYSTICK_ADC_XY.c **** 
 151:Generated_Source\PSoC5/JOYSTICK_ADC_XY.c ****     /* Associate the TD with the channel */
 152:Generated_Source\PSoC5/JOYSTICK_ADC_XY.c ****     (void) CyDmaChSetInitialTd(JOYSTICK_ADC_XY_tempChan, JOYSTICK_ADC_XY_tempTD);
 181              		.loc 1 152 0
 182 0040 2978     		ldrb	r1, [r5]	@ zero_extendqisi2
 183 0042 3078     		ldrb	r0, [r6]	@ zero_extendqisi2
 184 0044 FFF7FEFF 		bl	CyDmaChSetInitialTd
 185              	.LVL13:
 153:Generated_Source\PSoC5/JOYSTICK_ADC_XY.c **** 
 154:Generated_Source\PSoC5/JOYSTICK_ADC_XY.c **** 
 155:Generated_Source\PSoC5/JOYSTICK_ADC_XY.c ****     /* Provides initialization procedure for the FinalBuf DMA
 156:Generated_Source\PSoC5/JOYSTICK_ADC_XY.c ****     * Configure this Td as follows:
 157:Generated_Source\PSoC5/JOYSTICK_ADC_XY.c ****     *  - The TD is looping on itself
ARM GAS  C:\Users\Asus\AppData\Local\Temp\ccwRUyhH.s 			page 7


 158:Generated_Source\PSoC5/JOYSTICK_ADC_XY.c ****     *  - Increment the source and destination address
 159:Generated_Source\PSoC5/JOYSTICK_ADC_XY.c ****     */
 160:Generated_Source\PSoC5/JOYSTICK_ADC_XY.c **** 
 161:Generated_Source\PSoC5/JOYSTICK_ADC_XY.c ****     if (JOYSTICK_ADC_XY_finalTD == DMA_INVALID_TD)
 186              		.loc 1 161 0
 187 0048 6B78     		ldrb	r3, [r5, #1]	@ zero_extendqisi2
 188 004a FF2B     		cmp	r3, #255
 189 004c 02D1     		bne	.L11
 162:Generated_Source\PSoC5/JOYSTICK_ADC_XY.c ****     {
 163:Generated_Source\PSoC5/JOYSTICK_ADC_XY.c ****         JOYSTICK_ADC_XY_finalTD = CyDmaTdAllocate();
 190              		.loc 1 163 0
 191 004e FFF7FEFF 		bl	CyDmaTdAllocate
 192              	.LVL14:
 193 0052 6870     		strb	r0, [r5, #1]
 194              	.L11:
 164:Generated_Source\PSoC5/JOYSTICK_ADC_XY.c ****     }
 165:Generated_Source\PSoC5/JOYSTICK_ADC_XY.c ****     
 166:Generated_Source\PSoC5/JOYSTICK_ADC_XY.c ****     (void) CyDmaTdSetConfiguration(JOYSTICK_ADC_XY_finalTD, (JOYSTICK_ADC_XY_FINAL_BYTES_PER_BURST)
 195              		.loc 1 166 0
 196 0054 184D     		ldr	r5, .L13+4
 197 0056 6878     		ldrb	r0, [r5, #1]	@ zero_extendqisi2
 198 0058 0723     		movs	r3, #7
 199 005a 0246     		mov	r2, r0
 200 005c 0421     		movs	r1, #4
 201 005e FFF7FEFF 		bl	CyDmaTdSetConfiguration
 202              	.LVL15:
 167:Generated_Source\PSoC5/JOYSTICK_ADC_XY.c ****         JOYSTICK_ADC_XY_finalTD, ((uint8)(JOYSTICK_ADC_XY_FinalBuf__TD_TERMOUT_EN) | (uint8)TD_INC_
 168:Generated_Source\PSoC5/JOYSTICK_ADC_XY.c ****             (uint8)TD_INC_DST_ADR));
 169:Generated_Source\PSoC5/JOYSTICK_ADC_XY.c **** 
 170:Generated_Source\PSoC5/JOYSTICK_ADC_XY.c ****     /* From the the TempArray to Final Array */
 171:Generated_Source\PSoC5/JOYSTICK_ADC_XY.c ****     (void) CyDmaTdSetAddress(JOYSTICK_ADC_XY_finalTD, (uint16)(LO16((uint32)JOYSTICK_ADC_XY_tempArr
 203              		.loc 1 171 0
 204 0062 164A     		ldr	r2, .L13+8
 205 0064 92B2     		uxth	r2, r2
 206 0066 2146     		mov	r1, r4
 207 0068 6878     		ldrb	r0, [r5, #1]	@ zero_extendqisi2
 208 006a FFF7FEFF 		bl	CyDmaTdSetAddress
 209              	.LVL16:
 172:Generated_Source\PSoC5/JOYSTICK_ADC_XY.c ****         (uint16)(LO16((uint32)JOYSTICK_ADC_XY_finalArray)));
 173:Generated_Source\PSoC5/JOYSTICK_ADC_XY.c **** 
 174:Generated_Source\PSoC5/JOYSTICK_ADC_XY.c ****     /* Associate the TD with the channel */
 175:Generated_Source\PSoC5/JOYSTICK_ADC_XY.c ****     (void) CyDmaChSetInitialTd(JOYSTICK_ADC_XY_finalChan, JOYSTICK_ADC_XY_finalTD);
 210              		.loc 1 175 0
 211 006e 114C     		ldr	r4, .L13
 212 0070 6978     		ldrb	r1, [r5, #1]	@ zero_extendqisi2
 213 0072 6078     		ldrb	r0, [r4, #1]	@ zero_extendqisi2
 214 0074 FFF7FEFF 		bl	CyDmaChSetInitialTd
 215              	.LVL17:
 176:Generated_Source\PSoC5/JOYSTICK_ADC_XY.c ****     
 177:Generated_Source\PSoC5/JOYSTICK_ADC_XY.c ****     (void) CyDmaChEnable(JOYSTICK_ADC_XY_tempChan, 1u);
 216              		.loc 1 177 0
 217 0078 0121     		movs	r1, #1
 218 007a 2078     		ldrb	r0, [r4]	@ zero_extendqisi2
 219 007c FFF7FEFF 		bl	CyDmaChEnable
 220              	.LVL18:
 178:Generated_Source\PSoC5/JOYSTICK_ADC_XY.c ****     (void) CyDmaChEnable(JOYSTICK_ADC_XY_finalChan, 1u);
 221              		.loc 1 178 0
ARM GAS  C:\Users\Asus\AppData\Local\Temp\ccwRUyhH.s 			page 8


 222 0080 0121     		movs	r1, #1
 223 0082 6078     		ldrb	r0, [r4, #1]	@ zero_extendqisi2
 224 0084 FFF7FEFF 		bl	CyDmaChEnable
 225              	.LVL19:
 179:Generated_Source\PSoC5/JOYSTICK_ADC_XY.c **** 
 180:Generated_Source\PSoC5/JOYSTICK_ADC_XY.c ****     /* Enable Counter and give Enable pulse to set an address of the last channel */
 181:Generated_Source\PSoC5/JOYSTICK_ADC_XY.c ****     enableInterrupts = CyEnterCriticalSection();
 226              		.loc 1 181 0
 227 0088 FFF7FEFF 		bl	CyEnterCriticalSection
 228              	.LVL20:
 182:Generated_Source\PSoC5/JOYSTICK_ADC_XY.c ****     JOYSTICK_ADC_XY_CYCLE_COUNTER_AUX_CONTROL_REG |= ((uint8)(JOYSTICK_ADC_XY_CYCLE_COUNTER_ENABLE)
 229              		.loc 1 182 0
 230 008c 0C4A     		ldr	r2, .L13+12
 231 008e 1378     		ldrb	r3, [r2]	@ zero_extendqisi2
 232 0090 43F02003 		orr	r3, r3, #32
 233 0094 1370     		strb	r3, [r2]
 183:Generated_Source\PSoC5/JOYSTICK_ADC_XY.c ****     CyExitCriticalSection(enableInterrupts);
 234              		.loc 1 183 0
 235 0096 FFF7FEFF 		bl	CyExitCriticalSection
 236              	.LVL21:
 184:Generated_Source\PSoC5/JOYSTICK_ADC_XY.c **** 
 185:Generated_Source\PSoC5/JOYSTICK_ADC_XY.c ****     /* Enable FSM of the Base Component */
 186:Generated_Source\PSoC5/JOYSTICK_ADC_XY.c ****     JOYSTICK_ADC_XY_CONTROL_REG |= ((uint8)(JOYSTICK_ADC_XY_BASE_COMPONENT_ENABLE));
 237              		.loc 1 186 0
 238 009a 0A4B     		ldr	r3, .L13+16
 239 009c 1A78     		ldrb	r2, [r3]	@ zero_extendqisi2
 240 009e 42F00102 		orr	r2, r2, #1
 241 00a2 1A70     		strb	r2, [r3]
 187:Generated_Source\PSoC5/JOYSTICK_ADC_XY.c ****     JOYSTICK_ADC_XY_CONTROL_REG |= ((uint8)(JOYSTICK_ADC_XY_LOAD_COUNTER_PERIOD));
 242              		.loc 1 187 0
 243 00a4 1A78     		ldrb	r2, [r3]	@ zero_extendqisi2
 244 00a6 42F00202 		orr	r2, r2, #2
 245 00aa 1A70     		strb	r2, [r3]
 188:Generated_Source\PSoC5/JOYSTICK_ADC_XY.c **** 
 189:Generated_Source\PSoC5/JOYSTICK_ADC_XY.c ****     #if(JOYSTICK_ADC_XY_IRQ_REMOVE == 0u)
 190:Generated_Source\PSoC5/JOYSTICK_ADC_XY.c ****         /* Clear a pending interrupt */
 191:Generated_Source\PSoC5/JOYSTICK_ADC_XY.c ****         CyIntClearPending(JOYSTICK_ADC_XY_INTC_NUMBER);
 246              		.loc 1 191 0
 247 00ac 0122     		movs	r2, #1
 248 00ae 064B     		ldr	r3, .L13+20
 249 00b0 1A60     		str	r2, [r3]
 250 00b2 70BD     		pop	{r4, r5, r6, pc}
 251              	.L14:
 252              		.align	2
 253              	.L13:
 254 00b4 00000000 		.word	.LANCHOR0
 255 00b8 00000000 		.word	.LANCHOR1
 256 00bc 00000000 		.word	JOYSTICK_ADC_XY_finalArray
 257 00c0 99640040 		.word	1073767577
 258 00c4 79650040 		.word	1073767801
 259 00c8 80E200E0 		.word	-536812928
 260              		.cfi_endproc
 261              	.LFE2:
 262              		.size	JOYSTICK_ADC_XY_Enable, .-JOYSTICK_ADC_XY_Enable
 263              		.section	.text.JOYSTICK_ADC_XY_Start,"ax",%progbits
 264              		.align	2
 265              		.global	JOYSTICK_ADC_XY_Start
ARM GAS  C:\Users\Asus\AppData\Local\Temp\ccwRUyhH.s 			page 9


 266              		.thumb
 267              		.thumb_func
 268              		.type	JOYSTICK_ADC_XY_Start, %function
 269              	JOYSTICK_ADC_XY_Start:
 270              	.LFB3:
 192:Generated_Source\PSoC5/JOYSTICK_ADC_XY.c ****     #endif   /* End JOYSTICK_ADC_XY_IRQ_REMOVE */
 193:Generated_Source\PSoC5/JOYSTICK_ADC_XY.c **** }
 194:Generated_Source\PSoC5/JOYSTICK_ADC_XY.c **** 
 195:Generated_Source\PSoC5/JOYSTICK_ADC_XY.c **** 
 196:Generated_Source\PSoC5/JOYSTICK_ADC_XY.c **** /*******************************************************************************
 197:Generated_Source\PSoC5/JOYSTICK_ADC_XY.c **** * Function Name: JOYSTICK_ADC_XY_Start
 198:Generated_Source\PSoC5/JOYSTICK_ADC_XY.c **** ********************************************************************************
 199:Generated_Source\PSoC5/JOYSTICK_ADC_XY.c **** *
 200:Generated_Source\PSoC5/JOYSTICK_ADC_XY.c **** * Summary:
 201:Generated_Source\PSoC5/JOYSTICK_ADC_XY.c **** *  Starts component
 202:Generated_Source\PSoC5/JOYSTICK_ADC_XY.c **** *
 203:Generated_Source\PSoC5/JOYSTICK_ADC_XY.c **** * Parameters:
 204:Generated_Source\PSoC5/JOYSTICK_ADC_XY.c **** *  None.
 205:Generated_Source\PSoC5/JOYSTICK_ADC_XY.c **** *
 206:Generated_Source\PSoC5/JOYSTICK_ADC_XY.c **** * Return:
 207:Generated_Source\PSoC5/JOYSTICK_ADC_XY.c **** *  None.
 208:Generated_Source\PSoC5/JOYSTICK_ADC_XY.c **** *
 209:Generated_Source\PSoC5/JOYSTICK_ADC_XY.c **** * Side Effects:
 210:Generated_Source\PSoC5/JOYSTICK_ADC_XY.c **** *  If the initVar variable is already set, this function only calls the 
 211:Generated_Source\PSoC5/JOYSTICK_ADC_XY.c **** *  JOYSTICK_ADC_XY_Enable() function
 212:Generated_Source\PSoC5/JOYSTICK_ADC_XY.c **** *
 213:Generated_Source\PSoC5/JOYSTICK_ADC_XY.c **** * Reentrant:
 214:Generated_Source\PSoC5/JOYSTICK_ADC_XY.c **** *  No.
 215:Generated_Source\PSoC5/JOYSTICK_ADC_XY.c **** *
 216:Generated_Source\PSoC5/JOYSTICK_ADC_XY.c **** *******************************************************************************/
 217:Generated_Source\PSoC5/JOYSTICK_ADC_XY.c **** void JOYSTICK_ADC_XY_Start(void)
 218:Generated_Source\PSoC5/JOYSTICK_ADC_XY.c **** {
 271              		.loc 1 218 0
 272              		.cfi_startproc
 273              		@ args = 0, pretend = 0, frame = 0
 274              		@ frame_needed = 0, uses_anonymous_args = 0
 275 0000 08B5     		push	{r3, lr}
 276              		.cfi_def_cfa_offset 8
 277              		.cfi_offset 3, -8
 278              		.cfi_offset 14, -4
 219:Generated_Source\PSoC5/JOYSTICK_ADC_XY.c ****     if(JOYSTICK_ADC_XY_initVar == 0u)
 279              		.loc 1 219 0
 280 0002 074B     		ldr	r3, .L18
 281 0004 9B68     		ldr	r3, [r3, #8]
 282 0006 23B9     		cbnz	r3, .L16
 220:Generated_Source\PSoC5/JOYSTICK_ADC_XY.c ****     {
 221:Generated_Source\PSoC5/JOYSTICK_ADC_XY.c ****         JOYSTICK_ADC_XY_Init();
 283              		.loc 1 221 0
 284 0008 FFF7FEFF 		bl	JOYSTICK_ADC_XY_Init
 285              	.LVL22:
 222:Generated_Source\PSoC5/JOYSTICK_ADC_XY.c ****         JOYSTICK_ADC_XY_initVar = 1u;
 286              		.loc 1 222 0
 287 000c 0122     		movs	r2, #1
 288 000e 044B     		ldr	r3, .L18
 289 0010 9A60     		str	r2, [r3, #8]
 290              	.L16:
 223:Generated_Source\PSoC5/JOYSTICK_ADC_XY.c ****     }
ARM GAS  C:\Users\Asus\AppData\Local\Temp\ccwRUyhH.s 			page 10


 224:Generated_Source\PSoC5/JOYSTICK_ADC_XY.c **** 
 225:Generated_Source\PSoC5/JOYSTICK_ADC_XY.c ****     JOYSTICK_ADC_XY_SAR_Start();
 291              		.loc 1 225 0
 292 0012 FFF7FEFF 		bl	JOYSTICK_ADC_XY_SAR_Start
 293              	.LVL23:
 226:Generated_Source\PSoC5/JOYSTICK_ADC_XY.c ****     JOYSTICK_ADC_XY_Enable();
 294              		.loc 1 226 0
 295 0016 FFF7FEFF 		bl	JOYSTICK_ADC_XY_Enable
 296              	.LVL24:
 227:Generated_Source\PSoC5/JOYSTICK_ADC_XY.c ****     (void) CY_GET_REG8(JOYSTICK_ADC_XY_STATUS_PTR);
 297              		.loc 1 227 0
 298 001a 024B     		ldr	r3, .L18+4
 299 001c 1B78     		ldrb	r3, [r3]	@ zero_extendqisi2
 300 001e 08BD     		pop	{r3, pc}
 301              	.L19:
 302              		.align	2
 303              	.L18:
 304 0020 00000000 		.word	.LANCHOR0
 305 0024 68640040 		.word	1073767528
 306              		.cfi_endproc
 307              	.LFE3:
 308              		.size	JOYSTICK_ADC_XY_Start, .-JOYSTICK_ADC_XY_Start
 309              		.section	.text.JOYSTICK_ADC_XY_Stop,"ax",%progbits
 310              		.align	2
 311              		.global	JOYSTICK_ADC_XY_Stop
 312              		.thumb
 313              		.thumb_func
 314              		.type	JOYSTICK_ADC_XY_Stop, %function
 315              	JOYSTICK_ADC_XY_Stop:
 316              	.LFB4:
 228:Generated_Source\PSoC5/JOYSTICK_ADC_XY.c **** }
 229:Generated_Source\PSoC5/JOYSTICK_ADC_XY.c **** 
 230:Generated_Source\PSoC5/JOYSTICK_ADC_XY.c **** 
 231:Generated_Source\PSoC5/JOYSTICK_ADC_XY.c **** /*******************************************************************************
 232:Generated_Source\PSoC5/JOYSTICK_ADC_XY.c **** * Function Name: JOYSTICK_ADC_XY_Stop
 233:Generated_Source\PSoC5/JOYSTICK_ADC_XY.c **** ********************************************************************************
 234:Generated_Source\PSoC5/JOYSTICK_ADC_XY.c **** *
 235:Generated_Source\PSoC5/JOYSTICK_ADC_XY.c **** * Summary:
 236:Generated_Source\PSoC5/JOYSTICK_ADC_XY.c **** *  Stops component.
 237:Generated_Source\PSoC5/JOYSTICK_ADC_XY.c **** *
 238:Generated_Source\PSoC5/JOYSTICK_ADC_XY.c **** * Parameters:
 239:Generated_Source\PSoC5/JOYSTICK_ADC_XY.c **** *  None.
 240:Generated_Source\PSoC5/JOYSTICK_ADC_XY.c **** *
 241:Generated_Source\PSoC5/JOYSTICK_ADC_XY.c **** * Return:
 242:Generated_Source\PSoC5/JOYSTICK_ADC_XY.c **** *  None.
 243:Generated_Source\PSoC5/JOYSTICK_ADC_XY.c **** *
 244:Generated_Source\PSoC5/JOYSTICK_ADC_XY.c **** * Side Effects:
 245:Generated_Source\PSoC5/JOYSTICK_ADC_XY.c **** *  None.
 246:Generated_Source\PSoC5/JOYSTICK_ADC_XY.c **** *
 247:Generated_Source\PSoC5/JOYSTICK_ADC_XY.c **** * Reentrant:
 248:Generated_Source\PSoC5/JOYSTICK_ADC_XY.c **** *  No.
 249:Generated_Source\PSoC5/JOYSTICK_ADC_XY.c **** *
 250:Generated_Source\PSoC5/JOYSTICK_ADC_XY.c **** *******************************************************************************/
 251:Generated_Source\PSoC5/JOYSTICK_ADC_XY.c **** void JOYSTICK_ADC_XY_Stop(void)
 252:Generated_Source\PSoC5/JOYSTICK_ADC_XY.c **** {
 317              		.loc 1 252 0
 318              		.cfi_startproc
ARM GAS  C:\Users\Asus\AppData\Local\Temp\ccwRUyhH.s 			page 11


 319              		@ args = 0, pretend = 0, frame = 0
 320              		@ frame_needed = 0, uses_anonymous_args = 0
 321 0000 08B5     		push	{r3, lr}
 322              		.cfi_def_cfa_offset 8
 323              		.cfi_offset 3, -8
 324              		.cfi_offset 14, -4
 253:Generated_Source\PSoC5/JOYSTICK_ADC_XY.c ****     JOYSTICK_ADC_XY_SAR_Stop();
 325              		.loc 1 253 0
 326 0002 FFF7FEFF 		bl	JOYSTICK_ADC_XY_SAR_Stop
 327              	.LVL25:
 254:Generated_Source\PSoC5/JOYSTICK_ADC_XY.c ****     JOYSTICK_ADC_XY_Disable();
 328              		.loc 1 254 0
 329 0006 FFF7FEFF 		bl	JOYSTICK_ADC_XY_Disable
 330              	.LVL26:
 331 000a 08BD     		pop	{r3, pc}
 332              		.cfi_endproc
 333              	.LFE4:
 334              		.size	JOYSTICK_ADC_XY_Stop, .-JOYSTICK_ADC_XY_Stop
 335              		.section	.text.JOYSTICK_ADC_XY_StartConvert,"ax",%progbits
 336              		.align	2
 337              		.global	JOYSTICK_ADC_XY_StartConvert
 338              		.thumb
 339              		.thumb_func
 340              		.type	JOYSTICK_ADC_XY_StartConvert, %function
 341              	JOYSTICK_ADC_XY_StartConvert:
 342              	.LFB5:
 255:Generated_Source\PSoC5/JOYSTICK_ADC_XY.c **** }
 256:Generated_Source\PSoC5/JOYSTICK_ADC_XY.c **** 
 257:Generated_Source\PSoC5/JOYSTICK_ADC_XY.c **** #if(JOYSTICK_ADC_XY_SAMPLE_MODE != JOYSTICK_ADC_XY_SAMPLE_MODE_HW_TRIGGERED)
 258:Generated_Source\PSoC5/JOYSTICK_ADC_XY.c **** 
 259:Generated_Source\PSoC5/JOYSTICK_ADC_XY.c ****     /*******************************************************************************
 260:Generated_Source\PSoC5/JOYSTICK_ADC_XY.c ****     * Function Name: JOYSTICK_ADC_XY_StartConvert
 261:Generated_Source\PSoC5/JOYSTICK_ADC_XY.c ****     ********************************************************************************
 262:Generated_Source\PSoC5/JOYSTICK_ADC_XY.c ****     *
 263:Generated_Source\PSoC5/JOYSTICK_ADC_XY.c ****     * Summary:
 264:Generated_Source\PSoC5/JOYSTICK_ADC_XY.c ****     *  When the Sample Mode parameter is set to 'Free Running', the component will
 265:Generated_Source\PSoC5/JOYSTICK_ADC_XY.c ****     * operate in a continuous mode. The channels will be scanned continuously until
 266:Generated_Source\PSoC5/JOYSTICK_ADC_XY.c ****     * _StopConvert()or  _Stop() is called
 267:Generated_Source\PSoC5/JOYSTICK_ADC_XY.c ****     *
 268:Generated_Source\PSoC5/JOYSTICK_ADC_XY.c ****     * Parameters:
 269:Generated_Source\PSoC5/JOYSTICK_ADC_XY.c ****     *  None.
 270:Generated_Source\PSoC5/JOYSTICK_ADC_XY.c ****     *
 271:Generated_Source\PSoC5/JOYSTICK_ADC_XY.c ****     * Return:
 272:Generated_Source\PSoC5/JOYSTICK_ADC_XY.c ****     *  None.
 273:Generated_Source\PSoC5/JOYSTICK_ADC_XY.c ****     *
 274:Generated_Source\PSoC5/JOYSTICK_ADC_XY.c ****     * Side Effects:
 275:Generated_Source\PSoC5/JOYSTICK_ADC_XY.c ****     *  Calling JOYSTICK_ADC_XY_StartConvert() disables the external SOC pin.
 276:Generated_Source\PSoC5/JOYSTICK_ADC_XY.c ****     *
 277:Generated_Source\PSoC5/JOYSTICK_ADC_XY.c ****     * Reentrant:
 278:Generated_Source\PSoC5/JOYSTICK_ADC_XY.c ****     *  No.
 279:Generated_Source\PSoC5/JOYSTICK_ADC_XY.c ****     *
 280:Generated_Source\PSoC5/JOYSTICK_ADC_XY.c ****     *******************************************************************************/
 281:Generated_Source\PSoC5/JOYSTICK_ADC_XY.c ****     void JOYSTICK_ADC_XY_StartConvert(void)
 282:Generated_Source\PSoC5/JOYSTICK_ADC_XY.c ****     {
 343              		.loc 1 282 0
 344              		.cfi_startproc
 345              		@ args = 0, pretend = 0, frame = 0
ARM GAS  C:\Users\Asus\AppData\Local\Temp\ccwRUyhH.s 			page 12


 346              		@ frame_needed = 0, uses_anonymous_args = 0
 347 0000 08B5     		push	{r3, lr}
 348              		.cfi_def_cfa_offset 8
 349              		.cfi_offset 3, -8
 350              		.cfi_offset 14, -4
 283:Generated_Source\PSoC5/JOYSTICK_ADC_XY.c ****         #if(JOYSTICK_ADC_XY_SAMPLE_MODE != JOYSTICK_ADC_XY_SAMPLE_MODE_FREE_RUNNING)
 284:Generated_Source\PSoC5/JOYSTICK_ADC_XY.c **** 
 285:Generated_Source\PSoC5/JOYSTICK_ADC_XY.c ****             JOYSTICK_ADC_XY_CONTROL_REG |= ((uint8)(JOYSTICK_ADC_XY_SOFTWARE_SOC_PULSE));
 286:Generated_Source\PSoC5/JOYSTICK_ADC_XY.c **** 
 287:Generated_Source\PSoC5/JOYSTICK_ADC_XY.c ****         #else
 288:Generated_Source\PSoC5/JOYSTICK_ADC_XY.c **** 
 289:Generated_Source\PSoC5/JOYSTICK_ADC_XY.c ****             JOYSTICK_ADC_XY_SAR_StartConvert();
 351              		.loc 1 289 0
 352 0002 FFF7FEFF 		bl	JOYSTICK_ADC_XY_SAR_StartConvert
 353              	.LVL27:
 354 0006 08BD     		pop	{r3, pc}
 355              		.cfi_endproc
 356              	.LFE5:
 357              		.size	JOYSTICK_ADC_XY_StartConvert, .-JOYSTICK_ADC_XY_StartConvert
 358              		.section	.text.JOYSTICK_ADC_XY_StopConvert,"ax",%progbits
 359              		.align	2
 360              		.global	JOYSTICK_ADC_XY_StopConvert
 361              		.thumb
 362              		.thumb_func
 363              		.type	JOYSTICK_ADC_XY_StopConvert, %function
 364              	JOYSTICK_ADC_XY_StopConvert:
 365              	.LFB6:
 290:Generated_Source\PSoC5/JOYSTICK_ADC_XY.c **** 
 291:Generated_Source\PSoC5/JOYSTICK_ADC_XY.c ****         #endif /*
 292:Generated_Source\PSoC5/JOYSTICK_ADC_XY.c ****                  #if(JOYSTICK_ADC_XY_SAMPLE_MODE !=
 293:Generated_Source\PSoC5/JOYSTICK_ADC_XY.c ****                  JOYSTICK_ADC_XY_SAMPLE_MODE_FREE_RUNNING)
 294:Generated_Source\PSoC5/JOYSTICK_ADC_XY.c ****                */
 295:Generated_Source\PSoC5/JOYSTICK_ADC_XY.c ****     }
 296:Generated_Source\PSoC5/JOYSTICK_ADC_XY.c **** 
 297:Generated_Source\PSoC5/JOYSTICK_ADC_XY.c **** 
 298:Generated_Source\PSoC5/JOYSTICK_ADC_XY.c ****     /*******************************************************************************
 299:Generated_Source\PSoC5/JOYSTICK_ADC_XY.c ****     * Function Name: JOYSTICK_ADC_XY_StopConvert
 300:Generated_Source\PSoC5/JOYSTICK_ADC_XY.c ****     ********************************************************************************
 301:Generated_Source\PSoC5/JOYSTICK_ADC_XY.c ****     *
 302:Generated_Source\PSoC5/JOYSTICK_ADC_XY.c ****     * Summary:
 303:Generated_Source\PSoC5/JOYSTICK_ADC_XY.c ****     *  Forces the component to stop all conversions
 304:Generated_Source\PSoC5/JOYSTICK_ADC_XY.c ****     *
 305:Generated_Source\PSoC5/JOYSTICK_ADC_XY.c ****     * Parameters:
 306:Generated_Source\PSoC5/JOYSTICK_ADC_XY.c ****     *  None.
 307:Generated_Source\PSoC5/JOYSTICK_ADC_XY.c ****     *
 308:Generated_Source\PSoC5/JOYSTICK_ADC_XY.c ****     * Return:
 309:Generated_Source\PSoC5/JOYSTICK_ADC_XY.c ****     *  None.
 310:Generated_Source\PSoC5/JOYSTICK_ADC_XY.c ****     *
 311:Generated_Source\PSoC5/JOYSTICK_ADC_XY.c ****     * Side Effects:
 312:Generated_Source\PSoC5/JOYSTICK_ADC_XY.c ****     *  In free-running and software trigger mode, this function sets a software 
 313:Generated_Source\PSoC5/JOYSTICK_ADC_XY.c ****     *  version of the SOC to low level and switches the SOC source to hardware SOC 
 314:Generated_Source\PSoC5/JOYSTICK_ADC_XY.c ****     *  input (Hardware trigger).
 315:Generated_Source\PSoC5/JOYSTICK_ADC_XY.c ****     *
 316:Generated_Source\PSoC5/JOYSTICK_ADC_XY.c ****     * Reentrant:
 317:Generated_Source\PSoC5/JOYSTICK_ADC_XY.c ****     *  No.
 318:Generated_Source\PSoC5/JOYSTICK_ADC_XY.c ****     *
 319:Generated_Source\PSoC5/JOYSTICK_ADC_XY.c ****     *******************************************************************************/
ARM GAS  C:\Users\Asus\AppData\Local\Temp\ccwRUyhH.s 			page 13


 320:Generated_Source\PSoC5/JOYSTICK_ADC_XY.c ****     void JOYSTICK_ADC_XY_StopConvert(void)
 321:Generated_Source\PSoC5/JOYSTICK_ADC_XY.c ****     {
 366              		.loc 1 321 0
 367              		.cfi_startproc
 368              		@ args = 0, pretend = 0, frame = 0
 369              		@ frame_needed = 0, uses_anonymous_args = 0
 370 0000 08B5     		push	{r3, lr}
 371              		.cfi_def_cfa_offset 8
 372              		.cfi_offset 3, -8
 373              		.cfi_offset 14, -4
 322:Generated_Source\PSoC5/JOYSTICK_ADC_XY.c ****         JOYSTICK_ADC_XY_SAR_StopConvert();
 374              		.loc 1 322 0
 375 0002 FFF7FEFF 		bl	JOYSTICK_ADC_XY_SAR_StopConvert
 376              	.LVL28:
 377 0006 08BD     		pop	{r3, pc}
 378              		.cfi_endproc
 379              	.LFE6:
 380              		.size	JOYSTICK_ADC_XY_StopConvert, .-JOYSTICK_ADC_XY_StopConvert
 381              		.section	.text.JOYSTICK_ADC_XY_IsEndConversion,"ax",%progbits
 382              		.align	2
 383              		.global	JOYSTICK_ADC_XY_IsEndConversion
 384              		.thumb
 385              		.thumb_func
 386              		.type	JOYSTICK_ADC_XY_IsEndConversion, %function
 387              	JOYSTICK_ADC_XY_IsEndConversion:
 388              	.LFB7:
 323:Generated_Source\PSoC5/JOYSTICK_ADC_XY.c ****     }
 324:Generated_Source\PSoC5/JOYSTICK_ADC_XY.c **** 
 325:Generated_Source\PSoC5/JOYSTICK_ADC_XY.c **** #endif /* JOYSTICK_ADC_XY_SAMPLE_MODE != JOYSTICK_ADC_XY_SAMPLE_MODE_HW_TRIGGERED */
 326:Generated_Source\PSoC5/JOYSTICK_ADC_XY.c **** 
 327:Generated_Source\PSoC5/JOYSTICK_ADC_XY.c **** 
 328:Generated_Source\PSoC5/JOYSTICK_ADC_XY.c **** /*******************************************************************************
 329:Generated_Source\PSoC5/JOYSTICK_ADC_XY.c **** * Function Name: JOYSTICK_ADC_XY_IsEndConversion
 330:Generated_Source\PSoC5/JOYSTICK_ADC_XY.c **** ********************************************************************************
 331:Generated_Source\PSoC5/JOYSTICK_ADC_XY.c **** *
 332:Generated_Source\PSoC5/JOYSTICK_ADC_XY.c **** * Summary:
 333:Generated_Source\PSoC5/JOYSTICK_ADC_XY.c **** *  Checks for ADC end of conversion for the case one channel and end of scan
 334:Generated_Source\PSoC5/JOYSTICK_ADC_XY.c **** *  for the case of multiple channels
 335:Generated_Source\PSoC5/JOYSTICK_ADC_XY.c **** *
 336:Generated_Source\PSoC5/JOYSTICK_ADC_XY.c **** * Parameters:
 337:Generated_Source\PSoC5/JOYSTICK_ADC_XY.c **** *  retMode: Check conversion return mode
 338:Generated_Source\PSoC5/JOYSTICK_ADC_XY.c **** *   Values:
 339:Generated_Source\PSoC5/JOYSTICK_ADC_XY.c **** *         - JOYSTICK_ADC_XY_RETURN_STATUS      - Immediately returns the 
 340:Generated_Source\PSoC5/JOYSTICK_ADC_XY.c **** *                                                 status
 341:Generated_Source\PSoC5/JOYSTICK_ADC_XY.c **** *         - JOYSTICK_ADC_XY_WAIT_FOR_RESULT    - Does not return a result 
 342:Generated_Source\PSoC5/JOYSTICK_ADC_XY.c **** *                                                 until the conversion 
 343:Generated_Source\PSoC5/JOYSTICK_ADC_XY.c **** *                                                 is complete
 344:Generated_Source\PSoC5/JOYSTICK_ADC_XY.c **** *
 345:Generated_Source\PSoC5/JOYSTICK_ADC_XY.c **** * Return:
 346:Generated_Source\PSoC5/JOYSTICK_ADC_XY.c **** *  If a nonzero value is returned, the last conversion is complete. If the 
 347:Generated_Source\PSoC5/JOYSTICK_ADC_XY.c **** *  returned value is zero, the ADC_SAR_Seq is still calculating the last result
 348:Generated_Source\PSoC5/JOYSTICK_ADC_XY.c **** *
 349:Generated_Source\PSoC5/JOYSTICK_ADC_XY.c **** * Side Effects:
 350:Generated_Source\PSoC5/JOYSTICK_ADC_XY.c **** *  This function reads the end of conversion status, which is cleared on read
 351:Generated_Source\PSoC5/JOYSTICK_ADC_XY.c **** *
 352:Generated_Source\PSoC5/JOYSTICK_ADC_XY.c **** * Reentrant:
 353:Generated_Source\PSoC5/JOYSTICK_ADC_XY.c **** *  No.
ARM GAS  C:\Users\Asus\AppData\Local\Temp\ccwRUyhH.s 			page 14


 354:Generated_Source\PSoC5/JOYSTICK_ADC_XY.c **** *
 355:Generated_Source\PSoC5/JOYSTICK_ADC_XY.c **** *******************************************************************************/
 356:Generated_Source\PSoC5/JOYSTICK_ADC_XY.c **** uint32 JOYSTICK_ADC_XY_IsEndConversion(uint8 retMode)
 357:Generated_Source\PSoC5/JOYSTICK_ADC_XY.c **** {
 389              		.loc 1 357 0
 390              		.cfi_startproc
 391              		@ args = 0, pretend = 0, frame = 0
 392              		@ frame_needed = 0, uses_anonymous_args = 0
 393              		@ link register save eliminated.
 394              	.LVL29:
 395              	.L28:
 358:Generated_Source\PSoC5/JOYSTICK_ADC_XY.c ****     uint8 status;
 359:Generated_Source\PSoC5/JOYSTICK_ADC_XY.c **** 
 360:Generated_Source\PSoC5/JOYSTICK_ADC_XY.c ****     do
 361:Generated_Source\PSoC5/JOYSTICK_ADC_XY.c ****     {
 362:Generated_Source\PSoC5/JOYSTICK_ADC_XY.c ****       status = JOYSTICK_ADC_XY_STATUS_REG;
 396              		.loc 1 362 0 discriminator 2
 397 0000 044B     		ldr	r3, .L29
 398 0002 1B78     		ldrb	r3, [r3]	@ zero_extendqisi2
 399              	.LVL30:
 363:Generated_Source\PSoC5/JOYSTICK_ADC_XY.c ****     } while ((status == 0u) && (retMode == JOYSTICK_ADC_XY_WAIT_FOR_RESULT));
 400              		.loc 1 363 0 discriminator 2
 401 0004 03F0FF02 		and	r2, r3, #255
 402 0008 0BB9     		cbnz	r3, .L27
 403              		.loc 1 363 0 is_stmt 0 discriminator 1
 404 000a 0028     		cmp	r0, #0
 405 000c F8D0     		beq	.L28
 406              	.L27:
 364:Generated_Source\PSoC5/JOYSTICK_ADC_XY.c **** 
 365:Generated_Source\PSoC5/JOYSTICK_ADC_XY.c ****     return((uint32)status);
 366:Generated_Source\PSoC5/JOYSTICK_ADC_XY.c **** }
 407              		.loc 1 366 0 is_stmt 1
 408 000e 1046     		mov	r0, r2
 409              	.LVL31:
 410 0010 7047     		bx	lr
 411              	.L30:
 412 0012 00BF     		.align	2
 413              	.L29:
 414 0014 68640040 		.word	1073767528
 415              		.cfi_endproc
 416              	.LFE7:
 417              		.size	JOYSTICK_ADC_XY_IsEndConversion, .-JOYSTICK_ADC_XY_IsEndConversion
 418              		.section	.text.JOYSTICK_ADC_XY_GetResult16,"ax",%progbits
 419              		.align	2
 420              		.global	JOYSTICK_ADC_XY_GetResult16
 421              		.thumb
 422              		.thumb_func
 423              		.type	JOYSTICK_ADC_XY_GetResult16, %function
 424              	JOYSTICK_ADC_XY_GetResult16:
 425              	.LFB8:
 367:Generated_Source\PSoC5/JOYSTICK_ADC_XY.c **** 
 368:Generated_Source\PSoC5/JOYSTICK_ADC_XY.c **** 
 369:Generated_Source\PSoC5/JOYSTICK_ADC_XY.c **** /*******************************************************************************
 370:Generated_Source\PSoC5/JOYSTICK_ADC_XY.c **** * Function Name: JOYSTICK_ADC_XY_GetResult16
 371:Generated_Source\PSoC5/JOYSTICK_ADC_XY.c **** ********************************************************************************
 372:Generated_Source\PSoC5/JOYSTICK_ADC_XY.c **** *
 373:Generated_Source\PSoC5/JOYSTICK_ADC_XY.c **** * Summary:
ARM GAS  C:\Users\Asus\AppData\Local\Temp\ccwRUyhH.s 			page 15


 374:Generated_Source\PSoC5/JOYSTICK_ADC_XY.c **** *  Returns the ADC result for channel chan
 375:Generated_Source\PSoC5/JOYSTICK_ADC_XY.c **** *
 376:Generated_Source\PSoC5/JOYSTICK_ADC_XY.c **** * Parameters:
 377:Generated_Source\PSoC5/JOYSTICK_ADC_XY.c **** *  chan: The ADC channel in which to return the result. The first channel is 0 
 378:Generated_Source\PSoC5/JOYSTICK_ADC_XY.c **** *        and the last channel is the total number of channels - 1
 379:Generated_Source\PSoC5/JOYSTICK_ADC_XY.c **** *
 380:Generated_Source\PSoC5/JOYSTICK_ADC_XY.c **** * Return:
 381:Generated_Source\PSoC5/JOYSTICK_ADC_XY.c **** *  Returns converted data as a signed 16-bit integer
 382:Generated_Source\PSoC5/JOYSTICK_ADC_XY.c **** *
 383:Generated_Source\PSoC5/JOYSTICK_ADC_XY.c **** * Side Effects:
 384:Generated_Source\PSoC5/JOYSTICK_ADC_XY.c **** *  Converts the ADC counts to the 2's complement form
 385:Generated_Source\PSoC5/JOYSTICK_ADC_XY.c **** *
 386:Generated_Source\PSoC5/JOYSTICK_ADC_XY.c **** * Reentrant:
 387:Generated_Source\PSoC5/JOYSTICK_ADC_XY.c **** *  No.
 388:Generated_Source\PSoC5/JOYSTICK_ADC_XY.c **** *
 389:Generated_Source\PSoC5/JOYSTICK_ADC_XY.c **** *******************************************************************************/
 390:Generated_Source\PSoC5/JOYSTICK_ADC_XY.c **** int16 JOYSTICK_ADC_XY_GetResult16(uint16 chan)
 391:Generated_Source\PSoC5/JOYSTICK_ADC_XY.c **** {
 426              		.loc 1 391 0
 427              		.cfi_startproc
 428              		@ args = 0, pretend = 0, frame = 0
 429              		@ frame_needed = 0, uses_anonymous_args = 0
 430              		@ link register save eliminated.
 431              	.LVL32:
 392:Generated_Source\PSoC5/JOYSTICK_ADC_XY.c ****     return (JOYSTICK_ADC_XY_finalArray[JOYSTICK_ADC_XY_GET_RESULT_INDEX_OFFSET - chan] - JOYSTICK_A
 432              		.loc 1 392 0
 433 0000 C0F10100 		rsb	r0, r0, #1
 434              	.LVL33:
 435 0004 034B     		ldr	r3, .L32
 436 0006 33F91030 		ldrsh	r3, [r3, r0, lsl #1]
 437 000a 034A     		ldr	r2, .L32+4
 438 000c 1088     		ldrh	r0, [r2]
 439 000e 181A     		subs	r0, r3, r0
 393:Generated_Source\PSoC5/JOYSTICK_ADC_XY.c **** }
 440              		.loc 1 393 0
 441 0010 00B2     		sxth	r0, r0
 442 0012 7047     		bx	lr
 443              	.L33:
 444              		.align	2
 445              	.L32:
 446 0014 00000000 		.word	JOYSTICK_ADC_XY_finalArray
 447 0018 00000000 		.word	JOYSTICK_ADC_XY_SAR_shift
 448              		.cfi_endproc
 449              	.LFE8:
 450              		.size	JOYSTICK_ADC_XY_GetResult16, .-JOYSTICK_ADC_XY_GetResult16
 451              		.section	.text.JOYSTICK_ADC_XY_GetAdcResult,"ax",%progbits
 452              		.align	2
 453              		.global	JOYSTICK_ADC_XY_GetAdcResult
 454              		.thumb
 455              		.thumb_func
 456              		.type	JOYSTICK_ADC_XY_GetAdcResult, %function
 457              	JOYSTICK_ADC_XY_GetAdcResult:
 458              	.LFB9:
 394:Generated_Source\PSoC5/JOYSTICK_ADC_XY.c **** 
 395:Generated_Source\PSoC5/JOYSTICK_ADC_XY.c **** 
 396:Generated_Source\PSoC5/JOYSTICK_ADC_XY.c **** /*******************************************************************************
 397:Generated_Source\PSoC5/JOYSTICK_ADC_XY.c **** * Function Name: JOYSTICK_ADC_XY_GetAdcResult
ARM GAS  C:\Users\Asus\AppData\Local\Temp\ccwRUyhH.s 			page 16


 398:Generated_Source\PSoC5/JOYSTICK_ADC_XY.c **** ********************************************************************************
 399:Generated_Source\PSoC5/JOYSTICK_ADC_XY.c **** *
 400:Generated_Source\PSoC5/JOYSTICK_ADC_XY.c **** * Summary:
 401:Generated_Source\PSoC5/JOYSTICK_ADC_XY.c **** *  Gets the data available in the SAR DATA register, not the results buffer
 402:Generated_Source\PSoC5/JOYSTICK_ADC_XY.c **** *
 403:Generated_Source\PSoC5/JOYSTICK_ADC_XY.c **** * Parameters:
 404:Generated_Source\PSoC5/JOYSTICK_ADC_XY.c **** *  None.
 405:Generated_Source\PSoC5/JOYSTICK_ADC_XY.c **** *
 406:Generated_Source\PSoC5/JOYSTICK_ADC_XY.c **** * Return:
 407:Generated_Source\PSoC5/JOYSTICK_ADC_XY.c **** *  The last ADC conversion result
 408:Generated_Source\PSoC5/JOYSTICK_ADC_XY.c **** *
 409:Generated_Source\PSoC5/JOYSTICK_ADC_XY.c **** * Side Effects:
 410:Generated_Source\PSoC5/JOYSTICK_ADC_XY.c **** *  Converts the ADC counts to the 2's complement form
 411:Generated_Source\PSoC5/JOYSTICK_ADC_XY.c **** *
 412:Generated_Source\PSoC5/JOYSTICK_ADC_XY.c **** * Reentrant:
 413:Generated_Source\PSoC5/JOYSTICK_ADC_XY.c **** *  No.
 414:Generated_Source\PSoC5/JOYSTICK_ADC_XY.c **** *
 415:Generated_Source\PSoC5/JOYSTICK_ADC_XY.c **** *******************************************************************************/
 416:Generated_Source\PSoC5/JOYSTICK_ADC_XY.c **** int16 JOYSTICK_ADC_XY_GetAdcResult(void)
 417:Generated_Source\PSoC5/JOYSTICK_ADC_XY.c **** {
 459              		.loc 1 417 0
 460              		.cfi_startproc
 461              		@ args = 0, pretend = 0, frame = 0
 462              		@ frame_needed = 0, uses_anonymous_args = 0
 463 0000 08B5     		push	{r3, lr}
 464              		.cfi_def_cfa_offset 8
 465              		.cfi_offset 3, -8
 466              		.cfi_offset 14, -4
 418:Generated_Source\PSoC5/JOYSTICK_ADC_XY.c ****     return (JOYSTICK_ADC_XY_SAR_GetResult16());
 467              		.loc 1 418 0
 468 0002 FFF7FEFF 		bl	JOYSTICK_ADC_XY_SAR_GetResult16
 469              	.LVL34:
 419:Generated_Source\PSoC5/JOYSTICK_ADC_XY.c **** }
 470              		.loc 1 419 0
 471 0006 08BD     		pop	{r3, pc}
 472              		.cfi_endproc
 473              	.LFE9:
 474              		.size	JOYSTICK_ADC_XY_GetAdcResult, .-JOYSTICK_ADC_XY_GetAdcResult
 475              		.section	.text.JOYSTICK_ADC_XY_SetOffset,"ax",%progbits
 476              		.align	2
 477              		.global	JOYSTICK_ADC_XY_SetOffset
 478              		.thumb
 479              		.thumb_func
 480              		.type	JOYSTICK_ADC_XY_SetOffset, %function
 481              	JOYSTICK_ADC_XY_SetOffset:
 482              	.LFB10:
 420:Generated_Source\PSoC5/JOYSTICK_ADC_XY.c **** 
 421:Generated_Source\PSoC5/JOYSTICK_ADC_XY.c **** 
 422:Generated_Source\PSoC5/JOYSTICK_ADC_XY.c **** /*******************************************************************************
 423:Generated_Source\PSoC5/JOYSTICK_ADC_XY.c **** * Function Name: JOYSTICK_ADC_XY_SetOffset
 424:Generated_Source\PSoC5/JOYSTICK_ADC_XY.c **** ********************************************************************************
 425:Generated_Source\PSoC5/JOYSTICK_ADC_XY.c **** *
 426:Generated_Source\PSoC5/JOYSTICK_ADC_XY.c **** * Summary:
 427:Generated_Source\PSoC5/JOYSTICK_ADC_XY.c **** *  Sets the ADC offset which is used by the functions _CountsTo_uVolts(),
 428:Generated_Source\PSoC5/JOYSTICK_ADC_XY.c **** *  _CountsTo_mVolts() and _CountsTo_Volts() to substract the offset from the
 429:Generated_Source\PSoC5/JOYSTICK_ADC_XY.c **** *  given reading before calculating the voltage conversion
 430:Generated_Source\PSoC5/JOYSTICK_ADC_XY.c **** *
ARM GAS  C:\Users\Asus\AppData\Local\Temp\ccwRUyhH.s 			page 17


 431:Generated_Source\PSoC5/JOYSTICK_ADC_XY.c **** * Parameters:
 432:Generated_Source\PSoC5/JOYSTICK_ADC_XY.c **** *  offset: This value is measured when the inputs are shorted or connected to
 433:Generated_Source\PSoC5/JOYSTICK_ADC_XY.c **** *  the same input voltage
 434:Generated_Source\PSoC5/JOYSTICK_ADC_XY.c **** *
 435:Generated_Source\PSoC5/JOYSTICK_ADC_XY.c **** * Return:
 436:Generated_Source\PSoC5/JOYSTICK_ADC_XY.c **** *  None.
 437:Generated_Source\PSoC5/JOYSTICK_ADC_XY.c **** *
 438:Generated_Source\PSoC5/JOYSTICK_ADC_XY.c **** * Side Effects:
 439:Generated_Source\PSoC5/JOYSTICK_ADC_XY.c **** *  Affects JOYSTICK_ADC_XY_CountsTo_Volts(), 
 440:Generated_Source\PSoC5/JOYSTICK_ADC_XY.c **** *  JOYSTICK_ADC_XY_CountsTo_mVolts(), and JOYSTICK_ADC_XY_CountsTo_uVolts() 
 441:Generated_Source\PSoC5/JOYSTICK_ADC_XY.c **** *  by subtracting the given offset.
 442:Generated_Source\PSoC5/JOYSTICK_ADC_XY.c **** *
 443:Generated_Source\PSoC5/JOYSTICK_ADC_XY.c **** * Reentrant:
 444:Generated_Source\PSoC5/JOYSTICK_ADC_XY.c **** *  No.
 445:Generated_Source\PSoC5/JOYSTICK_ADC_XY.c **** *
 446:Generated_Source\PSoC5/JOYSTICK_ADC_XY.c **** *******************************************************************************/
 447:Generated_Source\PSoC5/JOYSTICK_ADC_XY.c **** void JOYSTICK_ADC_XY_SetOffset(int32 offset)
 448:Generated_Source\PSoC5/JOYSTICK_ADC_XY.c **** {
 483              		.loc 1 448 0
 484              		.cfi_startproc
 485              		@ args = 0, pretend = 0, frame = 0
 486              		@ frame_needed = 0, uses_anonymous_args = 0
 487              	.LVL35:
 488 0000 08B5     		push	{r3, lr}
 489              		.cfi_def_cfa_offset 8
 490              		.cfi_offset 3, -8
 491              		.cfi_offset 14, -4
 449:Generated_Source\PSoC5/JOYSTICK_ADC_XY.c ****     JOYSTICK_ADC_XY_SAR_SetOffset((int16)offset);
 492              		.loc 1 449 0
 493 0002 00B2     		sxth	r0, r0
 494              	.LVL36:
 495 0004 FFF7FEFF 		bl	JOYSTICK_ADC_XY_SAR_SetOffset
 496              	.LVL37:
 497 0008 08BD     		pop	{r3, pc}
 498              		.cfi_endproc
 499              	.LFE10:
 500              		.size	JOYSTICK_ADC_XY_SetOffset, .-JOYSTICK_ADC_XY_SetOffset
 501              		.section	.text.JOYSTICK_ADC_XY_SetResolution,"ax",%progbits
 502              		.align	2
 503              		.global	JOYSTICK_ADC_XY_SetResolution
 504              		.thumb
 505              		.thumb_func
 506              		.type	JOYSTICK_ADC_XY_SetResolution, %function
 507              	JOYSTICK_ADC_XY_SetResolution:
 508              	.LFB11:
 450:Generated_Source\PSoC5/JOYSTICK_ADC_XY.c **** }
 451:Generated_Source\PSoC5/JOYSTICK_ADC_XY.c **** 
 452:Generated_Source\PSoC5/JOYSTICK_ADC_XY.c **** 
 453:Generated_Source\PSoC5/JOYSTICK_ADC_XY.c **** /*******************************************************************************
 454:Generated_Source\PSoC5/JOYSTICK_ADC_XY.c **** * Function Name: JOYSTICK_ADC_XY_SetResolution
 455:Generated_Source\PSoC5/JOYSTICK_ADC_XY.c **** ********************************************************************************
 456:Generated_Source\PSoC5/JOYSTICK_ADC_XY.c **** *
 457:Generated_Source\PSoC5/JOYSTICK_ADC_XY.c **** * Summary:
 458:Generated_Source\PSoC5/JOYSTICK_ADC_XY.c **** *  Sets the Relution of the SAR.
 459:Generated_Source\PSoC5/JOYSTICK_ADC_XY.c **** *  This function does not affect the actual conversion with PSoC5 ES1 silicon.
 460:Generated_Source\PSoC5/JOYSTICK_ADC_XY.c **** *
 461:Generated_Source\PSoC5/JOYSTICK_ADC_XY.c **** * Parameters:
ARM GAS  C:\Users\Asus\AppData\Local\Temp\ccwRUyhH.s 			page 18


 462:Generated_Source\PSoC5/JOYSTICK_ADC_XY.c **** *  resolution:
 463:Generated_Source\PSoC5/JOYSTICK_ADC_XY.c **** *  12 ->    RES12
 464:Generated_Source\PSoC5/JOYSTICK_ADC_XY.c **** *  10 ->    RES10
 465:Generated_Source\PSoC5/JOYSTICK_ADC_XY.c **** *  8  ->    RES8
 466:Generated_Source\PSoC5/JOYSTICK_ADC_XY.c **** *
 467:Generated_Source\PSoC5/JOYSTICK_ADC_XY.c **** * Return:
 468:Generated_Source\PSoC5/JOYSTICK_ADC_XY.c **** *  None.
 469:Generated_Source\PSoC5/JOYSTICK_ADC_XY.c **** *
 470:Generated_Source\PSoC5/JOYSTICK_ADC_XY.c **** * Side Effects:
 471:Generated_Source\PSoC5/JOYSTICK_ADC_XY.c **** *  The ADC_SAR_Seq resolution cannot be changed during a conversion cycle. The
 472:Generated_Source\PSoC5/JOYSTICK_ADC_XY.c **** *  recommended best practice is to stop conversions with
 473:Generated_Source\PSoC5/JOYSTICK_ADC_XY.c **** *  JOYSTICK_ADC_XY_StopConvert(), change the resolution, then restart the
 474:Generated_Source\PSoC5/JOYSTICK_ADC_XY.c **** *  conversions with JOYSTICK_ADC_XY_StartConvert().
 475:Generated_Source\PSoC5/JOYSTICK_ADC_XY.c **** *  If you decide not to stop conversions before calling this API, you
 476:Generated_Source\PSoC5/JOYSTICK_ADC_XY.c **** *  should use JOYSTICK_ADC_XY_IsEndConversion() to wait until conversion is 
 477:Generated_Source\PSoC5/JOYSTICK_ADC_XY.c **** *  complete  before changing the resolution.
 478:Generated_Source\PSoC5/JOYSTICK_ADC_XY.c **** *  If you call ADC_SetResolution() during a conversion, the resolution will
 479:Generated_Source\PSoC5/JOYSTICK_ADC_XY.c **** *  not be changed until the current conversion is complete. Data will not be
 480:Generated_Source\PSoC5/JOYSTICK_ADC_XY.c **** *  available in the new resolution for another 6 + "New Resolution(in bits)"
 481:Generated_Source\PSoC5/JOYSTICK_ADC_XY.c **** *  clock cycles.
 482:Generated_Source\PSoC5/JOYSTICK_ADC_XY.c **** *  You may need add a delay of this number of clock cycles after
 483:Generated_Source\PSoC5/JOYSTICK_ADC_XY.c **** *  JOYSTICK_ADC_XY_SetResolution() is called before data is valid again.
 484:Generated_Source\PSoC5/JOYSTICK_ADC_XY.c **** *  Affects JOYSTICK_ADC_XY_CountsTo_Volts(), JOYSTICK_ADC_XY_CountsTo_mVolts(), 
 485:Generated_Source\PSoC5/JOYSTICK_ADC_XY.c **** *  and JOYSTICK_ADC_XY_CountsTo_uVolts() by calculating the correct conversion 
 486:Generated_Source\PSoC5/JOYSTICK_ADC_XY.c **** *  between ADC counts and the applied input voltage. Calculation depends on 
 487:Generated_Source\PSoC5/JOYSTICK_ADC_XY.c **** *  resolution, input range, and voltage reference.
 488:Generated_Source\PSoC5/JOYSTICK_ADC_XY.c **** *
 489:Generated_Source\PSoC5/JOYSTICK_ADC_XY.c **** *******************************************************************************/
 490:Generated_Source\PSoC5/JOYSTICK_ADC_XY.c **** void JOYSTICK_ADC_XY_SetResolution(uint8 resolution)
 491:Generated_Source\PSoC5/JOYSTICK_ADC_XY.c **** {
 509              		.loc 1 491 0
 510              		.cfi_startproc
 511              		@ args = 0, pretend = 0, frame = 0
 512              		@ frame_needed = 0, uses_anonymous_args = 0
 513              	.LVL38:
 514 0000 08B5     		push	{r3, lr}
 515              		.cfi_def_cfa_offset 8
 516              		.cfi_offset 3, -8
 517              		.cfi_offset 14, -4
 492:Generated_Source\PSoC5/JOYSTICK_ADC_XY.c ****     JOYSTICK_ADC_XY_SAR_SetResolution(resolution);
 518              		.loc 1 492 0
 519 0002 FFF7FEFF 		bl	JOYSTICK_ADC_XY_SAR_SetResolution
 520              	.LVL39:
 521 0006 08BD     		pop	{r3, pc}
 522              		.cfi_endproc
 523              	.LFE11:
 524              		.size	JOYSTICK_ADC_XY_SetResolution, .-JOYSTICK_ADC_XY_SetResolution
 525              		.section	.text.JOYSTICK_ADC_XY_SetGain,"ax",%progbits
 526              		.align	2
 527              		.global	JOYSTICK_ADC_XY_SetGain
 528              		.thumb
 529              		.thumb_func
 530              		.type	JOYSTICK_ADC_XY_SetGain, %function
 531              	JOYSTICK_ADC_XY_SetGain:
 532              	.LFB12:
 493:Generated_Source\PSoC5/JOYSTICK_ADC_XY.c **** }
 494:Generated_Source\PSoC5/JOYSTICK_ADC_XY.c **** 
ARM GAS  C:\Users\Asus\AppData\Local\Temp\ccwRUyhH.s 			page 19


 495:Generated_Source\PSoC5/JOYSTICK_ADC_XY.c **** 
 496:Generated_Source\PSoC5/JOYSTICK_ADC_XY.c **** /*******************************************************************************
 497:Generated_Source\PSoC5/JOYSTICK_ADC_XY.c **** * Function Name: JOYSTICK_ADC_XY_SetGain
 498:Generated_Source\PSoC5/JOYSTICK_ADC_XY.c **** ********************************************************************************
 499:Generated_Source\PSoC5/JOYSTICK_ADC_XY.c **** *
 500:Generated_Source\PSoC5/JOYSTICK_ADC_XY.c **** * Summary:
 501:Generated_Source\PSoC5/JOYSTICK_ADC_XY.c **** *  Sets the ADC gain in counts per volt for the voltage conversion
 502:Generated_Source\PSoC5/JOYSTICK_ADC_XY.c **** *
 503:Generated_Source\PSoC5/JOYSTICK_ADC_XY.c **** * Parameters:
 504:Generated_Source\PSoC5/JOYSTICK_ADC_XY.c **** *  adcGain: counts per volt
 505:Generated_Source\PSoC5/JOYSTICK_ADC_XY.c **** *
 506:Generated_Source\PSoC5/JOYSTICK_ADC_XY.c **** * Return:
 507:Generated_Source\PSoC5/JOYSTICK_ADC_XY.c **** *  None.
 508:Generated_Source\PSoC5/JOYSTICK_ADC_XY.c **** *
 509:Generated_Source\PSoC5/JOYSTICK_ADC_XY.c **** * Side Effects:
 510:Generated_Source\PSoC5/JOYSTICK_ADC_XY.c **** *  None.
 511:Generated_Source\PSoC5/JOYSTICK_ADC_XY.c **** *
 512:Generated_Source\PSoC5/JOYSTICK_ADC_XY.c **** * Reentrant:
 513:Generated_Source\PSoC5/JOYSTICK_ADC_XY.c **** *  No.
 514:Generated_Source\PSoC5/JOYSTICK_ADC_XY.c **** *
 515:Generated_Source\PSoC5/JOYSTICK_ADC_XY.c **** *******************************************************************************/
 516:Generated_Source\PSoC5/JOYSTICK_ADC_XY.c **** void JOYSTICK_ADC_XY_SetGain(int32 adcGain)
 517:Generated_Source\PSoC5/JOYSTICK_ADC_XY.c **** {
 533              		.loc 1 517 0
 534              		.cfi_startproc
 535              		@ args = 0, pretend = 0, frame = 0
 536              		@ frame_needed = 0, uses_anonymous_args = 0
 537              	.LVL40:
 538 0000 08B5     		push	{r3, lr}
 539              		.cfi_def_cfa_offset 8
 540              		.cfi_offset 3, -8
 541              		.cfi_offset 14, -4
 518:Generated_Source\PSoC5/JOYSTICK_ADC_XY.c ****     JOYSTICK_ADC_XY_SAR_SetGain((int16)adcGain);
 542              		.loc 1 518 0
 543 0002 00B2     		sxth	r0, r0
 544              	.LVL41:
 545 0004 FFF7FEFF 		bl	JOYSTICK_ADC_XY_SAR_SetGain
 546              	.LVL42:
 547 0008 08BD     		pop	{r3, pc}
 548              		.cfi_endproc
 549              	.LFE12:
 550              		.size	JOYSTICK_ADC_XY_SetGain, .-JOYSTICK_ADC_XY_SetGain
 551              		.section	.text.JOYSTICK_ADC_XY_SetScaledGain,"ax",%progbits
 552              		.align	2
 553              		.global	JOYSTICK_ADC_XY_SetScaledGain
 554              		.thumb
 555              		.thumb_func
 556              		.type	JOYSTICK_ADC_XY_SetScaledGain, %function
 557              	JOYSTICK_ADC_XY_SetScaledGain:
 558              	.LFB13:
 519:Generated_Source\PSoC5/JOYSTICK_ADC_XY.c **** }
 520:Generated_Source\PSoC5/JOYSTICK_ADC_XY.c **** 
 521:Generated_Source\PSoC5/JOYSTICK_ADC_XY.c **** 
 522:Generated_Source\PSoC5/JOYSTICK_ADC_XY.c **** /*******************************************************************************
 523:Generated_Source\PSoC5/JOYSTICK_ADC_XY.c **** * Function Name: JOYSTICK_ADC_XY_SetScaledGain
 524:Generated_Source\PSoC5/JOYSTICK_ADC_XY.c **** ********************************************************************************
 525:Generated_Source\PSoC5/JOYSTICK_ADC_XY.c **** *
ARM GAS  C:\Users\Asus\AppData\Local\Temp\ccwRUyhH.s 			page 20


 526:Generated_Source\PSoC5/JOYSTICK_ADC_XY.c **** * Summary:
 527:Generated_Source\PSoC5/JOYSTICK_ADC_XY.c **** *  Sets the ADC gain in counts per 10 volts for the voltage conversion functions
 528:Generated_Source\PSoC5/JOYSTICK_ADC_XY.c **** *  that follow. This value is set by default by the reference and input range
 529:Generated_Source\PSoC5/JOYSTICK_ADC_XY.c **** *  settings. It should only be used to further calibrate the ADC with a known
 530:Generated_Source\PSoC5/JOYSTICK_ADC_XY.c **** *  input or if the ADC is using an external reference.
 531:Generated_Source\PSoC5/JOYSTICK_ADC_XY.c **** *
 532:Generated_Source\PSoC5/JOYSTICK_ADC_XY.c **** * Parameters:
 533:Generated_Source\PSoC5/JOYSTICK_ADC_XY.c **** *  int32  adcGain  counts per 10 volt
 534:Generated_Source\PSoC5/JOYSTICK_ADC_XY.c **** *
 535:Generated_Source\PSoC5/JOYSTICK_ADC_XY.c **** * Return:
 536:Generated_Source\PSoC5/JOYSTICK_ADC_XY.c **** *  None.
 537:Generated_Source\PSoC5/JOYSTICK_ADC_XY.c **** *
 538:Generated_Source\PSoC5/JOYSTICK_ADC_XY.c **** * Side Effects:
 539:Generated_Source\PSoC5/JOYSTICK_ADC_XY.c **** *  Affects JOYSTICK_ADC_XY_CountsTo_Volts(), JOYSTICK_ADC_XY_CountsTo_mVolts(),
 540:Generated_Source\PSoC5/JOYSTICK_ADC_XY.c **** *  JOYSTICK_ADC_XY_CountsTo_uVolts() by supplying the correct conversion 
 541:Generated_Source\PSoC5/JOYSTICK_ADC_XY.c **** *  between ADC counts and the applied input voltage
 542:Generated_Source\PSoC5/JOYSTICK_ADC_XY.c **** *
 543:Generated_Source\PSoC5/JOYSTICK_ADC_XY.c **** * Reentrant:
 544:Generated_Source\PSoC5/JOYSTICK_ADC_XY.c **** *  No.
 545:Generated_Source\PSoC5/JOYSTICK_ADC_XY.c **** *
 546:Generated_Source\PSoC5/JOYSTICK_ADC_XY.c **** *******************************************************************************/
 547:Generated_Source\PSoC5/JOYSTICK_ADC_XY.c **** void JOYSTICK_ADC_XY_SetScaledGain(int32 adcGain)
 548:Generated_Source\PSoC5/JOYSTICK_ADC_XY.c **** {
 559              		.loc 1 548 0
 560              		.cfi_startproc
 561              		@ args = 0, pretend = 0, frame = 0
 562              		@ frame_needed = 0, uses_anonymous_args = 0
 563              	.LVL43:
 564 0000 08B5     		push	{r3, lr}
 565              		.cfi_def_cfa_offset 8
 566              		.cfi_offset 3, -8
 567              		.cfi_offset 14, -4
 549:Generated_Source\PSoC5/JOYSTICK_ADC_XY.c ****     JOYSTICK_ADC_XY_SAR_SetScaledGain(adcGain);
 568              		.loc 1 549 0
 569 0002 FFF7FEFF 		bl	JOYSTICK_ADC_XY_SAR_SetScaledGain
 570              	.LVL44:
 571 0006 08BD     		pop	{r3, pc}
 572              		.cfi_endproc
 573              	.LFE13:
 574              		.size	JOYSTICK_ADC_XY_SetScaledGain, .-JOYSTICK_ADC_XY_SetScaledGain
 575              		.section	.text.JOYSTICK_ADC_XY_CountsTo_mVolts,"ax",%progbits
 576              		.align	2
 577              		.global	JOYSTICK_ADC_XY_CountsTo_mVolts
 578              		.thumb
 579              		.thumb_func
 580              		.type	JOYSTICK_ADC_XY_CountsTo_mVolts, %function
 581              	JOYSTICK_ADC_XY_CountsTo_mVolts:
 582              	.LFB14:
 550:Generated_Source\PSoC5/JOYSTICK_ADC_XY.c **** }
 551:Generated_Source\PSoC5/JOYSTICK_ADC_XY.c **** 
 552:Generated_Source\PSoC5/JOYSTICK_ADC_XY.c **** 
 553:Generated_Source\PSoC5/JOYSTICK_ADC_XY.c **** /*******************************************************************************
 554:Generated_Source\PSoC5/JOYSTICK_ADC_XY.c **** * Function Name: JOYSTICK_ADC_XY_CountsTo_mVolts
 555:Generated_Source\PSoC5/JOYSTICK_ADC_XY.c **** ********************************************************************************
 556:Generated_Source\PSoC5/JOYSTICK_ADC_XY.c **** *
 557:Generated_Source\PSoC5/JOYSTICK_ADC_XY.c **** * Summary:
 558:Generated_Source\PSoC5/JOYSTICK_ADC_XY.c **** *  Converts the ADC output to mVolts as a 32-bit integer
ARM GAS  C:\Users\Asus\AppData\Local\Temp\ccwRUyhH.s 			page 21


 559:Generated_Source\PSoC5/JOYSTICK_ADC_XY.c **** *
 560:Generated_Source\PSoC5/JOYSTICK_ADC_XY.c **** * Parameters:
 561:Generated_Source\PSoC5/JOYSTICK_ADC_XY.c **** *  adcCounts: Result from the ADC_SAR_Seq conversion
 562:Generated_Source\PSoC5/JOYSTICK_ADC_XY.c **** *
 563:Generated_Source\PSoC5/JOYSTICK_ADC_XY.c **** * Return:
 564:Generated_Source\PSoC5/JOYSTICK_ADC_XY.c **** *  Result in mV
 565:Generated_Source\PSoC5/JOYSTICK_ADC_XY.c **** *
 566:Generated_Source\PSoC5/JOYSTICK_ADC_XY.c **** * Side Effects:
 567:Generated_Source\PSoC5/JOYSTICK_ADC_XY.c **** *  None.
 568:Generated_Source\PSoC5/JOYSTICK_ADC_XY.c **** *
 569:Generated_Source\PSoC5/JOYSTICK_ADC_XY.c **** * Reentrant:
 570:Generated_Source\PSoC5/JOYSTICK_ADC_XY.c **** *  No.
 571:Generated_Source\PSoC5/JOYSTICK_ADC_XY.c **** *
 572:Generated_Source\PSoC5/JOYSTICK_ADC_XY.c **** *******************************************************************************/
 573:Generated_Source\PSoC5/JOYSTICK_ADC_XY.c **** int32 JOYSTICK_ADC_XY_CountsTo_mVolts(int16 adcCounts)
 574:Generated_Source\PSoC5/JOYSTICK_ADC_XY.c **** {
 583              		.loc 1 574 0
 584              		.cfi_startproc
 585              		@ args = 0, pretend = 0, frame = 0
 586              		@ frame_needed = 0, uses_anonymous_args = 0
 587              	.LVL45:
 588 0000 08B5     		push	{r3, lr}
 589              		.cfi_def_cfa_offset 8
 590              		.cfi_offset 3, -8
 591              		.cfi_offset 14, -4
 575:Generated_Source\PSoC5/JOYSTICK_ADC_XY.c ****     return ((int32) JOYSTICK_ADC_XY_SAR_CountsTo_mVolts(adcCounts));
 592              		.loc 1 575 0
 593 0002 FFF7FEFF 		bl	JOYSTICK_ADC_XY_SAR_CountsTo_mVolts
 594              	.LVL46:
 576:Generated_Source\PSoC5/JOYSTICK_ADC_XY.c **** }
 595              		.loc 1 576 0
 596 0006 08BD     		pop	{r3, pc}
 597              		.cfi_endproc
 598              	.LFE14:
 599              		.size	JOYSTICK_ADC_XY_CountsTo_mVolts, .-JOYSTICK_ADC_XY_CountsTo_mVolts
 600              		.section	.text.JOYSTICK_ADC_XY_CountsTo_uVolts,"ax",%progbits
 601              		.align	2
 602              		.global	JOYSTICK_ADC_XY_CountsTo_uVolts
 603              		.thumb
 604              		.thumb_func
 605              		.type	JOYSTICK_ADC_XY_CountsTo_uVolts, %function
 606              	JOYSTICK_ADC_XY_CountsTo_uVolts:
 607              	.LFB15:
 577:Generated_Source\PSoC5/JOYSTICK_ADC_XY.c **** 
 578:Generated_Source\PSoC5/JOYSTICK_ADC_XY.c **** 
 579:Generated_Source\PSoC5/JOYSTICK_ADC_XY.c **** /*******************************************************************************
 580:Generated_Source\PSoC5/JOYSTICK_ADC_XY.c **** * Function Name: JOYSTICK_ADC_XY_CountsTo_uVolts
 581:Generated_Source\PSoC5/JOYSTICK_ADC_XY.c **** ********************************************************************************
 582:Generated_Source\PSoC5/JOYSTICK_ADC_XY.c **** *
 583:Generated_Source\PSoC5/JOYSTICK_ADC_XY.c **** * Summary:
 584:Generated_Source\PSoC5/JOYSTICK_ADC_XY.c **** *  Converts the ADC output to uVolts as a 32-bit integer
 585:Generated_Source\PSoC5/JOYSTICK_ADC_XY.c **** *
 586:Generated_Source\PSoC5/JOYSTICK_ADC_XY.c **** * Parameters:
 587:Generated_Source\PSoC5/JOYSTICK_ADC_XY.c **** *  adcCounts: Result from the ADC conversion
 588:Generated_Source\PSoC5/JOYSTICK_ADC_XY.c **** *
 589:Generated_Source\PSoC5/JOYSTICK_ADC_XY.c **** * Return:
 590:Generated_Source\PSoC5/JOYSTICK_ADC_XY.c **** *  Result in uV
ARM GAS  C:\Users\Asus\AppData\Local\Temp\ccwRUyhH.s 			page 22


 591:Generated_Source\PSoC5/JOYSTICK_ADC_XY.c **** *
 592:Generated_Source\PSoC5/JOYSTICK_ADC_XY.c **** * Side Effects:
 593:Generated_Source\PSoC5/JOYSTICK_ADC_XY.c **** *  None.
 594:Generated_Source\PSoC5/JOYSTICK_ADC_XY.c **** *
 595:Generated_Source\PSoC5/JOYSTICK_ADC_XY.c **** * Reentrant:
 596:Generated_Source\PSoC5/JOYSTICK_ADC_XY.c **** *  No.
 597:Generated_Source\PSoC5/JOYSTICK_ADC_XY.c **** *
 598:Generated_Source\PSoC5/JOYSTICK_ADC_XY.c **** *******************************************************************************/
 599:Generated_Source\PSoC5/JOYSTICK_ADC_XY.c **** int32 JOYSTICK_ADC_XY_CountsTo_uVolts(int16 adcCounts)
 600:Generated_Source\PSoC5/JOYSTICK_ADC_XY.c **** {
 608              		.loc 1 600 0
 609              		.cfi_startproc
 610              		@ args = 0, pretend = 0, frame = 0
 611              		@ frame_needed = 0, uses_anonymous_args = 0
 612              	.LVL47:
 613 0000 08B5     		push	{r3, lr}
 614              		.cfi_def_cfa_offset 8
 615              		.cfi_offset 3, -8
 616              		.cfi_offset 14, -4
 601:Generated_Source\PSoC5/JOYSTICK_ADC_XY.c ****     return (JOYSTICK_ADC_XY_SAR_CountsTo_uVolts(adcCounts));
 617              		.loc 1 601 0
 618 0002 FFF7FEFF 		bl	JOYSTICK_ADC_XY_SAR_CountsTo_uVolts
 619              	.LVL48:
 602:Generated_Source\PSoC5/JOYSTICK_ADC_XY.c **** }
 620              		.loc 1 602 0
 621 0006 08BD     		pop	{r3, pc}
 622              		.cfi_endproc
 623              	.LFE15:
 624              		.size	JOYSTICK_ADC_XY_CountsTo_uVolts, .-JOYSTICK_ADC_XY_CountsTo_uVolts
 625              		.section	.text.JOYSTICK_ADC_XY_CountsTo_Volts,"ax",%progbits
 626              		.align	2
 627              		.global	JOYSTICK_ADC_XY_CountsTo_Volts
 628              		.thumb
 629              		.thumb_func
 630              		.type	JOYSTICK_ADC_XY_CountsTo_Volts, %function
 631              	JOYSTICK_ADC_XY_CountsTo_Volts:
 632              	.LFB16:
 603:Generated_Source\PSoC5/JOYSTICK_ADC_XY.c **** 
 604:Generated_Source\PSoC5/JOYSTICK_ADC_XY.c **** 
 605:Generated_Source\PSoC5/JOYSTICK_ADC_XY.c **** /*******************************************************************************
 606:Generated_Source\PSoC5/JOYSTICK_ADC_XY.c **** * Function Name: JOYSTICK_ADC_XY_CountsTo_Volts
 607:Generated_Source\PSoC5/JOYSTICK_ADC_XY.c **** ********************************************************************************
 608:Generated_Source\PSoC5/JOYSTICK_ADC_XY.c **** *
 609:Generated_Source\PSoC5/JOYSTICK_ADC_XY.c **** * Summary:
 610:Generated_Source\PSoC5/JOYSTICK_ADC_XY.c **** *  Converts the ADC output to Volts as a floating point number
 611:Generated_Source\PSoC5/JOYSTICK_ADC_XY.c **** *
 612:Generated_Source\PSoC5/JOYSTICK_ADC_XY.c **** * Parameters:
 613:Generated_Source\PSoC5/JOYSTICK_ADC_XY.c **** *  adcCounts: Result from the ADC_SAR_Seq conversion
 614:Generated_Source\PSoC5/JOYSTICK_ADC_XY.c **** *
 615:Generated_Source\PSoC5/JOYSTICK_ADC_XY.c **** * Return:
 616:Generated_Source\PSoC5/JOYSTICK_ADC_XY.c **** *  Result in volts
 617:Generated_Source\PSoC5/JOYSTICK_ADC_XY.c **** *
 618:Generated_Source\PSoC5/JOYSTICK_ADC_XY.c **** * Side Effects:
 619:Generated_Source\PSoC5/JOYSTICK_ADC_XY.c **** *  None.
 620:Generated_Source\PSoC5/JOYSTICK_ADC_XY.c **** *
 621:Generated_Source\PSoC5/JOYSTICK_ADC_XY.c **** * Reentrant:
 622:Generated_Source\PSoC5/JOYSTICK_ADC_XY.c **** *  No.
ARM GAS  C:\Users\Asus\AppData\Local\Temp\ccwRUyhH.s 			page 23


 623:Generated_Source\PSoC5/JOYSTICK_ADC_XY.c **** *
 624:Generated_Source\PSoC5/JOYSTICK_ADC_XY.c **** *******************************************************************************/
 625:Generated_Source\PSoC5/JOYSTICK_ADC_XY.c **** float32 JOYSTICK_ADC_XY_CountsTo_Volts(int16 adcCounts)
 626:Generated_Source\PSoC5/JOYSTICK_ADC_XY.c **** {
 633              		.loc 1 626 0
 634              		.cfi_startproc
 635              		@ args = 0, pretend = 0, frame = 0
 636              		@ frame_needed = 0, uses_anonymous_args = 0
 637              	.LVL49:
 638 0000 08B5     		push	{r3, lr}
 639              		.cfi_def_cfa_offset 8
 640              		.cfi_offset 3, -8
 641              		.cfi_offset 14, -4
 627:Generated_Source\PSoC5/JOYSTICK_ADC_XY.c ****     return (JOYSTICK_ADC_XY_SAR_CountsTo_Volts(adcCounts));
 642              		.loc 1 627 0
 643 0002 FFF7FEFF 		bl	JOYSTICK_ADC_XY_SAR_CountsTo_Volts
 644              	.LVL50:
 628:Generated_Source\PSoC5/JOYSTICK_ADC_XY.c **** }
 645              		.loc 1 628 0
 646 0006 08BD     		pop	{r3, pc}
 647              		.cfi_endproc
 648              	.LFE16:
 649              		.size	JOYSTICK_ADC_XY_CountsTo_Volts, .-JOYSTICK_ADC_XY_CountsTo_Volts
 650              		.global	JOYSTICK_ADC_XY_initVar
 651              		.comm	JOYSTICK_ADC_XY_finalArray,4,4
 652              		.data
 653              		.set	.LANCHOR1,. + 0
 654              		.type	JOYSTICK_ADC_XY_tempTD, %object
 655              		.size	JOYSTICK_ADC_XY_tempTD, 1
 656              	JOYSTICK_ADC_XY_tempTD:
 657 0000 FF       		.byte	-1
 658              		.type	JOYSTICK_ADC_XY_finalTD, %object
 659              		.size	JOYSTICK_ADC_XY_finalTD, 1
 660              	JOYSTICK_ADC_XY_finalTD:
 661 0001 FF       		.byte	-1
 662              		.bss
 663              		.align	2
 664              		.set	.LANCHOR0,. + 0
 665              		.type	JOYSTICK_ADC_XY_tempChan, %object
 666              		.size	JOYSTICK_ADC_XY_tempChan, 1
 667              	JOYSTICK_ADC_XY_tempChan:
 668 0000 00       		.space	1
 669              		.type	JOYSTICK_ADC_XY_finalChan, %object
 670              		.size	JOYSTICK_ADC_XY_finalChan, 1
 671              	JOYSTICK_ADC_XY_finalChan:
 672 0001 00       		.space	1
 673 0002 0000     		.space	2
 674              		.type	JOYSTICK_ADC_XY_tempArray.5179, %object
 675              		.size	JOYSTICK_ADC_XY_tempArray.5179, 4
 676              	JOYSTICK_ADC_XY_tempArray.5179:
 677 0004 00000000 		.space	4
 678              		.type	JOYSTICK_ADC_XY_initVar, %object
 679              		.size	JOYSTICK_ADC_XY_initVar, 4
 680              	JOYSTICK_ADC_XY_initVar:
 681 0008 00000000 		.space	4
 682              		.text
 683              	.Letext0:
ARM GAS  C:\Users\Asus\AppData\Local\Temp\ccwRUyhH.s 			page 24


 684              		.file 2 "Generated_Source\\PSoC5\\cytypes.h"
 685              		.file 3 "Generated_Source\\PSoC5\\JOYSTICK_ADC_XY_SAR.h"
 686              		.file 4 "Generated_Source\\PSoC5/CYDMAC.H"
 687              		.file 5 "Generated_Source\\PSoC5\\JOYSTICK_ADC_XY_TempBuf_dma.h"
 688              		.file 6 "Generated_Source\\PSoC5\\JOYSTICK_ADC_XY_FinalBuf_dma.h"
 689              		.file 7 "Generated_Source\\PSoC5\\JOYSTICK_ADC_XY_IRQ.h"
 690              		.file 8 "Generated_Source\\PSoC5\\CyLib.h"