ARM GAS  C:\Users\Asus\AppData\Local\Temp\ccBH8iPb.s 			page 1


   1              		.syntax unified
   2              		.cpu cortex-m3
   3              		.fpu softvfp
   4              		.eabi_attribute 20, 1
   5              		.eabi_attribute 21, 1
   6              		.eabi_attribute 23, 3
   7              		.eabi_attribute 24, 1
   8              		.eabi_attribute 25, 1
   9              		.eabi_attribute 26, 1
  10              		.eabi_attribute 30, 1
  11              		.eabi_attribute 34, 1
  12              		.eabi_attribute 18, 4
  13              		.thumb
  14              		.syntax unified
  15              		.file	"RGB_PWM_blue.c"
  16              		.text
  17              	.Ltext0:
  18              		.cfi_sections	.debug_frame
  19              		.section	.text.RGB_PWM_blue_Enable,"ax",%progbits
  20              		.align	2
  21              		.global	RGB_PWM_blue_Enable
  22              		.thumb
  23              		.thumb_func
  24              		.type	RGB_PWM_blue_Enable, %function
  25              	RGB_PWM_blue_Enable:
  26              	.LFB2:
  27              		.file 1 "Generated_Source\\PSoC5\\RGB_PWM_blue.c"
   1:Generated_Source\PSoC5/RGB_PWM_blue.c **** /*******************************************************************************
   2:Generated_Source\PSoC5/RGB_PWM_blue.c **** * File Name: RGB_PWM_blue.c
   3:Generated_Source\PSoC5/RGB_PWM_blue.c **** * Version 3.30
   4:Generated_Source\PSoC5/RGB_PWM_blue.c **** *
   5:Generated_Source\PSoC5/RGB_PWM_blue.c **** * Description:
   6:Generated_Source\PSoC5/RGB_PWM_blue.c **** *  The PWM User Module consist of an 8 or 16-bit counter with two 8 or 16-bit
   7:Generated_Source\PSoC5/RGB_PWM_blue.c **** *  comparitors. Each instance of this user module is capable of generating
   8:Generated_Source\PSoC5/RGB_PWM_blue.c **** *  two PWM outputs with the same period. The pulse width is selectable between
   9:Generated_Source\PSoC5/RGB_PWM_blue.c **** *  1 and 255/65535. The period is selectable between 2 and 255/65536 clocks.
  10:Generated_Source\PSoC5/RGB_PWM_blue.c **** *  The compare value output may be configured to be active when the present
  11:Generated_Source\PSoC5/RGB_PWM_blue.c **** *  counter is less than or less than/equal to the compare value.
  12:Generated_Source\PSoC5/RGB_PWM_blue.c **** *  A terminal count output is also provided. It generates a pulse one clock
  13:Generated_Source\PSoC5/RGB_PWM_blue.c **** *  width wide when the counter is equal to zero.
  14:Generated_Source\PSoC5/RGB_PWM_blue.c **** *
  15:Generated_Source\PSoC5/RGB_PWM_blue.c **** * Note:
  16:Generated_Source\PSoC5/RGB_PWM_blue.c **** *
  17:Generated_Source\PSoC5/RGB_PWM_blue.c **** *******************************************************************************
  18:Generated_Source\PSoC5/RGB_PWM_blue.c **** * Copyright 2008-2014, Cypress Semiconductor Corporation.  All rights reserved.
  19:Generated_Source\PSoC5/RGB_PWM_blue.c **** * You may use this file only in accordance with the license, terms, conditions,
  20:Generated_Source\PSoC5/RGB_PWM_blue.c **** * disclaimers, and limitations in the end user license agreement accompanying
  21:Generated_Source\PSoC5/RGB_PWM_blue.c **** * the software package with which this file was provided.
  22:Generated_Source\PSoC5/RGB_PWM_blue.c **** ********************************************************************************/
  23:Generated_Source\PSoC5/RGB_PWM_blue.c **** 
  24:Generated_Source\PSoC5/RGB_PWM_blue.c **** #include "RGB_PWM_blue.h"
  25:Generated_Source\PSoC5/RGB_PWM_blue.c **** 
  26:Generated_Source\PSoC5/RGB_PWM_blue.c **** /* Error message for removed <resource> through optimization */
  27:Generated_Source\PSoC5/RGB_PWM_blue.c **** #ifdef RGB_PWM_blue_PWMUDB_genblk1_ctrlreg__REMOVED
  28:Generated_Source\PSoC5/RGB_PWM_blue.c ****     #error PWM_v3_30 detected with a constant 0 for the enable or \
  29:Generated_Source\PSoC5/RGB_PWM_blue.c ****          constant 1 for reset. This will prevent the component from operating.
  30:Generated_Source\PSoC5/RGB_PWM_blue.c **** #endif /* RGB_PWM_blue_PWMUDB_genblk1_ctrlreg__REMOVED */
ARM GAS  C:\Users\Asus\AppData\Local\Temp\ccBH8iPb.s 			page 2


  31:Generated_Source\PSoC5/RGB_PWM_blue.c **** 
  32:Generated_Source\PSoC5/RGB_PWM_blue.c **** uint8 RGB_PWM_blue_initVar = 0u;
  33:Generated_Source\PSoC5/RGB_PWM_blue.c **** 
  34:Generated_Source\PSoC5/RGB_PWM_blue.c **** 
  35:Generated_Source\PSoC5/RGB_PWM_blue.c **** /*******************************************************************************
  36:Generated_Source\PSoC5/RGB_PWM_blue.c **** * Function Name: RGB_PWM_blue_Start
  37:Generated_Source\PSoC5/RGB_PWM_blue.c **** ********************************************************************************
  38:Generated_Source\PSoC5/RGB_PWM_blue.c **** *
  39:Generated_Source\PSoC5/RGB_PWM_blue.c **** * Summary:
  40:Generated_Source\PSoC5/RGB_PWM_blue.c **** *  The start function initializes the pwm with the default values, the
  41:Generated_Source\PSoC5/RGB_PWM_blue.c **** *  enables the counter to begin counting.  It does not enable interrupts,
  42:Generated_Source\PSoC5/RGB_PWM_blue.c **** *  the EnableInt command should be called if interrupt generation is required.
  43:Generated_Source\PSoC5/RGB_PWM_blue.c **** *
  44:Generated_Source\PSoC5/RGB_PWM_blue.c **** * Parameters:
  45:Generated_Source\PSoC5/RGB_PWM_blue.c **** *  None
  46:Generated_Source\PSoC5/RGB_PWM_blue.c **** *
  47:Generated_Source\PSoC5/RGB_PWM_blue.c **** * Return:
  48:Generated_Source\PSoC5/RGB_PWM_blue.c **** *  None
  49:Generated_Source\PSoC5/RGB_PWM_blue.c **** *
  50:Generated_Source\PSoC5/RGB_PWM_blue.c **** * Global variables:
  51:Generated_Source\PSoC5/RGB_PWM_blue.c **** *  RGB_PWM_blue_initVar: Is modified when this function is called for the
  52:Generated_Source\PSoC5/RGB_PWM_blue.c **** *   first time. Is used to ensure that initialization happens only once.
  53:Generated_Source\PSoC5/RGB_PWM_blue.c **** *
  54:Generated_Source\PSoC5/RGB_PWM_blue.c **** *******************************************************************************/
  55:Generated_Source\PSoC5/RGB_PWM_blue.c **** void RGB_PWM_blue_Start(void) 
  56:Generated_Source\PSoC5/RGB_PWM_blue.c **** {
  57:Generated_Source\PSoC5/RGB_PWM_blue.c ****     /* If not Initialized then initialize all required hardware and software */
  58:Generated_Source\PSoC5/RGB_PWM_blue.c ****     if(RGB_PWM_blue_initVar == 0u)
  59:Generated_Source\PSoC5/RGB_PWM_blue.c ****     {
  60:Generated_Source\PSoC5/RGB_PWM_blue.c ****         RGB_PWM_blue_Init();
  61:Generated_Source\PSoC5/RGB_PWM_blue.c ****         RGB_PWM_blue_initVar = 1u;
  62:Generated_Source\PSoC5/RGB_PWM_blue.c ****     }
  63:Generated_Source\PSoC5/RGB_PWM_blue.c ****     RGB_PWM_blue_Enable();
  64:Generated_Source\PSoC5/RGB_PWM_blue.c **** 
  65:Generated_Source\PSoC5/RGB_PWM_blue.c **** }
  66:Generated_Source\PSoC5/RGB_PWM_blue.c **** 
  67:Generated_Source\PSoC5/RGB_PWM_blue.c **** 
  68:Generated_Source\PSoC5/RGB_PWM_blue.c **** /*******************************************************************************
  69:Generated_Source\PSoC5/RGB_PWM_blue.c **** * Function Name: RGB_PWM_blue_Init
  70:Generated_Source\PSoC5/RGB_PWM_blue.c **** ********************************************************************************
  71:Generated_Source\PSoC5/RGB_PWM_blue.c **** *
  72:Generated_Source\PSoC5/RGB_PWM_blue.c **** * Summary:
  73:Generated_Source\PSoC5/RGB_PWM_blue.c **** *  Initialize component's parameters to the parameters set by user in the
  74:Generated_Source\PSoC5/RGB_PWM_blue.c **** *  customizer of the component placed onto schematic. Usually called in
  75:Generated_Source\PSoC5/RGB_PWM_blue.c **** *  RGB_PWM_blue_Start().
  76:Generated_Source\PSoC5/RGB_PWM_blue.c **** *
  77:Generated_Source\PSoC5/RGB_PWM_blue.c **** * Parameters:
  78:Generated_Source\PSoC5/RGB_PWM_blue.c **** *  None
  79:Generated_Source\PSoC5/RGB_PWM_blue.c **** *
  80:Generated_Source\PSoC5/RGB_PWM_blue.c **** * Return:
  81:Generated_Source\PSoC5/RGB_PWM_blue.c **** *  None
  82:Generated_Source\PSoC5/RGB_PWM_blue.c **** *
  83:Generated_Source\PSoC5/RGB_PWM_blue.c **** *******************************************************************************/
  84:Generated_Source\PSoC5/RGB_PWM_blue.c **** void RGB_PWM_blue_Init(void) 
  85:Generated_Source\PSoC5/RGB_PWM_blue.c **** {
  86:Generated_Source\PSoC5/RGB_PWM_blue.c ****     #if (RGB_PWM_blue_UsingFixedFunction || RGB_PWM_blue_UseControl)
  87:Generated_Source\PSoC5/RGB_PWM_blue.c ****         uint8 ctrl;
ARM GAS  C:\Users\Asus\AppData\Local\Temp\ccBH8iPb.s 			page 3


  88:Generated_Source\PSoC5/RGB_PWM_blue.c ****     #endif /* (RGB_PWM_blue_UsingFixedFunction || RGB_PWM_blue_UseControl) */
  89:Generated_Source\PSoC5/RGB_PWM_blue.c **** 
  90:Generated_Source\PSoC5/RGB_PWM_blue.c ****     #if(!RGB_PWM_blue_UsingFixedFunction)
  91:Generated_Source\PSoC5/RGB_PWM_blue.c ****         #if(RGB_PWM_blue_UseStatus)
  92:Generated_Source\PSoC5/RGB_PWM_blue.c ****             /* Interrupt State Backup for Critical Region*/
  93:Generated_Source\PSoC5/RGB_PWM_blue.c ****             uint8 RGB_PWM_blue_interruptState;
  94:Generated_Source\PSoC5/RGB_PWM_blue.c ****         #endif /* (RGB_PWM_blue_UseStatus) */
  95:Generated_Source\PSoC5/RGB_PWM_blue.c ****     #endif /* (!RGB_PWM_blue_UsingFixedFunction) */
  96:Generated_Source\PSoC5/RGB_PWM_blue.c **** 
  97:Generated_Source\PSoC5/RGB_PWM_blue.c ****     #if (RGB_PWM_blue_UsingFixedFunction)
  98:Generated_Source\PSoC5/RGB_PWM_blue.c ****         /* You are allowed to write the compare value (FF only) */
  99:Generated_Source\PSoC5/RGB_PWM_blue.c ****         RGB_PWM_blue_CONTROL |= RGB_PWM_blue_CFG0_MODE;
 100:Generated_Source\PSoC5/RGB_PWM_blue.c ****         #if (RGB_PWM_blue_DeadBand2_4)
 101:Generated_Source\PSoC5/RGB_PWM_blue.c ****             RGB_PWM_blue_CONTROL |= RGB_PWM_blue_CFG0_DB;
 102:Generated_Source\PSoC5/RGB_PWM_blue.c ****         #endif /* (RGB_PWM_blue_DeadBand2_4) */
 103:Generated_Source\PSoC5/RGB_PWM_blue.c **** 
 104:Generated_Source\PSoC5/RGB_PWM_blue.c ****         ctrl = RGB_PWM_blue_CONTROL3 & ((uint8 )(~RGB_PWM_blue_CTRL_CMPMODE1_MASK));
 105:Generated_Source\PSoC5/RGB_PWM_blue.c ****         RGB_PWM_blue_CONTROL3 = ctrl | RGB_PWM_blue_DEFAULT_COMPARE1_MODE;
 106:Generated_Source\PSoC5/RGB_PWM_blue.c **** 
 107:Generated_Source\PSoC5/RGB_PWM_blue.c ****          /* Clear and Set SYNCTC and SYNCCMP bits of RT1 register */
 108:Generated_Source\PSoC5/RGB_PWM_blue.c ****         RGB_PWM_blue_RT1 &= ((uint8)(~RGB_PWM_blue_RT1_MASK));
 109:Generated_Source\PSoC5/RGB_PWM_blue.c ****         RGB_PWM_blue_RT1 |= RGB_PWM_blue_SYNC;
 110:Generated_Source\PSoC5/RGB_PWM_blue.c **** 
 111:Generated_Source\PSoC5/RGB_PWM_blue.c ****         /*Enable DSI Sync all all inputs of the PWM*/
 112:Generated_Source\PSoC5/RGB_PWM_blue.c ****         RGB_PWM_blue_RT1 &= ((uint8)(~RGB_PWM_blue_SYNCDSI_MASK));
 113:Generated_Source\PSoC5/RGB_PWM_blue.c ****         RGB_PWM_blue_RT1 |= RGB_PWM_blue_SYNCDSI_EN;
 114:Generated_Source\PSoC5/RGB_PWM_blue.c **** 
 115:Generated_Source\PSoC5/RGB_PWM_blue.c ****     #elif (RGB_PWM_blue_UseControl)
 116:Generated_Source\PSoC5/RGB_PWM_blue.c ****         /* Set the default compare mode defined in the parameter */
 117:Generated_Source\PSoC5/RGB_PWM_blue.c ****         ctrl = RGB_PWM_blue_CONTROL & ((uint8)(~RGB_PWM_blue_CTRL_CMPMODE2_MASK)) &
 118:Generated_Source\PSoC5/RGB_PWM_blue.c ****                 ((uint8)(~RGB_PWM_blue_CTRL_CMPMODE1_MASK));
 119:Generated_Source\PSoC5/RGB_PWM_blue.c ****         RGB_PWM_blue_CONTROL = ctrl | RGB_PWM_blue_DEFAULT_COMPARE2_MODE |
 120:Generated_Source\PSoC5/RGB_PWM_blue.c ****                                    RGB_PWM_blue_DEFAULT_COMPARE1_MODE;
 121:Generated_Source\PSoC5/RGB_PWM_blue.c ****     #endif /* (RGB_PWM_blue_UsingFixedFunction) */
 122:Generated_Source\PSoC5/RGB_PWM_blue.c **** 
 123:Generated_Source\PSoC5/RGB_PWM_blue.c ****     #if (!RGB_PWM_blue_UsingFixedFunction)
 124:Generated_Source\PSoC5/RGB_PWM_blue.c ****         #if (RGB_PWM_blue_Resolution == 8)
 125:Generated_Source\PSoC5/RGB_PWM_blue.c ****             /* Set FIFO 0 to 1 byte register for period*/
 126:Generated_Source\PSoC5/RGB_PWM_blue.c ****             RGB_PWM_blue_AUX_CONTROLDP0 |= (RGB_PWM_blue_AUX_CTRL_FIFO0_CLR);
 127:Generated_Source\PSoC5/RGB_PWM_blue.c ****         #else /* (RGB_PWM_blue_Resolution == 16)*/
 128:Generated_Source\PSoC5/RGB_PWM_blue.c ****             /* Set FIFO 0 to 1 byte register for period */
 129:Generated_Source\PSoC5/RGB_PWM_blue.c ****             RGB_PWM_blue_AUX_CONTROLDP0 |= (RGB_PWM_blue_AUX_CTRL_FIFO0_CLR);
 130:Generated_Source\PSoC5/RGB_PWM_blue.c ****             RGB_PWM_blue_AUX_CONTROLDP1 |= (RGB_PWM_blue_AUX_CTRL_FIFO0_CLR);
 131:Generated_Source\PSoC5/RGB_PWM_blue.c ****         #endif /* (RGB_PWM_blue_Resolution == 8) */
 132:Generated_Source\PSoC5/RGB_PWM_blue.c **** 
 133:Generated_Source\PSoC5/RGB_PWM_blue.c ****         RGB_PWM_blue_WriteCounter(RGB_PWM_blue_INIT_PERIOD_VALUE);
 134:Generated_Source\PSoC5/RGB_PWM_blue.c ****     #endif /* (!RGB_PWM_blue_UsingFixedFunction) */
 135:Generated_Source\PSoC5/RGB_PWM_blue.c **** 
 136:Generated_Source\PSoC5/RGB_PWM_blue.c ****     RGB_PWM_blue_WritePeriod(RGB_PWM_blue_INIT_PERIOD_VALUE);
 137:Generated_Source\PSoC5/RGB_PWM_blue.c **** 
 138:Generated_Source\PSoC5/RGB_PWM_blue.c ****         #if (RGB_PWM_blue_UseOneCompareMode)
 139:Generated_Source\PSoC5/RGB_PWM_blue.c ****             RGB_PWM_blue_WriteCompare(RGB_PWM_blue_INIT_COMPARE_VALUE1);
 140:Generated_Source\PSoC5/RGB_PWM_blue.c ****         #else
 141:Generated_Source\PSoC5/RGB_PWM_blue.c ****             RGB_PWM_blue_WriteCompare1(RGB_PWM_blue_INIT_COMPARE_VALUE1);
 142:Generated_Source\PSoC5/RGB_PWM_blue.c ****             RGB_PWM_blue_WriteCompare2(RGB_PWM_blue_INIT_COMPARE_VALUE2);
 143:Generated_Source\PSoC5/RGB_PWM_blue.c ****         #endif /* (RGB_PWM_blue_UseOneCompareMode) */
 144:Generated_Source\PSoC5/RGB_PWM_blue.c **** 
ARM GAS  C:\Users\Asus\AppData\Local\Temp\ccBH8iPb.s 			page 4


 145:Generated_Source\PSoC5/RGB_PWM_blue.c ****         #if (RGB_PWM_blue_KillModeMinTime)
 146:Generated_Source\PSoC5/RGB_PWM_blue.c ****             RGB_PWM_blue_WriteKillTime(RGB_PWM_blue_MinimumKillTime);
 147:Generated_Source\PSoC5/RGB_PWM_blue.c ****         #endif /* (RGB_PWM_blue_KillModeMinTime) */
 148:Generated_Source\PSoC5/RGB_PWM_blue.c **** 
 149:Generated_Source\PSoC5/RGB_PWM_blue.c ****         #if (RGB_PWM_blue_DeadBandUsed)
 150:Generated_Source\PSoC5/RGB_PWM_blue.c ****             RGB_PWM_blue_WriteDeadTime(RGB_PWM_blue_INIT_DEAD_TIME);
 151:Generated_Source\PSoC5/RGB_PWM_blue.c ****         #endif /* (RGB_PWM_blue_DeadBandUsed) */
 152:Generated_Source\PSoC5/RGB_PWM_blue.c **** 
 153:Generated_Source\PSoC5/RGB_PWM_blue.c ****     #if (RGB_PWM_blue_UseStatus || RGB_PWM_blue_UsingFixedFunction)
 154:Generated_Source\PSoC5/RGB_PWM_blue.c ****         RGB_PWM_blue_SetInterruptMode(RGB_PWM_blue_INIT_INTERRUPTS_MODE);
 155:Generated_Source\PSoC5/RGB_PWM_blue.c ****     #endif /* (RGB_PWM_blue_UseStatus || RGB_PWM_blue_UsingFixedFunction) */
 156:Generated_Source\PSoC5/RGB_PWM_blue.c **** 
 157:Generated_Source\PSoC5/RGB_PWM_blue.c ****     #if (RGB_PWM_blue_UsingFixedFunction)
 158:Generated_Source\PSoC5/RGB_PWM_blue.c ****         /* Globally Enable the Fixed Function Block chosen */
 159:Generated_Source\PSoC5/RGB_PWM_blue.c ****         RGB_PWM_blue_GLOBAL_ENABLE |= RGB_PWM_blue_BLOCK_EN_MASK;
 160:Generated_Source\PSoC5/RGB_PWM_blue.c ****         /* Set the Interrupt source to come from the status register */
 161:Generated_Source\PSoC5/RGB_PWM_blue.c ****         RGB_PWM_blue_CONTROL2 |= RGB_PWM_blue_CTRL2_IRQ_SEL;
 162:Generated_Source\PSoC5/RGB_PWM_blue.c ****     #else
 163:Generated_Source\PSoC5/RGB_PWM_blue.c ****         #if(RGB_PWM_blue_UseStatus)
 164:Generated_Source\PSoC5/RGB_PWM_blue.c **** 
 165:Generated_Source\PSoC5/RGB_PWM_blue.c ****             /* CyEnterCriticalRegion and CyExitCriticalRegion are used to mark following region cri
 166:Generated_Source\PSoC5/RGB_PWM_blue.c ****             /* Enter Critical Region*/
 167:Generated_Source\PSoC5/RGB_PWM_blue.c ****             RGB_PWM_blue_interruptState = CyEnterCriticalSection();
 168:Generated_Source\PSoC5/RGB_PWM_blue.c ****             /* Use the interrupt output of the status register for IRQ output */
 169:Generated_Source\PSoC5/RGB_PWM_blue.c ****             RGB_PWM_blue_STATUS_AUX_CTRL |= RGB_PWM_blue_STATUS_ACTL_INT_EN_MASK;
 170:Generated_Source\PSoC5/RGB_PWM_blue.c **** 
 171:Generated_Source\PSoC5/RGB_PWM_blue.c ****              /* Exit Critical Region*/
 172:Generated_Source\PSoC5/RGB_PWM_blue.c ****             CyExitCriticalSection(RGB_PWM_blue_interruptState);
 173:Generated_Source\PSoC5/RGB_PWM_blue.c **** 
 174:Generated_Source\PSoC5/RGB_PWM_blue.c ****             /* Clear the FIFO to enable the RGB_PWM_blue_STATUS_FIFOFULL
 175:Generated_Source\PSoC5/RGB_PWM_blue.c ****                    bit to be set on FIFO full. */
 176:Generated_Source\PSoC5/RGB_PWM_blue.c ****             RGB_PWM_blue_ClearFIFO();
 177:Generated_Source\PSoC5/RGB_PWM_blue.c ****         #endif /* (RGB_PWM_blue_UseStatus) */
 178:Generated_Source\PSoC5/RGB_PWM_blue.c ****     #endif /* (RGB_PWM_blue_UsingFixedFunction) */
 179:Generated_Source\PSoC5/RGB_PWM_blue.c **** }
 180:Generated_Source\PSoC5/RGB_PWM_blue.c **** 
 181:Generated_Source\PSoC5/RGB_PWM_blue.c **** 
 182:Generated_Source\PSoC5/RGB_PWM_blue.c **** /*******************************************************************************
 183:Generated_Source\PSoC5/RGB_PWM_blue.c **** * Function Name: RGB_PWM_blue_Enable
 184:Generated_Source\PSoC5/RGB_PWM_blue.c **** ********************************************************************************
 185:Generated_Source\PSoC5/RGB_PWM_blue.c **** *
 186:Generated_Source\PSoC5/RGB_PWM_blue.c **** * Summary:
 187:Generated_Source\PSoC5/RGB_PWM_blue.c **** *  Enables the PWM block operation
 188:Generated_Source\PSoC5/RGB_PWM_blue.c **** *
 189:Generated_Source\PSoC5/RGB_PWM_blue.c **** * Parameters:
 190:Generated_Source\PSoC5/RGB_PWM_blue.c **** *  None
 191:Generated_Source\PSoC5/RGB_PWM_blue.c **** *
 192:Generated_Source\PSoC5/RGB_PWM_blue.c **** * Return:
 193:Generated_Source\PSoC5/RGB_PWM_blue.c **** *  None
 194:Generated_Source\PSoC5/RGB_PWM_blue.c **** *
 195:Generated_Source\PSoC5/RGB_PWM_blue.c **** * Side Effects:
 196:Generated_Source\PSoC5/RGB_PWM_blue.c **** *  This works only if software enable mode is chosen
 197:Generated_Source\PSoC5/RGB_PWM_blue.c **** *
 198:Generated_Source\PSoC5/RGB_PWM_blue.c **** *******************************************************************************/
 199:Generated_Source\PSoC5/RGB_PWM_blue.c **** void RGB_PWM_blue_Enable(void) 
 200:Generated_Source\PSoC5/RGB_PWM_blue.c **** {
  28              		.loc 1 200 0
ARM GAS  C:\Users\Asus\AppData\Local\Temp\ccBH8iPb.s 			page 5


  29              		.cfi_startproc
  30              		@ args = 0, pretend = 0, frame = 0
  31              		@ frame_needed = 0, uses_anonymous_args = 0
  32              		@ link register save eliminated.
 201:Generated_Source\PSoC5/RGB_PWM_blue.c ****     /* Globally Enable the Fixed Function Block chosen */
 202:Generated_Source\PSoC5/RGB_PWM_blue.c ****     #if (RGB_PWM_blue_UsingFixedFunction)
 203:Generated_Source\PSoC5/RGB_PWM_blue.c ****         RGB_PWM_blue_GLOBAL_ENABLE |= RGB_PWM_blue_BLOCK_EN_MASK;
 204:Generated_Source\PSoC5/RGB_PWM_blue.c ****         RGB_PWM_blue_GLOBAL_STBY_ENABLE |= RGB_PWM_blue_BLOCK_STBY_EN_MASK;
 205:Generated_Source\PSoC5/RGB_PWM_blue.c ****     #endif /* (RGB_PWM_blue_UsingFixedFunction) */
 206:Generated_Source\PSoC5/RGB_PWM_blue.c **** 
 207:Generated_Source\PSoC5/RGB_PWM_blue.c ****     /* Enable the PWM from the control register  */
 208:Generated_Source\PSoC5/RGB_PWM_blue.c ****     #if (RGB_PWM_blue_UseControl || RGB_PWM_blue_UsingFixedFunction)
 209:Generated_Source\PSoC5/RGB_PWM_blue.c ****         RGB_PWM_blue_CONTROL |= RGB_PWM_blue_CTRL_ENABLE;
  33              		.loc 1 209 0
  34 0000 024A     		ldr	r2, .L2
  35 0002 1378     		ldrb	r3, [r2]	@ zero_extendqisi2
  36 0004 43F08003 		orr	r3, r3, #128
  37 0008 1370     		strb	r3, [r2]
  38 000a 7047     		bx	lr
  39              	.L3:
  40              		.align	2
  41              	.L2:
  42 000c 7D640040 		.word	1073767549
  43              		.cfi_endproc
  44              	.LFE2:
  45              		.size	RGB_PWM_blue_Enable, .-RGB_PWM_blue_Enable
  46              		.section	.text.RGB_PWM_blue_Stop,"ax",%progbits
  47              		.align	2
  48              		.global	RGB_PWM_blue_Stop
  49              		.thumb
  50              		.thumb_func
  51              		.type	RGB_PWM_blue_Stop, %function
  52              	RGB_PWM_blue_Stop:
  53              	.LFB3:
 210:Generated_Source\PSoC5/RGB_PWM_blue.c ****     #endif /* (RGB_PWM_blue_UseControl || RGB_PWM_blue_UsingFixedFunction) */
 211:Generated_Source\PSoC5/RGB_PWM_blue.c **** }
 212:Generated_Source\PSoC5/RGB_PWM_blue.c **** 
 213:Generated_Source\PSoC5/RGB_PWM_blue.c **** 
 214:Generated_Source\PSoC5/RGB_PWM_blue.c **** /*******************************************************************************
 215:Generated_Source\PSoC5/RGB_PWM_blue.c **** * Function Name: RGB_PWM_blue_Stop
 216:Generated_Source\PSoC5/RGB_PWM_blue.c **** ********************************************************************************
 217:Generated_Source\PSoC5/RGB_PWM_blue.c **** *
 218:Generated_Source\PSoC5/RGB_PWM_blue.c **** * Summary:
 219:Generated_Source\PSoC5/RGB_PWM_blue.c **** *  The stop function halts the PWM, but does not change any modes or disable
 220:Generated_Source\PSoC5/RGB_PWM_blue.c **** *  interrupts.
 221:Generated_Source\PSoC5/RGB_PWM_blue.c **** *
 222:Generated_Source\PSoC5/RGB_PWM_blue.c **** * Parameters:
 223:Generated_Source\PSoC5/RGB_PWM_blue.c **** *  None
 224:Generated_Source\PSoC5/RGB_PWM_blue.c **** *
 225:Generated_Source\PSoC5/RGB_PWM_blue.c **** * Return:
 226:Generated_Source\PSoC5/RGB_PWM_blue.c **** *  None
 227:Generated_Source\PSoC5/RGB_PWM_blue.c **** *
 228:Generated_Source\PSoC5/RGB_PWM_blue.c **** * Side Effects:
 229:Generated_Source\PSoC5/RGB_PWM_blue.c **** *  If the Enable mode is set to Hardware only then this function
 230:Generated_Source\PSoC5/RGB_PWM_blue.c **** *  has no effect on the operation of the PWM
 231:Generated_Source\PSoC5/RGB_PWM_blue.c **** *
 232:Generated_Source\PSoC5/RGB_PWM_blue.c **** *******************************************************************************/
ARM GAS  C:\Users\Asus\AppData\Local\Temp\ccBH8iPb.s 			page 6


 233:Generated_Source\PSoC5/RGB_PWM_blue.c **** void RGB_PWM_blue_Stop(void) 
 234:Generated_Source\PSoC5/RGB_PWM_blue.c **** {
  54              		.loc 1 234 0
  55              		.cfi_startproc
  56              		@ args = 0, pretend = 0, frame = 0
  57              		@ frame_needed = 0, uses_anonymous_args = 0
  58              		@ link register save eliminated.
 235:Generated_Source\PSoC5/RGB_PWM_blue.c ****     #if (RGB_PWM_blue_UseControl || RGB_PWM_blue_UsingFixedFunction)
 236:Generated_Source\PSoC5/RGB_PWM_blue.c ****         RGB_PWM_blue_CONTROL &= ((uint8)(~RGB_PWM_blue_CTRL_ENABLE));
  59              		.loc 1 236 0
  60 0000 024A     		ldr	r2, .L5
  61 0002 1378     		ldrb	r3, [r2]	@ zero_extendqisi2
  62 0004 03F07F03 		and	r3, r3, #127
  63 0008 1370     		strb	r3, [r2]
  64 000a 7047     		bx	lr
  65              	.L6:
  66              		.align	2
  67              	.L5:
  68 000c 7D640040 		.word	1073767549
  69              		.cfi_endproc
  70              	.LFE3:
  71              		.size	RGB_PWM_blue_Stop, .-RGB_PWM_blue_Stop
  72              		.section	.text.RGB_PWM_blue_WriteCounter,"ax",%progbits
  73              		.align	2
  74              		.global	RGB_PWM_blue_WriteCounter
  75              		.thumb
  76              		.thumb_func
  77              		.type	RGB_PWM_blue_WriteCounter, %function
  78              	RGB_PWM_blue_WriteCounter:
  79              	.LFB4:
 237:Generated_Source\PSoC5/RGB_PWM_blue.c ****     #endif /* (RGB_PWM_blue_UseControl || RGB_PWM_blue_UsingFixedFunction) */
 238:Generated_Source\PSoC5/RGB_PWM_blue.c **** 
 239:Generated_Source\PSoC5/RGB_PWM_blue.c ****     /* Globally disable the Fixed Function Block chosen */
 240:Generated_Source\PSoC5/RGB_PWM_blue.c ****     #if (RGB_PWM_blue_UsingFixedFunction)
 241:Generated_Source\PSoC5/RGB_PWM_blue.c ****         RGB_PWM_blue_GLOBAL_ENABLE &= ((uint8)(~RGB_PWM_blue_BLOCK_EN_MASK));
 242:Generated_Source\PSoC5/RGB_PWM_blue.c ****         RGB_PWM_blue_GLOBAL_STBY_ENABLE &= ((uint8)(~RGB_PWM_blue_BLOCK_STBY_EN_MASK));
 243:Generated_Source\PSoC5/RGB_PWM_blue.c ****     #endif /* (RGB_PWM_blue_UsingFixedFunction) */
 244:Generated_Source\PSoC5/RGB_PWM_blue.c **** }
 245:Generated_Source\PSoC5/RGB_PWM_blue.c **** 
 246:Generated_Source\PSoC5/RGB_PWM_blue.c **** #if (RGB_PWM_blue_UseOneCompareMode)
 247:Generated_Source\PSoC5/RGB_PWM_blue.c ****     #if (RGB_PWM_blue_CompareMode1SW)
 248:Generated_Source\PSoC5/RGB_PWM_blue.c **** 
 249:Generated_Source\PSoC5/RGB_PWM_blue.c **** 
 250:Generated_Source\PSoC5/RGB_PWM_blue.c ****         /*******************************************************************************
 251:Generated_Source\PSoC5/RGB_PWM_blue.c ****         * Function Name: RGB_PWM_blue_SetCompareMode
 252:Generated_Source\PSoC5/RGB_PWM_blue.c ****         ********************************************************************************
 253:Generated_Source\PSoC5/RGB_PWM_blue.c ****         *
 254:Generated_Source\PSoC5/RGB_PWM_blue.c ****         * Summary:
 255:Generated_Source\PSoC5/RGB_PWM_blue.c ****         *  This function writes the Compare Mode for the pwm output when in Dither mode,
 256:Generated_Source\PSoC5/RGB_PWM_blue.c ****         *  Center Align Mode or One Output Mode.
 257:Generated_Source\PSoC5/RGB_PWM_blue.c ****         *
 258:Generated_Source\PSoC5/RGB_PWM_blue.c ****         * Parameters:
 259:Generated_Source\PSoC5/RGB_PWM_blue.c ****         *  comparemode:  The new compare mode for the PWM output. Use the compare types
 260:Generated_Source\PSoC5/RGB_PWM_blue.c ****         *                defined in the H file as input arguments.
 261:Generated_Source\PSoC5/RGB_PWM_blue.c ****         *
 262:Generated_Source\PSoC5/RGB_PWM_blue.c ****         * Return:
 263:Generated_Source\PSoC5/RGB_PWM_blue.c ****         *  None
ARM GAS  C:\Users\Asus\AppData\Local\Temp\ccBH8iPb.s 			page 7


 264:Generated_Source\PSoC5/RGB_PWM_blue.c ****         *
 265:Generated_Source\PSoC5/RGB_PWM_blue.c ****         *******************************************************************************/
 266:Generated_Source\PSoC5/RGB_PWM_blue.c ****         void RGB_PWM_blue_SetCompareMode(uint8 comparemode) 
 267:Generated_Source\PSoC5/RGB_PWM_blue.c ****         {
 268:Generated_Source\PSoC5/RGB_PWM_blue.c ****             #if(RGB_PWM_blue_UsingFixedFunction)
 269:Generated_Source\PSoC5/RGB_PWM_blue.c **** 
 270:Generated_Source\PSoC5/RGB_PWM_blue.c ****                 #if(0 != RGB_PWM_blue_CTRL_CMPMODE1_SHIFT)
 271:Generated_Source\PSoC5/RGB_PWM_blue.c ****                     uint8 comparemodemasked = ((uint8)((uint8)comparemode << RGB_PWM_blue_CTRL_CMPM
 272:Generated_Source\PSoC5/RGB_PWM_blue.c ****                 #else
 273:Generated_Source\PSoC5/RGB_PWM_blue.c ****                     uint8 comparemodemasked = comparemode;
 274:Generated_Source\PSoC5/RGB_PWM_blue.c ****                 #endif /* (0 != RGB_PWM_blue_CTRL_CMPMODE1_SHIFT) */
 275:Generated_Source\PSoC5/RGB_PWM_blue.c **** 
 276:Generated_Source\PSoC5/RGB_PWM_blue.c ****                 RGB_PWM_blue_CONTROL3 &= ((uint8)(~RGB_PWM_blue_CTRL_CMPMODE1_MASK)); /*Clear Exist
 277:Generated_Source\PSoC5/RGB_PWM_blue.c ****                 RGB_PWM_blue_CONTROL3 |= comparemodemasked;
 278:Generated_Source\PSoC5/RGB_PWM_blue.c **** 
 279:Generated_Source\PSoC5/RGB_PWM_blue.c ****             #elif (RGB_PWM_blue_UseControl)
 280:Generated_Source\PSoC5/RGB_PWM_blue.c **** 
 281:Generated_Source\PSoC5/RGB_PWM_blue.c ****                 #if(0 != RGB_PWM_blue_CTRL_CMPMODE1_SHIFT)
 282:Generated_Source\PSoC5/RGB_PWM_blue.c ****                     uint8 comparemode1masked = ((uint8)((uint8)comparemode << RGB_PWM_blue_CTRL_CMP
 283:Generated_Source\PSoC5/RGB_PWM_blue.c ****                                                 RGB_PWM_blue_CTRL_CMPMODE1_MASK;
 284:Generated_Source\PSoC5/RGB_PWM_blue.c ****                 #else
 285:Generated_Source\PSoC5/RGB_PWM_blue.c ****                     uint8 comparemode1masked = comparemode & RGB_PWM_blue_CTRL_CMPMODE1_MASK;
 286:Generated_Source\PSoC5/RGB_PWM_blue.c ****                 #endif /* (0 != RGB_PWM_blue_CTRL_CMPMODE1_SHIFT) */
 287:Generated_Source\PSoC5/RGB_PWM_blue.c **** 
 288:Generated_Source\PSoC5/RGB_PWM_blue.c ****                 #if(0 != RGB_PWM_blue_CTRL_CMPMODE2_SHIFT)
 289:Generated_Source\PSoC5/RGB_PWM_blue.c ****                     uint8 comparemode2masked = ((uint8)((uint8)comparemode << RGB_PWM_blue_CTRL_CMP
 290:Generated_Source\PSoC5/RGB_PWM_blue.c ****                                                RGB_PWM_blue_CTRL_CMPMODE2_MASK;
 291:Generated_Source\PSoC5/RGB_PWM_blue.c ****                 #else
 292:Generated_Source\PSoC5/RGB_PWM_blue.c ****                     uint8 comparemode2masked = comparemode & RGB_PWM_blue_CTRL_CMPMODE2_MASK;
 293:Generated_Source\PSoC5/RGB_PWM_blue.c ****                 #endif /* (0 != RGB_PWM_blue_CTRL_CMPMODE2_SHIFT) */
 294:Generated_Source\PSoC5/RGB_PWM_blue.c **** 
 295:Generated_Source\PSoC5/RGB_PWM_blue.c ****                 /*Clear existing mode */
 296:Generated_Source\PSoC5/RGB_PWM_blue.c ****                 RGB_PWM_blue_CONTROL &= ((uint8)(~(RGB_PWM_blue_CTRL_CMPMODE1_MASK |
 297:Generated_Source\PSoC5/RGB_PWM_blue.c ****                                             RGB_PWM_blue_CTRL_CMPMODE2_MASK)));
 298:Generated_Source\PSoC5/RGB_PWM_blue.c ****                 RGB_PWM_blue_CONTROL |= (comparemode1masked | comparemode2masked);
 299:Generated_Source\PSoC5/RGB_PWM_blue.c **** 
 300:Generated_Source\PSoC5/RGB_PWM_blue.c ****             #else
 301:Generated_Source\PSoC5/RGB_PWM_blue.c ****                 uint8 temp = comparemode;
 302:Generated_Source\PSoC5/RGB_PWM_blue.c ****             #endif /* (RGB_PWM_blue_UsingFixedFunction) */
 303:Generated_Source\PSoC5/RGB_PWM_blue.c ****         }
 304:Generated_Source\PSoC5/RGB_PWM_blue.c ****     #endif /* RGB_PWM_blue_CompareMode1SW */
 305:Generated_Source\PSoC5/RGB_PWM_blue.c **** 
 306:Generated_Source\PSoC5/RGB_PWM_blue.c **** #else /* UseOneCompareMode */
 307:Generated_Source\PSoC5/RGB_PWM_blue.c **** 
 308:Generated_Source\PSoC5/RGB_PWM_blue.c ****     #if (RGB_PWM_blue_CompareMode1SW)
 309:Generated_Source\PSoC5/RGB_PWM_blue.c **** 
 310:Generated_Source\PSoC5/RGB_PWM_blue.c **** 
 311:Generated_Source\PSoC5/RGB_PWM_blue.c ****         /*******************************************************************************
 312:Generated_Source\PSoC5/RGB_PWM_blue.c ****         * Function Name: RGB_PWM_blue_SetCompareMode1
 313:Generated_Source\PSoC5/RGB_PWM_blue.c ****         ********************************************************************************
 314:Generated_Source\PSoC5/RGB_PWM_blue.c ****         *
 315:Generated_Source\PSoC5/RGB_PWM_blue.c ****         * Summary:
 316:Generated_Source\PSoC5/RGB_PWM_blue.c ****         *  This function writes the Compare Mode for the pwm or pwm1 output
 317:Generated_Source\PSoC5/RGB_PWM_blue.c ****         *
 318:Generated_Source\PSoC5/RGB_PWM_blue.c ****         * Parameters:
 319:Generated_Source\PSoC5/RGB_PWM_blue.c ****         *  comparemode:  The new compare mode for the PWM output. Use the compare types
 320:Generated_Source\PSoC5/RGB_PWM_blue.c ****         *                defined in the H file as input arguments.
ARM GAS  C:\Users\Asus\AppData\Local\Temp\ccBH8iPb.s 			page 8


 321:Generated_Source\PSoC5/RGB_PWM_blue.c ****         *
 322:Generated_Source\PSoC5/RGB_PWM_blue.c ****         * Return:
 323:Generated_Source\PSoC5/RGB_PWM_blue.c ****         *  None
 324:Generated_Source\PSoC5/RGB_PWM_blue.c ****         *
 325:Generated_Source\PSoC5/RGB_PWM_blue.c ****         *******************************************************************************/
 326:Generated_Source\PSoC5/RGB_PWM_blue.c ****         void RGB_PWM_blue_SetCompareMode1(uint8 comparemode) 
 327:Generated_Source\PSoC5/RGB_PWM_blue.c ****         {
 328:Generated_Source\PSoC5/RGB_PWM_blue.c ****             #if(0 != RGB_PWM_blue_CTRL_CMPMODE1_SHIFT)
 329:Generated_Source\PSoC5/RGB_PWM_blue.c ****                 uint8 comparemodemasked = ((uint8)((uint8)comparemode << RGB_PWM_blue_CTRL_CMPMODE1
 330:Generated_Source\PSoC5/RGB_PWM_blue.c ****                                            RGB_PWM_blue_CTRL_CMPMODE1_MASK;
 331:Generated_Source\PSoC5/RGB_PWM_blue.c ****             #else
 332:Generated_Source\PSoC5/RGB_PWM_blue.c ****                 uint8 comparemodemasked = comparemode & RGB_PWM_blue_CTRL_CMPMODE1_MASK;
 333:Generated_Source\PSoC5/RGB_PWM_blue.c ****             #endif /* (0 != RGB_PWM_blue_CTRL_CMPMODE1_SHIFT) */
 334:Generated_Source\PSoC5/RGB_PWM_blue.c **** 
 335:Generated_Source\PSoC5/RGB_PWM_blue.c ****             #if (RGB_PWM_blue_UseControl)
 336:Generated_Source\PSoC5/RGB_PWM_blue.c ****                 RGB_PWM_blue_CONTROL &= ((uint8)(~RGB_PWM_blue_CTRL_CMPMODE1_MASK)); /*Clear existi
 337:Generated_Source\PSoC5/RGB_PWM_blue.c ****                 RGB_PWM_blue_CONTROL |= comparemodemasked;
 338:Generated_Source\PSoC5/RGB_PWM_blue.c ****             #endif /* (RGB_PWM_blue_UseControl) */
 339:Generated_Source\PSoC5/RGB_PWM_blue.c ****         }
 340:Generated_Source\PSoC5/RGB_PWM_blue.c ****     #endif /* RGB_PWM_blue_CompareMode1SW */
 341:Generated_Source\PSoC5/RGB_PWM_blue.c **** 
 342:Generated_Source\PSoC5/RGB_PWM_blue.c **** #if (RGB_PWM_blue_CompareMode2SW)
 343:Generated_Source\PSoC5/RGB_PWM_blue.c **** 
 344:Generated_Source\PSoC5/RGB_PWM_blue.c **** 
 345:Generated_Source\PSoC5/RGB_PWM_blue.c ****     /*******************************************************************************
 346:Generated_Source\PSoC5/RGB_PWM_blue.c ****     * Function Name: RGB_PWM_blue_SetCompareMode2
 347:Generated_Source\PSoC5/RGB_PWM_blue.c ****     ********************************************************************************
 348:Generated_Source\PSoC5/RGB_PWM_blue.c ****     *
 349:Generated_Source\PSoC5/RGB_PWM_blue.c ****     * Summary:
 350:Generated_Source\PSoC5/RGB_PWM_blue.c ****     *  This function writes the Compare Mode for the pwm or pwm2 output
 351:Generated_Source\PSoC5/RGB_PWM_blue.c ****     *
 352:Generated_Source\PSoC5/RGB_PWM_blue.c ****     * Parameters:
 353:Generated_Source\PSoC5/RGB_PWM_blue.c ****     *  comparemode:  The new compare mode for the PWM output. Use the compare types
 354:Generated_Source\PSoC5/RGB_PWM_blue.c ****     *                defined in the H file as input arguments.
 355:Generated_Source\PSoC5/RGB_PWM_blue.c ****     *
 356:Generated_Source\PSoC5/RGB_PWM_blue.c ****     * Return:
 357:Generated_Source\PSoC5/RGB_PWM_blue.c ****     *  None
 358:Generated_Source\PSoC5/RGB_PWM_blue.c ****     *
 359:Generated_Source\PSoC5/RGB_PWM_blue.c ****     *******************************************************************************/
 360:Generated_Source\PSoC5/RGB_PWM_blue.c ****     void RGB_PWM_blue_SetCompareMode2(uint8 comparemode) 
 361:Generated_Source\PSoC5/RGB_PWM_blue.c ****     {
 362:Generated_Source\PSoC5/RGB_PWM_blue.c **** 
 363:Generated_Source\PSoC5/RGB_PWM_blue.c ****         #if(0 != RGB_PWM_blue_CTRL_CMPMODE2_SHIFT)
 364:Generated_Source\PSoC5/RGB_PWM_blue.c ****             uint8 comparemodemasked = ((uint8)((uint8)comparemode << RGB_PWM_blue_CTRL_CMPMODE2_SHI
 365:Generated_Source\PSoC5/RGB_PWM_blue.c ****                                                  RGB_PWM_blue_CTRL_CMPMODE2_MASK;
 366:Generated_Source\PSoC5/RGB_PWM_blue.c ****         #else
 367:Generated_Source\PSoC5/RGB_PWM_blue.c ****             uint8 comparemodemasked = comparemode & RGB_PWM_blue_CTRL_CMPMODE2_MASK;
 368:Generated_Source\PSoC5/RGB_PWM_blue.c ****         #endif /* (0 != RGB_PWM_blue_CTRL_CMPMODE2_SHIFT) */
 369:Generated_Source\PSoC5/RGB_PWM_blue.c **** 
 370:Generated_Source\PSoC5/RGB_PWM_blue.c ****         #if (RGB_PWM_blue_UseControl)
 371:Generated_Source\PSoC5/RGB_PWM_blue.c ****             RGB_PWM_blue_CONTROL &= ((uint8)(~RGB_PWM_blue_CTRL_CMPMODE2_MASK)); /*Clear existing m
 372:Generated_Source\PSoC5/RGB_PWM_blue.c ****             RGB_PWM_blue_CONTROL |= comparemodemasked;
 373:Generated_Source\PSoC5/RGB_PWM_blue.c ****         #endif /* (RGB_PWM_blue_UseControl) */
 374:Generated_Source\PSoC5/RGB_PWM_blue.c ****     }
 375:Generated_Source\PSoC5/RGB_PWM_blue.c ****     #endif /*RGB_PWM_blue_CompareMode2SW */
 376:Generated_Source\PSoC5/RGB_PWM_blue.c **** 
 377:Generated_Source\PSoC5/RGB_PWM_blue.c **** #endif /* UseOneCompareMode */
ARM GAS  C:\Users\Asus\AppData\Local\Temp\ccBH8iPb.s 			page 9


 378:Generated_Source\PSoC5/RGB_PWM_blue.c **** 
 379:Generated_Source\PSoC5/RGB_PWM_blue.c **** 
 380:Generated_Source\PSoC5/RGB_PWM_blue.c **** #if (!RGB_PWM_blue_UsingFixedFunction)
 381:Generated_Source\PSoC5/RGB_PWM_blue.c **** 
 382:Generated_Source\PSoC5/RGB_PWM_blue.c **** 
 383:Generated_Source\PSoC5/RGB_PWM_blue.c ****     /*******************************************************************************
 384:Generated_Source\PSoC5/RGB_PWM_blue.c ****     * Function Name: RGB_PWM_blue_WriteCounter
 385:Generated_Source\PSoC5/RGB_PWM_blue.c ****     ********************************************************************************
 386:Generated_Source\PSoC5/RGB_PWM_blue.c ****     *
 387:Generated_Source\PSoC5/RGB_PWM_blue.c ****     * Summary:
 388:Generated_Source\PSoC5/RGB_PWM_blue.c ****     *  Writes a new counter value directly to the counter register. This will be
 389:Generated_Source\PSoC5/RGB_PWM_blue.c ****     *  implemented for that currently running period and only that period. This API
 390:Generated_Source\PSoC5/RGB_PWM_blue.c ****     *  is valid only for UDB implementation and not available for fixed function
 391:Generated_Source\PSoC5/RGB_PWM_blue.c ****     *  PWM implementation.
 392:Generated_Source\PSoC5/RGB_PWM_blue.c ****     *
 393:Generated_Source\PSoC5/RGB_PWM_blue.c ****     * Parameters:
 394:Generated_Source\PSoC5/RGB_PWM_blue.c ****     *  counter:  The period new period counter value.
 395:Generated_Source\PSoC5/RGB_PWM_blue.c ****     *
 396:Generated_Source\PSoC5/RGB_PWM_blue.c ****     * Return:
 397:Generated_Source\PSoC5/RGB_PWM_blue.c ****     *  None
 398:Generated_Source\PSoC5/RGB_PWM_blue.c ****     *
 399:Generated_Source\PSoC5/RGB_PWM_blue.c ****     * Side Effects:
 400:Generated_Source\PSoC5/RGB_PWM_blue.c ****     *  The PWM Period will be reloaded when a counter value will be a zero
 401:Generated_Source\PSoC5/RGB_PWM_blue.c ****     *
 402:Generated_Source\PSoC5/RGB_PWM_blue.c ****     *******************************************************************************/
 403:Generated_Source\PSoC5/RGB_PWM_blue.c ****     void RGB_PWM_blue_WriteCounter(uint16 counter) \
 404:Generated_Source\PSoC5/RGB_PWM_blue.c ****                                        
 405:Generated_Source\PSoC5/RGB_PWM_blue.c ****     {
  80              		.loc 1 405 0
  81              		.cfi_startproc
  82              		@ args = 0, pretend = 0, frame = 0
  83              		@ frame_needed = 0, uses_anonymous_args = 0
  84              		@ link register save eliminated.
  85              	.LVL0:
 406:Generated_Source\PSoC5/RGB_PWM_blue.c ****         CY_SET_REG16(RGB_PWM_blue_COUNTER_LSB_PTR, counter);
  86              		.loc 1 406 0
  87 0000 014B     		ldr	r3, .L8
  88 0002 1880     		strh	r0, [r3]	@ movhi
  89 0004 7047     		bx	lr
  90              	.L9:
  91 0006 00BF     		.align	2
  92              	.L8:
  93 0008 18680040 		.word	1073768472
  94              		.cfi_endproc
  95              	.LFE4:
  96              		.size	RGB_PWM_blue_WriteCounter, .-RGB_PWM_blue_WriteCounter
  97              		.section	.text.RGB_PWM_blue_ReadCounter,"ax",%progbits
  98              		.align	2
  99              		.global	RGB_PWM_blue_ReadCounter
 100              		.thumb
 101              		.thumb_func
 102              		.type	RGB_PWM_blue_ReadCounter, %function
 103              	RGB_PWM_blue_ReadCounter:
 104              	.LFB5:
 407:Generated_Source\PSoC5/RGB_PWM_blue.c ****     }
 408:Generated_Source\PSoC5/RGB_PWM_blue.c **** 
 409:Generated_Source\PSoC5/RGB_PWM_blue.c **** 
ARM GAS  C:\Users\Asus\AppData\Local\Temp\ccBH8iPb.s 			page 10


 410:Generated_Source\PSoC5/RGB_PWM_blue.c ****     /*******************************************************************************
 411:Generated_Source\PSoC5/RGB_PWM_blue.c ****     * Function Name: RGB_PWM_blue_ReadCounter
 412:Generated_Source\PSoC5/RGB_PWM_blue.c ****     ********************************************************************************
 413:Generated_Source\PSoC5/RGB_PWM_blue.c ****     *
 414:Generated_Source\PSoC5/RGB_PWM_blue.c ****     * Summary:
 415:Generated_Source\PSoC5/RGB_PWM_blue.c ****     *  This function returns the current value of the counter.  It doesn't matter
 416:Generated_Source\PSoC5/RGB_PWM_blue.c ****     *  if the counter is enabled or running.
 417:Generated_Source\PSoC5/RGB_PWM_blue.c ****     *
 418:Generated_Source\PSoC5/RGB_PWM_blue.c ****     * Parameters:
 419:Generated_Source\PSoC5/RGB_PWM_blue.c ****     *  None
 420:Generated_Source\PSoC5/RGB_PWM_blue.c ****     *
 421:Generated_Source\PSoC5/RGB_PWM_blue.c ****     * Return:
 422:Generated_Source\PSoC5/RGB_PWM_blue.c ****     *  The current value of the counter.
 423:Generated_Source\PSoC5/RGB_PWM_blue.c ****     *
 424:Generated_Source\PSoC5/RGB_PWM_blue.c ****     *******************************************************************************/
 425:Generated_Source\PSoC5/RGB_PWM_blue.c ****     uint16 RGB_PWM_blue_ReadCounter(void) 
 426:Generated_Source\PSoC5/RGB_PWM_blue.c ****     {
 105              		.loc 1 426 0
 106              		.cfi_startproc
 107              		@ args = 0, pretend = 0, frame = 0
 108              		@ frame_needed = 0, uses_anonymous_args = 0
 109              		@ link register save eliminated.
 427:Generated_Source\PSoC5/RGB_PWM_blue.c ****         /* Force capture by reading Accumulator */
 428:Generated_Source\PSoC5/RGB_PWM_blue.c ****         /* Must first do a software capture to be able to read the counter */
 429:Generated_Source\PSoC5/RGB_PWM_blue.c ****         /* It is up to the user code to make sure there isn't already captured data in the FIFO */
 430:Generated_Source\PSoC5/RGB_PWM_blue.c ****           (void)CY_GET_REG8(RGB_PWM_blue_COUNTERCAP_LSB_PTR_8BIT);
 110              		.loc 1 430 0
 111 0000 024B     		ldr	r3, .L11
 112 0002 1B78     		ldrb	r3, [r3]	@ zero_extendqisi2
 431:Generated_Source\PSoC5/RGB_PWM_blue.c **** 
 432:Generated_Source\PSoC5/RGB_PWM_blue.c ****         /* Read the data from the FIFO */
 433:Generated_Source\PSoC5/RGB_PWM_blue.c ****         return (CY_GET_REG16(RGB_PWM_blue_CAPTURE_LSB_PTR));
 113              		.loc 1 433 0
 114 0004 024B     		ldr	r3, .L11+4
 115 0006 1888     		ldrh	r0, [r3]
 434:Generated_Source\PSoC5/RGB_PWM_blue.c ****     }
 116              		.loc 1 434 0
 117 0008 80B2     		uxth	r0, r0
 118 000a 7047     		bx	lr
 119              	.L12:
 120              		.align	2
 121              	.L11:
 122 000c 1C640040 		.word	1073767452
 123 0010 B8680040 		.word	1073768632
 124              		.cfi_endproc
 125              	.LFE5:
 126              		.size	RGB_PWM_blue_ReadCounter, .-RGB_PWM_blue_ReadCounter
 127              		.section	.text.RGB_PWM_blue_WritePeriod,"ax",%progbits
 128              		.align	2
 129              		.global	RGB_PWM_blue_WritePeriod
 130              		.thumb
 131              		.thumb_func
 132              		.type	RGB_PWM_blue_WritePeriod, %function
 133              	RGB_PWM_blue_WritePeriod:
 134              	.LFB6:
 435:Generated_Source\PSoC5/RGB_PWM_blue.c **** 
 436:Generated_Source\PSoC5/RGB_PWM_blue.c ****     #if (RGB_PWM_blue_UseStatus)
ARM GAS  C:\Users\Asus\AppData\Local\Temp\ccBH8iPb.s 			page 11


 437:Generated_Source\PSoC5/RGB_PWM_blue.c **** 
 438:Generated_Source\PSoC5/RGB_PWM_blue.c **** 
 439:Generated_Source\PSoC5/RGB_PWM_blue.c ****         /*******************************************************************************
 440:Generated_Source\PSoC5/RGB_PWM_blue.c ****         * Function Name: RGB_PWM_blue_ClearFIFO
 441:Generated_Source\PSoC5/RGB_PWM_blue.c ****         ********************************************************************************
 442:Generated_Source\PSoC5/RGB_PWM_blue.c ****         *
 443:Generated_Source\PSoC5/RGB_PWM_blue.c ****         * Summary:
 444:Generated_Source\PSoC5/RGB_PWM_blue.c ****         *  This function clears all capture data from the capture FIFO
 445:Generated_Source\PSoC5/RGB_PWM_blue.c ****         *
 446:Generated_Source\PSoC5/RGB_PWM_blue.c ****         * Parameters:
 447:Generated_Source\PSoC5/RGB_PWM_blue.c ****         *  None
 448:Generated_Source\PSoC5/RGB_PWM_blue.c ****         *
 449:Generated_Source\PSoC5/RGB_PWM_blue.c ****         * Return:
 450:Generated_Source\PSoC5/RGB_PWM_blue.c ****         *  None
 451:Generated_Source\PSoC5/RGB_PWM_blue.c ****         *
 452:Generated_Source\PSoC5/RGB_PWM_blue.c ****         *******************************************************************************/
 453:Generated_Source\PSoC5/RGB_PWM_blue.c ****         void RGB_PWM_blue_ClearFIFO(void) 
 454:Generated_Source\PSoC5/RGB_PWM_blue.c ****         {
 455:Generated_Source\PSoC5/RGB_PWM_blue.c ****             while(0u != (RGB_PWM_blue_ReadStatusRegister() & RGB_PWM_blue_STATUS_FIFONEMPTY))
 456:Generated_Source\PSoC5/RGB_PWM_blue.c ****             {
 457:Generated_Source\PSoC5/RGB_PWM_blue.c ****                 (void)RGB_PWM_blue_ReadCapture();
 458:Generated_Source\PSoC5/RGB_PWM_blue.c ****             }
 459:Generated_Source\PSoC5/RGB_PWM_blue.c ****         }
 460:Generated_Source\PSoC5/RGB_PWM_blue.c **** 
 461:Generated_Source\PSoC5/RGB_PWM_blue.c ****     #endif /* RGB_PWM_blue_UseStatus */
 462:Generated_Source\PSoC5/RGB_PWM_blue.c **** 
 463:Generated_Source\PSoC5/RGB_PWM_blue.c **** #endif /* !RGB_PWM_blue_UsingFixedFunction */
 464:Generated_Source\PSoC5/RGB_PWM_blue.c **** 
 465:Generated_Source\PSoC5/RGB_PWM_blue.c **** 
 466:Generated_Source\PSoC5/RGB_PWM_blue.c **** /*******************************************************************************
 467:Generated_Source\PSoC5/RGB_PWM_blue.c **** * Function Name: RGB_PWM_blue_WritePeriod
 468:Generated_Source\PSoC5/RGB_PWM_blue.c **** ********************************************************************************
 469:Generated_Source\PSoC5/RGB_PWM_blue.c **** *
 470:Generated_Source\PSoC5/RGB_PWM_blue.c **** * Summary:
 471:Generated_Source\PSoC5/RGB_PWM_blue.c **** *  This function is used to change the period of the counter.  The new period
 472:Generated_Source\PSoC5/RGB_PWM_blue.c **** *  will be loaded the next time terminal count is detected.
 473:Generated_Source\PSoC5/RGB_PWM_blue.c **** *
 474:Generated_Source\PSoC5/RGB_PWM_blue.c **** * Parameters:
 475:Generated_Source\PSoC5/RGB_PWM_blue.c **** *  period:  Period value. May be between 1 and (2^Resolution)-1.  A value of 0
 476:Generated_Source\PSoC5/RGB_PWM_blue.c **** *           will result in the counter remaining at zero.
 477:Generated_Source\PSoC5/RGB_PWM_blue.c **** *
 478:Generated_Source\PSoC5/RGB_PWM_blue.c **** * Return:
 479:Generated_Source\PSoC5/RGB_PWM_blue.c **** *  None
 480:Generated_Source\PSoC5/RGB_PWM_blue.c **** *
 481:Generated_Source\PSoC5/RGB_PWM_blue.c **** *******************************************************************************/
 482:Generated_Source\PSoC5/RGB_PWM_blue.c **** void RGB_PWM_blue_WritePeriod(uint16 period) 
 483:Generated_Source\PSoC5/RGB_PWM_blue.c **** {
 135              		.loc 1 483 0
 136              		.cfi_startproc
 137              		@ args = 0, pretend = 0, frame = 0
 138              		@ frame_needed = 0, uses_anonymous_args = 0
 139              		@ link register save eliminated.
 140              	.LVL1:
 484:Generated_Source\PSoC5/RGB_PWM_blue.c ****     #if(RGB_PWM_blue_UsingFixedFunction)
 485:Generated_Source\PSoC5/RGB_PWM_blue.c ****         CY_SET_REG16(RGB_PWM_blue_PERIOD_LSB_PTR, (uint16)period);
 486:Generated_Source\PSoC5/RGB_PWM_blue.c ****     #else
 487:Generated_Source\PSoC5/RGB_PWM_blue.c ****         CY_SET_REG16(RGB_PWM_blue_PERIOD_LSB_PTR, period);
ARM GAS  C:\Users\Asus\AppData\Local\Temp\ccBH8iPb.s 			page 12


 141              		.loc 1 487 0
 142 0000 014B     		ldr	r3, .L14
 143 0002 1880     		strh	r0, [r3]	@ movhi
 144 0004 7047     		bx	lr
 145              	.L15:
 146 0006 00BF     		.align	2
 147              	.L14:
 148 0008 98680040 		.word	1073768600
 149              		.cfi_endproc
 150              	.LFE6:
 151              		.size	RGB_PWM_blue_WritePeriod, .-RGB_PWM_blue_WritePeriod
 152              		.section	.text.RGB_PWM_blue_WriteCompare,"ax",%progbits
 153              		.align	2
 154              		.global	RGB_PWM_blue_WriteCompare
 155              		.thumb
 156              		.thumb_func
 157              		.type	RGB_PWM_blue_WriteCompare, %function
 158              	RGB_PWM_blue_WriteCompare:
 159              	.LFB7:
 488:Generated_Source\PSoC5/RGB_PWM_blue.c ****     #endif /* (RGB_PWM_blue_UsingFixedFunction) */
 489:Generated_Source\PSoC5/RGB_PWM_blue.c **** }
 490:Generated_Source\PSoC5/RGB_PWM_blue.c **** 
 491:Generated_Source\PSoC5/RGB_PWM_blue.c **** #if (RGB_PWM_blue_UseOneCompareMode)
 492:Generated_Source\PSoC5/RGB_PWM_blue.c **** 
 493:Generated_Source\PSoC5/RGB_PWM_blue.c **** 
 494:Generated_Source\PSoC5/RGB_PWM_blue.c ****     /*******************************************************************************
 495:Generated_Source\PSoC5/RGB_PWM_blue.c ****     * Function Name: RGB_PWM_blue_WriteCompare
 496:Generated_Source\PSoC5/RGB_PWM_blue.c ****     ********************************************************************************
 497:Generated_Source\PSoC5/RGB_PWM_blue.c ****     *
 498:Generated_Source\PSoC5/RGB_PWM_blue.c ****     * Summary:
 499:Generated_Source\PSoC5/RGB_PWM_blue.c ****     *  This funtion is used to change the compare1 value when the PWM is in Dither
 500:Generated_Source\PSoC5/RGB_PWM_blue.c ****     *  mode. The compare output will reflect the new value on the next UDB clock.
 501:Generated_Source\PSoC5/RGB_PWM_blue.c ****     *  The compare output will be driven high when the present counter value is
 502:Generated_Source\PSoC5/RGB_PWM_blue.c ****     *  compared to the compare value based on the compare mode defined in
 503:Generated_Source\PSoC5/RGB_PWM_blue.c ****     *  Dither Mode.
 504:Generated_Source\PSoC5/RGB_PWM_blue.c ****     *
 505:Generated_Source\PSoC5/RGB_PWM_blue.c ****     * Parameters:
 506:Generated_Source\PSoC5/RGB_PWM_blue.c ****     *  compare:  New compare value.
 507:Generated_Source\PSoC5/RGB_PWM_blue.c ****     *
 508:Generated_Source\PSoC5/RGB_PWM_blue.c ****     * Return:
 509:Generated_Source\PSoC5/RGB_PWM_blue.c ****     *  None
 510:Generated_Source\PSoC5/RGB_PWM_blue.c ****     *
 511:Generated_Source\PSoC5/RGB_PWM_blue.c ****     * Side Effects:
 512:Generated_Source\PSoC5/RGB_PWM_blue.c ****     *  This function is only available if the PWM mode parameter is set to
 513:Generated_Source\PSoC5/RGB_PWM_blue.c ****     *  Dither Mode, Center Aligned Mode or One Output Mode
 514:Generated_Source\PSoC5/RGB_PWM_blue.c ****     *
 515:Generated_Source\PSoC5/RGB_PWM_blue.c ****     *******************************************************************************/
 516:Generated_Source\PSoC5/RGB_PWM_blue.c ****     void RGB_PWM_blue_WriteCompare(uint16 compare) \
 517:Generated_Source\PSoC5/RGB_PWM_blue.c ****                                        
 518:Generated_Source\PSoC5/RGB_PWM_blue.c ****     {
 160              		.loc 1 518 0
 161              		.cfi_startproc
 162              		@ args = 0, pretend = 0, frame = 0
 163              		@ frame_needed = 0, uses_anonymous_args = 0
 164              		@ link register save eliminated.
 165              	.LVL2:
 519:Generated_Source\PSoC5/RGB_PWM_blue.c ****         #if(RGB_PWM_blue_UsingFixedFunction)
ARM GAS  C:\Users\Asus\AppData\Local\Temp\ccBH8iPb.s 			page 13


 520:Generated_Source\PSoC5/RGB_PWM_blue.c ****             CY_SET_REG16(RGB_PWM_blue_COMPARE1_LSB_PTR, (uint16)compare);
 521:Generated_Source\PSoC5/RGB_PWM_blue.c ****         #else
 522:Generated_Source\PSoC5/RGB_PWM_blue.c ****             CY_SET_REG16(RGB_PWM_blue_COMPARE1_LSB_PTR, compare);
 166              		.loc 1 522 0
 167 0000 014B     		ldr	r3, .L17
 168 0002 1880     		strh	r0, [r3]	@ movhi
 169 0004 7047     		bx	lr
 170              	.L18:
 171 0006 00BF     		.align	2
 172              	.L17:
 173 0008 58680040 		.word	1073768536
 174              		.cfi_endproc
 175              	.LFE7:
 176              		.size	RGB_PWM_blue_WriteCompare, .-RGB_PWM_blue_WriteCompare
 177              		.section	.text.RGB_PWM_blue_Init,"ax",%progbits
 178              		.align	2
 179              		.global	RGB_PWM_blue_Init
 180              		.thumb
 181              		.thumb_func
 182              		.type	RGB_PWM_blue_Init, %function
 183              	RGB_PWM_blue_Init:
 184              	.LFB1:
  85:Generated_Source\PSoC5/RGB_PWM_blue.c ****     #if (RGB_PWM_blue_UsingFixedFunction || RGB_PWM_blue_UseControl)
 185              		.loc 1 85 0
 186              		.cfi_startproc
 187              		@ args = 0, pretend = 0, frame = 0
 188              		@ frame_needed = 0, uses_anonymous_args = 0
 189 0000 08B5     		push	{r3, lr}
 190              		.cfi_def_cfa_offset 8
 191              		.cfi_offset 3, -8
 192              		.cfi_offset 14, -4
 117:Generated_Source\PSoC5/RGB_PWM_blue.c ****                 ((uint8)(~RGB_PWM_blue_CTRL_CMPMODE1_MASK));
 193              		.loc 1 117 0
 194 0002 0E4A     		ldr	r2, .L21
 195 0004 1378     		ldrb	r3, [r2]	@ zero_extendqisi2
 196 0006 03F0C003 		and	r3, r3, #192
 197              	.LVL3:
 119:Generated_Source\PSoC5/RGB_PWM_blue.c ****                                    RGB_PWM_blue_DEFAULT_COMPARE1_MODE;
 198              		.loc 1 119 0
 199 000a 43F00903 		orr	r3, r3, #9
 200              	.LVL4:
 201 000e 1370     		strb	r3, [r2]
 129:Generated_Source\PSoC5/RGB_PWM_blue.c ****             RGB_PWM_blue_AUX_CONTROLDP1 |= (RGB_PWM_blue_AUX_CTRL_FIFO0_CLR);
 202              		.loc 1 129 0
 203 0010 1F32     		adds	r2, r2, #31
 204 0012 1378     		ldrb	r3, [r2]	@ zero_extendqisi2
 205 0014 43F00103 		orr	r3, r3, #1
 206 0018 1370     		strb	r3, [r2]
 130:Generated_Source\PSoC5/RGB_PWM_blue.c ****         #endif /* (RGB_PWM_blue_Resolution == 8) */
 207              		.loc 1 130 0
 208 001a 0132     		adds	r2, r2, #1
 209 001c 1378     		ldrb	r3, [r2]	@ zero_extendqisi2
 210 001e 43F00103 		orr	r3, r3, #1
 211 0022 1370     		strb	r3, [r2]
 133:Generated_Source\PSoC5/RGB_PWM_blue.c ****     #endif /* (!RGB_PWM_blue_UsingFixedFunction) */
 212              		.loc 1 133 0
 213 0024 4FF6FF70 		movw	r0, #65535
ARM GAS  C:\Users\Asus\AppData\Local\Temp\ccBH8iPb.s 			page 14


 214 0028 FFF7FEFF 		bl	RGB_PWM_blue_WriteCounter
 215              	.LVL5:
 136:Generated_Source\PSoC5/RGB_PWM_blue.c **** 
 216              		.loc 1 136 0
 217 002c 4FF6FF70 		movw	r0, #65535
 218 0030 FFF7FEFF 		bl	RGB_PWM_blue_WritePeriod
 219              	.LVL6:
 139:Generated_Source\PSoC5/RGB_PWM_blue.c ****         #else
 220              		.loc 1 139 0
 221 0034 0020     		movs	r0, #0
 222 0036 FFF7FEFF 		bl	RGB_PWM_blue_WriteCompare
 223              	.LVL7:
 224 003a 08BD     		pop	{r3, pc}
 225              	.L22:
 226              		.align	2
 227              	.L21:
 228 003c 7D640040 		.word	1073767549
 229              		.cfi_endproc
 230              	.LFE1:
 231              		.size	RGB_PWM_blue_Init, .-RGB_PWM_blue_Init
 232              		.section	.text.RGB_PWM_blue_Start,"ax",%progbits
 233              		.align	2
 234              		.global	RGB_PWM_blue_Start
 235              		.thumb
 236              		.thumb_func
 237              		.type	RGB_PWM_blue_Start, %function
 238              	RGB_PWM_blue_Start:
 239              	.LFB0:
  56:Generated_Source\PSoC5/RGB_PWM_blue.c ****     /* If not Initialized then initialize all required hardware and software */
 240              		.loc 1 56 0
 241              		.cfi_startproc
 242              		@ args = 0, pretend = 0, frame = 0
 243              		@ frame_needed = 0, uses_anonymous_args = 0
 244 0000 08B5     		push	{r3, lr}
 245              		.cfi_def_cfa_offset 8
 246              		.cfi_offset 3, -8
 247              		.cfi_offset 14, -4
  58:Generated_Source\PSoC5/RGB_PWM_blue.c ****     {
 248              		.loc 1 58 0
 249 0002 054B     		ldr	r3, .L26
 250 0004 1B78     		ldrb	r3, [r3]	@ zero_extendqisi2
 251 0006 23B9     		cbnz	r3, .L24
  60:Generated_Source\PSoC5/RGB_PWM_blue.c ****         RGB_PWM_blue_initVar = 1u;
 252              		.loc 1 60 0
 253 0008 FFF7FEFF 		bl	RGB_PWM_blue_Init
 254              	.LVL8:
  61:Generated_Source\PSoC5/RGB_PWM_blue.c ****     }
 255              		.loc 1 61 0
 256 000c 0122     		movs	r2, #1
 257 000e 024B     		ldr	r3, .L26
 258 0010 1A70     		strb	r2, [r3]
 259              	.L24:
  63:Generated_Source\PSoC5/RGB_PWM_blue.c **** 
 260              		.loc 1 63 0
 261 0012 FFF7FEFF 		bl	RGB_PWM_blue_Enable
 262              	.LVL9:
 263 0016 08BD     		pop	{r3, pc}
ARM GAS  C:\Users\Asus\AppData\Local\Temp\ccBH8iPb.s 			page 15


 264              	.L27:
 265              		.align	2
 266              	.L26:
 267 0018 00000000 		.word	.LANCHOR0
 268              		.cfi_endproc
 269              	.LFE0:
 270              		.size	RGB_PWM_blue_Start, .-RGB_PWM_blue_Start
 271              		.section	.text.RGB_PWM_blue_ReadControlRegister,"ax",%progbits
 272              		.align	2
 273              		.global	RGB_PWM_blue_ReadControlRegister
 274              		.thumb
 275              		.thumb_func
 276              		.type	RGB_PWM_blue_ReadControlRegister, %function
 277              	RGB_PWM_blue_ReadControlRegister:
 278              	.LFB8:
 523:Generated_Source\PSoC5/RGB_PWM_blue.c ****         #endif /* (RGB_PWM_blue_UsingFixedFunction) */
 524:Generated_Source\PSoC5/RGB_PWM_blue.c **** 
 525:Generated_Source\PSoC5/RGB_PWM_blue.c ****         #if (RGB_PWM_blue_PWMMode == RGB_PWM_blue__B_PWM__DITHER)
 526:Generated_Source\PSoC5/RGB_PWM_blue.c ****             #if(RGB_PWM_blue_UsingFixedFunction)
 527:Generated_Source\PSoC5/RGB_PWM_blue.c ****                 CY_SET_REG16(RGB_PWM_blue_COMPARE2_LSB_PTR, (uint16)(compare + 1u));
 528:Generated_Source\PSoC5/RGB_PWM_blue.c ****             #else
 529:Generated_Source\PSoC5/RGB_PWM_blue.c ****                 CY_SET_REG16(RGB_PWM_blue_COMPARE2_LSB_PTR, (compare + 1u));
 530:Generated_Source\PSoC5/RGB_PWM_blue.c ****             #endif /* (RGB_PWM_blue_UsingFixedFunction) */
 531:Generated_Source\PSoC5/RGB_PWM_blue.c ****         #endif /* (RGB_PWM_blue_PWMMode == RGB_PWM_blue__B_PWM__DITHER) */
 532:Generated_Source\PSoC5/RGB_PWM_blue.c ****     }
 533:Generated_Source\PSoC5/RGB_PWM_blue.c **** 
 534:Generated_Source\PSoC5/RGB_PWM_blue.c **** 
 535:Generated_Source\PSoC5/RGB_PWM_blue.c **** #else
 536:Generated_Source\PSoC5/RGB_PWM_blue.c **** 
 537:Generated_Source\PSoC5/RGB_PWM_blue.c **** 
 538:Generated_Source\PSoC5/RGB_PWM_blue.c ****     /*******************************************************************************
 539:Generated_Source\PSoC5/RGB_PWM_blue.c ****     * Function Name: RGB_PWM_blue_WriteCompare1
 540:Generated_Source\PSoC5/RGB_PWM_blue.c ****     ********************************************************************************
 541:Generated_Source\PSoC5/RGB_PWM_blue.c ****     *
 542:Generated_Source\PSoC5/RGB_PWM_blue.c ****     * Summary:
 543:Generated_Source\PSoC5/RGB_PWM_blue.c ****     *  This funtion is used to change the compare1 value.  The compare output will
 544:Generated_Source\PSoC5/RGB_PWM_blue.c ****     *  reflect the new value on the next UDB clock.  The compare output will be
 545:Generated_Source\PSoC5/RGB_PWM_blue.c ****     *  driven high when the present counter value is less than or less than or
 546:Generated_Source\PSoC5/RGB_PWM_blue.c ****     *  equal to the compare register, depending on the mode.
 547:Generated_Source\PSoC5/RGB_PWM_blue.c ****     *
 548:Generated_Source\PSoC5/RGB_PWM_blue.c ****     * Parameters:
 549:Generated_Source\PSoC5/RGB_PWM_blue.c ****     *  compare:  New compare value.
 550:Generated_Source\PSoC5/RGB_PWM_blue.c ****     *
 551:Generated_Source\PSoC5/RGB_PWM_blue.c ****     * Return:
 552:Generated_Source\PSoC5/RGB_PWM_blue.c ****     *  None
 553:Generated_Source\PSoC5/RGB_PWM_blue.c ****     *
 554:Generated_Source\PSoC5/RGB_PWM_blue.c ****     *******************************************************************************/
 555:Generated_Source\PSoC5/RGB_PWM_blue.c ****     void RGB_PWM_blue_WriteCompare1(uint16 compare) \
 556:Generated_Source\PSoC5/RGB_PWM_blue.c ****                                         
 557:Generated_Source\PSoC5/RGB_PWM_blue.c ****     {
 558:Generated_Source\PSoC5/RGB_PWM_blue.c ****         #if(RGB_PWM_blue_UsingFixedFunction)
 559:Generated_Source\PSoC5/RGB_PWM_blue.c ****             CY_SET_REG16(RGB_PWM_blue_COMPARE1_LSB_PTR, (uint16)compare);
 560:Generated_Source\PSoC5/RGB_PWM_blue.c ****         #else
 561:Generated_Source\PSoC5/RGB_PWM_blue.c ****             CY_SET_REG16(RGB_PWM_blue_COMPARE1_LSB_PTR, compare);
 562:Generated_Source\PSoC5/RGB_PWM_blue.c ****         #endif /* (RGB_PWM_blue_UsingFixedFunction) */
 563:Generated_Source\PSoC5/RGB_PWM_blue.c ****     }
 564:Generated_Source\PSoC5/RGB_PWM_blue.c **** 
ARM GAS  C:\Users\Asus\AppData\Local\Temp\ccBH8iPb.s 			page 16


 565:Generated_Source\PSoC5/RGB_PWM_blue.c **** 
 566:Generated_Source\PSoC5/RGB_PWM_blue.c ****     /*******************************************************************************
 567:Generated_Source\PSoC5/RGB_PWM_blue.c ****     * Function Name: RGB_PWM_blue_WriteCompare2
 568:Generated_Source\PSoC5/RGB_PWM_blue.c ****     ********************************************************************************
 569:Generated_Source\PSoC5/RGB_PWM_blue.c ****     *
 570:Generated_Source\PSoC5/RGB_PWM_blue.c ****     * Summary:
 571:Generated_Source\PSoC5/RGB_PWM_blue.c ****     *  This funtion is used to change the compare value, for compare1 output.
 572:Generated_Source\PSoC5/RGB_PWM_blue.c ****     *  The compare output will reflect the new value on the next UDB clock.
 573:Generated_Source\PSoC5/RGB_PWM_blue.c ****     *  The compare output will be driven high when the present counter value is
 574:Generated_Source\PSoC5/RGB_PWM_blue.c ****     *  less than or less than or equal to the compare register, depending on the
 575:Generated_Source\PSoC5/RGB_PWM_blue.c ****     *  mode.
 576:Generated_Source\PSoC5/RGB_PWM_blue.c ****     *
 577:Generated_Source\PSoC5/RGB_PWM_blue.c ****     * Parameters:
 578:Generated_Source\PSoC5/RGB_PWM_blue.c ****     *  compare:  New compare value.
 579:Generated_Source\PSoC5/RGB_PWM_blue.c ****     *
 580:Generated_Source\PSoC5/RGB_PWM_blue.c ****     * Return:
 581:Generated_Source\PSoC5/RGB_PWM_blue.c ****     *  None
 582:Generated_Source\PSoC5/RGB_PWM_blue.c ****     *
 583:Generated_Source\PSoC5/RGB_PWM_blue.c ****     *******************************************************************************/
 584:Generated_Source\PSoC5/RGB_PWM_blue.c ****     void RGB_PWM_blue_WriteCompare2(uint16 compare) \
 585:Generated_Source\PSoC5/RGB_PWM_blue.c ****                                         
 586:Generated_Source\PSoC5/RGB_PWM_blue.c ****     {
 587:Generated_Source\PSoC5/RGB_PWM_blue.c ****         #if(RGB_PWM_blue_UsingFixedFunction)
 588:Generated_Source\PSoC5/RGB_PWM_blue.c ****             CY_SET_REG16(RGB_PWM_blue_COMPARE2_LSB_PTR, compare);
 589:Generated_Source\PSoC5/RGB_PWM_blue.c ****         #else
 590:Generated_Source\PSoC5/RGB_PWM_blue.c ****             CY_SET_REG16(RGB_PWM_blue_COMPARE2_LSB_PTR, compare);
 591:Generated_Source\PSoC5/RGB_PWM_blue.c ****         #endif /* (RGB_PWM_blue_UsingFixedFunction) */
 592:Generated_Source\PSoC5/RGB_PWM_blue.c ****     }
 593:Generated_Source\PSoC5/RGB_PWM_blue.c **** #endif /* UseOneCompareMode */
 594:Generated_Source\PSoC5/RGB_PWM_blue.c **** 
 595:Generated_Source\PSoC5/RGB_PWM_blue.c **** #if (RGB_PWM_blue_DeadBandUsed)
 596:Generated_Source\PSoC5/RGB_PWM_blue.c **** 
 597:Generated_Source\PSoC5/RGB_PWM_blue.c **** 
 598:Generated_Source\PSoC5/RGB_PWM_blue.c ****     /*******************************************************************************
 599:Generated_Source\PSoC5/RGB_PWM_blue.c ****     * Function Name: RGB_PWM_blue_WriteDeadTime
 600:Generated_Source\PSoC5/RGB_PWM_blue.c ****     ********************************************************************************
 601:Generated_Source\PSoC5/RGB_PWM_blue.c ****     *
 602:Generated_Source\PSoC5/RGB_PWM_blue.c ****     * Summary:
 603:Generated_Source\PSoC5/RGB_PWM_blue.c ****     *  This function writes the dead-band counts to the corresponding register
 604:Generated_Source\PSoC5/RGB_PWM_blue.c ****     *
 605:Generated_Source\PSoC5/RGB_PWM_blue.c ****     * Parameters:
 606:Generated_Source\PSoC5/RGB_PWM_blue.c ****     *  deadtime:  Number of counts for dead time
 607:Generated_Source\PSoC5/RGB_PWM_blue.c ****     *
 608:Generated_Source\PSoC5/RGB_PWM_blue.c ****     * Return:
 609:Generated_Source\PSoC5/RGB_PWM_blue.c ****     *  None
 610:Generated_Source\PSoC5/RGB_PWM_blue.c ****     *
 611:Generated_Source\PSoC5/RGB_PWM_blue.c ****     *******************************************************************************/
 612:Generated_Source\PSoC5/RGB_PWM_blue.c ****     void RGB_PWM_blue_WriteDeadTime(uint8 deadtime) 
 613:Generated_Source\PSoC5/RGB_PWM_blue.c ****     {
 614:Generated_Source\PSoC5/RGB_PWM_blue.c ****         /* If using the Dead Band 1-255 mode then just write the register */
 615:Generated_Source\PSoC5/RGB_PWM_blue.c ****         #if(!RGB_PWM_blue_DeadBand2_4)
 616:Generated_Source\PSoC5/RGB_PWM_blue.c ****             CY_SET_REG8(RGB_PWM_blue_DEADBAND_COUNT_PTR, deadtime);
 617:Generated_Source\PSoC5/RGB_PWM_blue.c ****         #else
 618:Generated_Source\PSoC5/RGB_PWM_blue.c ****             /* Otherwise the data has to be masked and offset */
 619:Generated_Source\PSoC5/RGB_PWM_blue.c ****             /* Clear existing data */
 620:Generated_Source\PSoC5/RGB_PWM_blue.c ****             RGB_PWM_blue_DEADBAND_COUNT &= ((uint8)(~RGB_PWM_blue_DEADBAND_COUNT_MASK));
 621:Generated_Source\PSoC5/RGB_PWM_blue.c **** 
ARM GAS  C:\Users\Asus\AppData\Local\Temp\ccBH8iPb.s 			page 17


 622:Generated_Source\PSoC5/RGB_PWM_blue.c ****             /* Set new dead time */
 623:Generated_Source\PSoC5/RGB_PWM_blue.c ****             #if(RGB_PWM_blue_DEADBAND_COUNT_SHIFT)
 624:Generated_Source\PSoC5/RGB_PWM_blue.c ****                 RGB_PWM_blue_DEADBAND_COUNT |= ((uint8)((uint8)deadtime << RGB_PWM_blue_DEADBAND_CO
 625:Generated_Source\PSoC5/RGB_PWM_blue.c ****                                                     RGB_PWM_blue_DEADBAND_COUNT_MASK;
 626:Generated_Source\PSoC5/RGB_PWM_blue.c ****             #else
 627:Generated_Source\PSoC5/RGB_PWM_blue.c ****                 RGB_PWM_blue_DEADBAND_COUNT |= deadtime & RGB_PWM_blue_DEADBAND_COUNT_MASK;
 628:Generated_Source\PSoC5/RGB_PWM_blue.c ****             #endif /* (RGB_PWM_blue_DEADBAND_COUNT_SHIFT) */
 629:Generated_Source\PSoC5/RGB_PWM_blue.c **** 
 630:Generated_Source\PSoC5/RGB_PWM_blue.c ****         #endif /* (!RGB_PWM_blue_DeadBand2_4) */
 631:Generated_Source\PSoC5/RGB_PWM_blue.c ****     }
 632:Generated_Source\PSoC5/RGB_PWM_blue.c **** 
 633:Generated_Source\PSoC5/RGB_PWM_blue.c **** 
 634:Generated_Source\PSoC5/RGB_PWM_blue.c ****     /*******************************************************************************
 635:Generated_Source\PSoC5/RGB_PWM_blue.c ****     * Function Name: RGB_PWM_blue_ReadDeadTime
 636:Generated_Source\PSoC5/RGB_PWM_blue.c ****     ********************************************************************************
 637:Generated_Source\PSoC5/RGB_PWM_blue.c ****     *
 638:Generated_Source\PSoC5/RGB_PWM_blue.c ****     * Summary:
 639:Generated_Source\PSoC5/RGB_PWM_blue.c ****     *  This function reads the dead-band counts from the corresponding register
 640:Generated_Source\PSoC5/RGB_PWM_blue.c ****     *
 641:Generated_Source\PSoC5/RGB_PWM_blue.c ****     * Parameters:
 642:Generated_Source\PSoC5/RGB_PWM_blue.c ****     *  None
 643:Generated_Source\PSoC5/RGB_PWM_blue.c ****     *
 644:Generated_Source\PSoC5/RGB_PWM_blue.c ****     * Return:
 645:Generated_Source\PSoC5/RGB_PWM_blue.c ****     *  Dead Band Counts
 646:Generated_Source\PSoC5/RGB_PWM_blue.c ****     *
 647:Generated_Source\PSoC5/RGB_PWM_blue.c ****     *******************************************************************************/
 648:Generated_Source\PSoC5/RGB_PWM_blue.c ****     uint8 RGB_PWM_blue_ReadDeadTime(void) 
 649:Generated_Source\PSoC5/RGB_PWM_blue.c ****     {
 650:Generated_Source\PSoC5/RGB_PWM_blue.c ****         /* If using the Dead Band 1-255 mode then just read the register */
 651:Generated_Source\PSoC5/RGB_PWM_blue.c ****         #if(!RGB_PWM_blue_DeadBand2_4)
 652:Generated_Source\PSoC5/RGB_PWM_blue.c ****             return (CY_GET_REG8(RGB_PWM_blue_DEADBAND_COUNT_PTR));
 653:Generated_Source\PSoC5/RGB_PWM_blue.c ****         #else
 654:Generated_Source\PSoC5/RGB_PWM_blue.c **** 
 655:Generated_Source\PSoC5/RGB_PWM_blue.c ****             /* Otherwise the data has to be masked and offset */
 656:Generated_Source\PSoC5/RGB_PWM_blue.c ****             #if(RGB_PWM_blue_DEADBAND_COUNT_SHIFT)
 657:Generated_Source\PSoC5/RGB_PWM_blue.c ****                 return ((uint8)(((uint8)(RGB_PWM_blue_DEADBAND_COUNT & RGB_PWM_blue_DEADBAND_COUNT_
 658:Generated_Source\PSoC5/RGB_PWM_blue.c ****                                                                            RGB_PWM_blue_DEADBAND_CO
 659:Generated_Source\PSoC5/RGB_PWM_blue.c ****             #else
 660:Generated_Source\PSoC5/RGB_PWM_blue.c ****                 return (RGB_PWM_blue_DEADBAND_COUNT & RGB_PWM_blue_DEADBAND_COUNT_MASK);
 661:Generated_Source\PSoC5/RGB_PWM_blue.c ****             #endif /* (RGB_PWM_blue_DEADBAND_COUNT_SHIFT) */
 662:Generated_Source\PSoC5/RGB_PWM_blue.c ****         #endif /* (!RGB_PWM_blue_DeadBand2_4) */
 663:Generated_Source\PSoC5/RGB_PWM_blue.c ****     }
 664:Generated_Source\PSoC5/RGB_PWM_blue.c **** #endif /* DeadBandUsed */
 665:Generated_Source\PSoC5/RGB_PWM_blue.c **** 
 666:Generated_Source\PSoC5/RGB_PWM_blue.c **** #if (RGB_PWM_blue_UseStatus || RGB_PWM_blue_UsingFixedFunction)
 667:Generated_Source\PSoC5/RGB_PWM_blue.c **** 
 668:Generated_Source\PSoC5/RGB_PWM_blue.c **** 
 669:Generated_Source\PSoC5/RGB_PWM_blue.c ****     /*******************************************************************************
 670:Generated_Source\PSoC5/RGB_PWM_blue.c ****     * Function Name: RGB_PWM_blue_SetInterruptMode
 671:Generated_Source\PSoC5/RGB_PWM_blue.c ****     ********************************************************************************
 672:Generated_Source\PSoC5/RGB_PWM_blue.c ****     *
 673:Generated_Source\PSoC5/RGB_PWM_blue.c ****     * Summary:
 674:Generated_Source\PSoC5/RGB_PWM_blue.c ****     *  This function configures the interrupts mask control of theinterrupt
 675:Generated_Source\PSoC5/RGB_PWM_blue.c ****     *  source status register.
 676:Generated_Source\PSoC5/RGB_PWM_blue.c ****     *
 677:Generated_Source\PSoC5/RGB_PWM_blue.c ****     * Parameters:
 678:Generated_Source\PSoC5/RGB_PWM_blue.c ****     *  uint8 interruptMode: Bit field containing the interrupt sources enabled
ARM GAS  C:\Users\Asus\AppData\Local\Temp\ccBH8iPb.s 			page 18


 679:Generated_Source\PSoC5/RGB_PWM_blue.c ****     *
 680:Generated_Source\PSoC5/RGB_PWM_blue.c ****     * Return:
 681:Generated_Source\PSoC5/RGB_PWM_blue.c ****     *  None
 682:Generated_Source\PSoC5/RGB_PWM_blue.c ****     *
 683:Generated_Source\PSoC5/RGB_PWM_blue.c ****     *******************************************************************************/
 684:Generated_Source\PSoC5/RGB_PWM_blue.c ****     void RGB_PWM_blue_SetInterruptMode(uint8 interruptMode) 
 685:Generated_Source\PSoC5/RGB_PWM_blue.c ****     {
 686:Generated_Source\PSoC5/RGB_PWM_blue.c ****         CY_SET_REG8(RGB_PWM_blue_STATUS_MASK_PTR, interruptMode);
 687:Generated_Source\PSoC5/RGB_PWM_blue.c ****     }
 688:Generated_Source\PSoC5/RGB_PWM_blue.c **** 
 689:Generated_Source\PSoC5/RGB_PWM_blue.c **** 
 690:Generated_Source\PSoC5/RGB_PWM_blue.c ****     /*******************************************************************************
 691:Generated_Source\PSoC5/RGB_PWM_blue.c ****     * Function Name: RGB_PWM_blue_ReadStatusRegister
 692:Generated_Source\PSoC5/RGB_PWM_blue.c ****     ********************************************************************************
 693:Generated_Source\PSoC5/RGB_PWM_blue.c ****     *
 694:Generated_Source\PSoC5/RGB_PWM_blue.c ****     * Summary:
 695:Generated_Source\PSoC5/RGB_PWM_blue.c ****     *  This function returns the current state of the status register.
 696:Generated_Source\PSoC5/RGB_PWM_blue.c ****     *
 697:Generated_Source\PSoC5/RGB_PWM_blue.c ****     * Parameters:
 698:Generated_Source\PSoC5/RGB_PWM_blue.c ****     *  None
 699:Generated_Source\PSoC5/RGB_PWM_blue.c ****     *
 700:Generated_Source\PSoC5/RGB_PWM_blue.c ****     * Return:
 701:Generated_Source\PSoC5/RGB_PWM_blue.c ****     *  uint8 : Current status register value. The status register bits are:
 702:Generated_Source\PSoC5/RGB_PWM_blue.c ****     *  [7:6] : Unused(0)
 703:Generated_Source\PSoC5/RGB_PWM_blue.c ****     *  [5]   : Kill event output
 704:Generated_Source\PSoC5/RGB_PWM_blue.c ****     *  [4]   : FIFO not empty
 705:Generated_Source\PSoC5/RGB_PWM_blue.c ****     *  [3]   : FIFO full
 706:Generated_Source\PSoC5/RGB_PWM_blue.c ****     *  [2]   : Terminal count
 707:Generated_Source\PSoC5/RGB_PWM_blue.c ****     *  [1]   : Compare output 2
 708:Generated_Source\PSoC5/RGB_PWM_blue.c ****     *  [0]   : Compare output 1
 709:Generated_Source\PSoC5/RGB_PWM_blue.c ****     *
 710:Generated_Source\PSoC5/RGB_PWM_blue.c ****     *******************************************************************************/
 711:Generated_Source\PSoC5/RGB_PWM_blue.c ****     uint8 RGB_PWM_blue_ReadStatusRegister(void) 
 712:Generated_Source\PSoC5/RGB_PWM_blue.c ****     {
 713:Generated_Source\PSoC5/RGB_PWM_blue.c ****         return (CY_GET_REG8(RGB_PWM_blue_STATUS_PTR));
 714:Generated_Source\PSoC5/RGB_PWM_blue.c ****     }
 715:Generated_Source\PSoC5/RGB_PWM_blue.c **** 
 716:Generated_Source\PSoC5/RGB_PWM_blue.c **** #endif /* (RGB_PWM_blue_UseStatus || RGB_PWM_blue_UsingFixedFunction) */
 717:Generated_Source\PSoC5/RGB_PWM_blue.c **** 
 718:Generated_Source\PSoC5/RGB_PWM_blue.c **** 
 719:Generated_Source\PSoC5/RGB_PWM_blue.c **** #if (RGB_PWM_blue_UseControl)
 720:Generated_Source\PSoC5/RGB_PWM_blue.c **** 
 721:Generated_Source\PSoC5/RGB_PWM_blue.c **** 
 722:Generated_Source\PSoC5/RGB_PWM_blue.c ****     /*******************************************************************************
 723:Generated_Source\PSoC5/RGB_PWM_blue.c ****     * Function Name: RGB_PWM_blue_ReadControlRegister
 724:Generated_Source\PSoC5/RGB_PWM_blue.c ****     ********************************************************************************
 725:Generated_Source\PSoC5/RGB_PWM_blue.c ****     *
 726:Generated_Source\PSoC5/RGB_PWM_blue.c ****     * Summary:
 727:Generated_Source\PSoC5/RGB_PWM_blue.c ****     *  Returns the current state of the control register. This API is available
 728:Generated_Source\PSoC5/RGB_PWM_blue.c ****     *  only if the control register is not removed.
 729:Generated_Source\PSoC5/RGB_PWM_blue.c ****     *
 730:Generated_Source\PSoC5/RGB_PWM_blue.c ****     * Parameters:
 731:Generated_Source\PSoC5/RGB_PWM_blue.c ****     *  None
 732:Generated_Source\PSoC5/RGB_PWM_blue.c ****     *
 733:Generated_Source\PSoC5/RGB_PWM_blue.c ****     * Return:
 734:Generated_Source\PSoC5/RGB_PWM_blue.c ****     *  uint8 : Current control register value
 735:Generated_Source\PSoC5/RGB_PWM_blue.c ****     *
ARM GAS  C:\Users\Asus\AppData\Local\Temp\ccBH8iPb.s 			page 19


 736:Generated_Source\PSoC5/RGB_PWM_blue.c ****     *******************************************************************************/
 737:Generated_Source\PSoC5/RGB_PWM_blue.c ****     uint8 RGB_PWM_blue_ReadControlRegister(void) 
 738:Generated_Source\PSoC5/RGB_PWM_blue.c ****     {
 279              		.loc 1 738 0
 280              		.cfi_startproc
 281              		@ args = 0, pretend = 0, frame = 0
 282              		@ frame_needed = 0, uses_anonymous_args = 0
 283              		@ link register save eliminated.
 739:Generated_Source\PSoC5/RGB_PWM_blue.c ****         uint8 result;
 740:Generated_Source\PSoC5/RGB_PWM_blue.c **** 
 741:Generated_Source\PSoC5/RGB_PWM_blue.c ****         result = CY_GET_REG8(RGB_PWM_blue_CONTROL_PTR);
 284              		.loc 1 741 0
 285 0000 014B     		ldr	r3, .L29
 286 0002 1878     		ldrb	r0, [r3]	@ zero_extendqisi2
 287              	.LVL10:
 742:Generated_Source\PSoC5/RGB_PWM_blue.c ****         return (result);
 743:Generated_Source\PSoC5/RGB_PWM_blue.c ****     }
 288              		.loc 1 743 0
 289 0004 7047     		bx	lr
 290              	.L30:
 291 0006 00BF     		.align	2
 292              	.L29:
 293 0008 7D640040 		.word	1073767549
 294              		.cfi_endproc
 295              	.LFE8:
 296              		.size	RGB_PWM_blue_ReadControlRegister, .-RGB_PWM_blue_ReadControlRegister
 297              		.section	.text.RGB_PWM_blue_WriteControlRegister,"ax",%progbits
 298              		.align	2
 299              		.global	RGB_PWM_blue_WriteControlRegister
 300              		.thumb
 301              		.thumb_func
 302              		.type	RGB_PWM_blue_WriteControlRegister, %function
 303              	RGB_PWM_blue_WriteControlRegister:
 304              	.LFB9:
 744:Generated_Source\PSoC5/RGB_PWM_blue.c **** 
 745:Generated_Source\PSoC5/RGB_PWM_blue.c **** 
 746:Generated_Source\PSoC5/RGB_PWM_blue.c ****     /*******************************************************************************
 747:Generated_Source\PSoC5/RGB_PWM_blue.c ****     * Function Name: RGB_PWM_blue_WriteControlRegister
 748:Generated_Source\PSoC5/RGB_PWM_blue.c ****     ********************************************************************************
 749:Generated_Source\PSoC5/RGB_PWM_blue.c ****     *
 750:Generated_Source\PSoC5/RGB_PWM_blue.c ****     * Summary:
 751:Generated_Source\PSoC5/RGB_PWM_blue.c ****     *  Sets the bit field of the control register. This API is available only if
 752:Generated_Source\PSoC5/RGB_PWM_blue.c ****     *  the control register is not removed.
 753:Generated_Source\PSoC5/RGB_PWM_blue.c ****     *
 754:Generated_Source\PSoC5/RGB_PWM_blue.c ****     * Parameters:
 755:Generated_Source\PSoC5/RGB_PWM_blue.c ****     *  uint8 control: Control register bit field, The status register bits are:
 756:Generated_Source\PSoC5/RGB_PWM_blue.c ****     *  [7]   : PWM Enable
 757:Generated_Source\PSoC5/RGB_PWM_blue.c ****     *  [6]   : Reset
 758:Generated_Source\PSoC5/RGB_PWM_blue.c ****     *  [5:3] : Compare Mode2
 759:Generated_Source\PSoC5/RGB_PWM_blue.c ****     *  [2:0] : Compare Mode2
 760:Generated_Source\PSoC5/RGB_PWM_blue.c ****     *
 761:Generated_Source\PSoC5/RGB_PWM_blue.c ****     * Return:
 762:Generated_Source\PSoC5/RGB_PWM_blue.c ****     *  None
 763:Generated_Source\PSoC5/RGB_PWM_blue.c ****     *
 764:Generated_Source\PSoC5/RGB_PWM_blue.c ****     *******************************************************************************/
 765:Generated_Source\PSoC5/RGB_PWM_blue.c ****     void RGB_PWM_blue_WriteControlRegister(uint8 control) 
 766:Generated_Source\PSoC5/RGB_PWM_blue.c ****     {
ARM GAS  C:\Users\Asus\AppData\Local\Temp\ccBH8iPb.s 			page 20


 305              		.loc 1 766 0
 306              		.cfi_startproc
 307              		@ args = 0, pretend = 0, frame = 0
 308              		@ frame_needed = 0, uses_anonymous_args = 0
 309              		@ link register save eliminated.
 310              	.LVL11:
 767:Generated_Source\PSoC5/RGB_PWM_blue.c ****         CY_SET_REG8(RGB_PWM_blue_CONTROL_PTR, control);
 311              		.loc 1 767 0
 312 0000 014B     		ldr	r3, .L32
 313 0002 1870     		strb	r0, [r3]
 314 0004 7047     		bx	lr
 315              	.L33:
 316 0006 00BF     		.align	2
 317              	.L32:
 318 0008 7D640040 		.word	1073767549
 319              		.cfi_endproc
 320              	.LFE9:
 321              		.size	RGB_PWM_blue_WriteControlRegister, .-RGB_PWM_blue_WriteControlRegister
 322              		.section	.text.RGB_PWM_blue_ReadCapture,"ax",%progbits
 323              		.align	2
 324              		.global	RGB_PWM_blue_ReadCapture
 325              		.thumb
 326              		.thumb_func
 327              		.type	RGB_PWM_blue_ReadCapture, %function
 328              	RGB_PWM_blue_ReadCapture:
 329              	.LFB10:
 768:Generated_Source\PSoC5/RGB_PWM_blue.c ****     }
 769:Generated_Source\PSoC5/RGB_PWM_blue.c **** 
 770:Generated_Source\PSoC5/RGB_PWM_blue.c **** #endif /* (RGB_PWM_blue_UseControl) */
 771:Generated_Source\PSoC5/RGB_PWM_blue.c **** 
 772:Generated_Source\PSoC5/RGB_PWM_blue.c **** 
 773:Generated_Source\PSoC5/RGB_PWM_blue.c **** #if (!RGB_PWM_blue_UsingFixedFunction)
 774:Generated_Source\PSoC5/RGB_PWM_blue.c **** 
 775:Generated_Source\PSoC5/RGB_PWM_blue.c **** 
 776:Generated_Source\PSoC5/RGB_PWM_blue.c ****     /*******************************************************************************
 777:Generated_Source\PSoC5/RGB_PWM_blue.c ****     * Function Name: RGB_PWM_blue_ReadCapture
 778:Generated_Source\PSoC5/RGB_PWM_blue.c ****     ********************************************************************************
 779:Generated_Source\PSoC5/RGB_PWM_blue.c ****     *
 780:Generated_Source\PSoC5/RGB_PWM_blue.c ****     * Summary:
 781:Generated_Source\PSoC5/RGB_PWM_blue.c ****     *  Reads the capture value from the capture FIFO.
 782:Generated_Source\PSoC5/RGB_PWM_blue.c ****     *
 783:Generated_Source\PSoC5/RGB_PWM_blue.c ****     * Parameters:
 784:Generated_Source\PSoC5/RGB_PWM_blue.c ****     *  None
 785:Generated_Source\PSoC5/RGB_PWM_blue.c ****     *
 786:Generated_Source\PSoC5/RGB_PWM_blue.c ****     * Return:
 787:Generated_Source\PSoC5/RGB_PWM_blue.c ****     *  uint8/uint16: The current capture value
 788:Generated_Source\PSoC5/RGB_PWM_blue.c ****     *
 789:Generated_Source\PSoC5/RGB_PWM_blue.c ****     *******************************************************************************/
 790:Generated_Source\PSoC5/RGB_PWM_blue.c ****     uint16 RGB_PWM_blue_ReadCapture(void) 
 791:Generated_Source\PSoC5/RGB_PWM_blue.c ****     {
 330              		.loc 1 791 0
 331              		.cfi_startproc
 332              		@ args = 0, pretend = 0, frame = 0
 333              		@ frame_needed = 0, uses_anonymous_args = 0
 334              		@ link register save eliminated.
 792:Generated_Source\PSoC5/RGB_PWM_blue.c ****         return (CY_GET_REG16(RGB_PWM_blue_CAPTURE_LSB_PTR));
 335              		.loc 1 792 0
ARM GAS  C:\Users\Asus\AppData\Local\Temp\ccBH8iPb.s 			page 21


 336 0000 014B     		ldr	r3, .L35
 337 0002 1888     		ldrh	r0, [r3]
 793:Generated_Source\PSoC5/RGB_PWM_blue.c ****     }
 338              		.loc 1 793 0
 339 0004 80B2     		uxth	r0, r0
 340 0006 7047     		bx	lr
 341              	.L36:
 342              		.align	2
 343              	.L35:
 344 0008 B8680040 		.word	1073768632
 345              		.cfi_endproc
 346              	.LFE10:
 347              		.size	RGB_PWM_blue_ReadCapture, .-RGB_PWM_blue_ReadCapture
 348              		.section	.text.RGB_PWM_blue_ReadCompare,"ax",%progbits
 349              		.align	2
 350              		.global	RGB_PWM_blue_ReadCompare
 351              		.thumb
 352              		.thumb_func
 353              		.type	RGB_PWM_blue_ReadCompare, %function
 354              	RGB_PWM_blue_ReadCompare:
 355              	.LFB11:
 794:Generated_Source\PSoC5/RGB_PWM_blue.c **** 
 795:Generated_Source\PSoC5/RGB_PWM_blue.c **** #endif /* (!RGB_PWM_blue_UsingFixedFunction) */
 796:Generated_Source\PSoC5/RGB_PWM_blue.c **** 
 797:Generated_Source\PSoC5/RGB_PWM_blue.c **** 
 798:Generated_Source\PSoC5/RGB_PWM_blue.c **** #if (RGB_PWM_blue_UseOneCompareMode)
 799:Generated_Source\PSoC5/RGB_PWM_blue.c **** 
 800:Generated_Source\PSoC5/RGB_PWM_blue.c **** 
 801:Generated_Source\PSoC5/RGB_PWM_blue.c ****     /*******************************************************************************
 802:Generated_Source\PSoC5/RGB_PWM_blue.c ****     * Function Name: RGB_PWM_blue_ReadCompare
 803:Generated_Source\PSoC5/RGB_PWM_blue.c ****     ********************************************************************************
 804:Generated_Source\PSoC5/RGB_PWM_blue.c ****     *
 805:Generated_Source\PSoC5/RGB_PWM_blue.c ****     * Summary:
 806:Generated_Source\PSoC5/RGB_PWM_blue.c ****     *  Reads the compare value for the compare output when the PWM Mode parameter is
 807:Generated_Source\PSoC5/RGB_PWM_blue.c ****     *  set to Dither mode, Center Aligned mode, or One Output mode.
 808:Generated_Source\PSoC5/RGB_PWM_blue.c ****     *
 809:Generated_Source\PSoC5/RGB_PWM_blue.c ****     * Parameters:
 810:Generated_Source\PSoC5/RGB_PWM_blue.c ****     *  None
 811:Generated_Source\PSoC5/RGB_PWM_blue.c ****     *
 812:Generated_Source\PSoC5/RGB_PWM_blue.c ****     * Return:
 813:Generated_Source\PSoC5/RGB_PWM_blue.c ****     *  uint8/uint16: Current compare value
 814:Generated_Source\PSoC5/RGB_PWM_blue.c ****     *
 815:Generated_Source\PSoC5/RGB_PWM_blue.c ****     *******************************************************************************/
 816:Generated_Source\PSoC5/RGB_PWM_blue.c ****     uint16 RGB_PWM_blue_ReadCompare(void) 
 817:Generated_Source\PSoC5/RGB_PWM_blue.c ****     {
 356              		.loc 1 817 0
 357              		.cfi_startproc
 358              		@ args = 0, pretend = 0, frame = 0
 359              		@ frame_needed = 0, uses_anonymous_args = 0
 360              		@ link register save eliminated.
 818:Generated_Source\PSoC5/RGB_PWM_blue.c ****         #if(RGB_PWM_blue_UsingFixedFunction)
 819:Generated_Source\PSoC5/RGB_PWM_blue.c ****             return ((uint16)CY_GET_REG16(RGB_PWM_blue_COMPARE1_LSB_PTR));
 820:Generated_Source\PSoC5/RGB_PWM_blue.c ****         #else
 821:Generated_Source\PSoC5/RGB_PWM_blue.c ****             return (CY_GET_REG16(RGB_PWM_blue_COMPARE1_LSB_PTR));
 361              		.loc 1 821 0
 362 0000 014B     		ldr	r3, .L38
 363 0002 1888     		ldrh	r0, [r3]
ARM GAS  C:\Users\Asus\AppData\Local\Temp\ccBH8iPb.s 			page 22


 822:Generated_Source\PSoC5/RGB_PWM_blue.c ****         #endif /* (RGB_PWM_blue_UsingFixedFunction) */
 823:Generated_Source\PSoC5/RGB_PWM_blue.c ****     }
 364              		.loc 1 823 0
 365 0004 80B2     		uxth	r0, r0
 366 0006 7047     		bx	lr
 367              	.L39:
 368              		.align	2
 369              	.L38:
 370 0008 58680040 		.word	1073768536
 371              		.cfi_endproc
 372              	.LFE11:
 373              		.size	RGB_PWM_blue_ReadCompare, .-RGB_PWM_blue_ReadCompare
 374              		.section	.text.RGB_PWM_blue_ReadPeriod,"ax",%progbits
 375              		.align	2
 376              		.global	RGB_PWM_blue_ReadPeriod
 377              		.thumb
 378              		.thumb_func
 379              		.type	RGB_PWM_blue_ReadPeriod, %function
 380              	RGB_PWM_blue_ReadPeriod:
 381              	.LFB12:
 824:Generated_Source\PSoC5/RGB_PWM_blue.c **** 
 825:Generated_Source\PSoC5/RGB_PWM_blue.c **** #else
 826:Generated_Source\PSoC5/RGB_PWM_blue.c **** 
 827:Generated_Source\PSoC5/RGB_PWM_blue.c **** 
 828:Generated_Source\PSoC5/RGB_PWM_blue.c ****     /*******************************************************************************
 829:Generated_Source\PSoC5/RGB_PWM_blue.c ****     * Function Name: RGB_PWM_blue_ReadCompare1
 830:Generated_Source\PSoC5/RGB_PWM_blue.c ****     ********************************************************************************
 831:Generated_Source\PSoC5/RGB_PWM_blue.c ****     *
 832:Generated_Source\PSoC5/RGB_PWM_blue.c ****     * Summary:
 833:Generated_Source\PSoC5/RGB_PWM_blue.c ****     *  Reads the compare value for the compare1 output.
 834:Generated_Source\PSoC5/RGB_PWM_blue.c ****     *
 835:Generated_Source\PSoC5/RGB_PWM_blue.c ****     * Parameters:
 836:Generated_Source\PSoC5/RGB_PWM_blue.c ****     *  None
 837:Generated_Source\PSoC5/RGB_PWM_blue.c ****     *
 838:Generated_Source\PSoC5/RGB_PWM_blue.c ****     * Return:
 839:Generated_Source\PSoC5/RGB_PWM_blue.c ****     *  uint8/uint16: Current compare value.
 840:Generated_Source\PSoC5/RGB_PWM_blue.c ****     *
 841:Generated_Source\PSoC5/RGB_PWM_blue.c ****     *******************************************************************************/
 842:Generated_Source\PSoC5/RGB_PWM_blue.c ****     uint16 RGB_PWM_blue_ReadCompare1(void) 
 843:Generated_Source\PSoC5/RGB_PWM_blue.c ****     {
 844:Generated_Source\PSoC5/RGB_PWM_blue.c ****         return (CY_GET_REG16(RGB_PWM_blue_COMPARE1_LSB_PTR));
 845:Generated_Source\PSoC5/RGB_PWM_blue.c ****     }
 846:Generated_Source\PSoC5/RGB_PWM_blue.c **** 
 847:Generated_Source\PSoC5/RGB_PWM_blue.c **** 
 848:Generated_Source\PSoC5/RGB_PWM_blue.c ****     /*******************************************************************************
 849:Generated_Source\PSoC5/RGB_PWM_blue.c ****     * Function Name: RGB_PWM_blue_ReadCompare2
 850:Generated_Source\PSoC5/RGB_PWM_blue.c ****     ********************************************************************************
 851:Generated_Source\PSoC5/RGB_PWM_blue.c ****     *
 852:Generated_Source\PSoC5/RGB_PWM_blue.c ****     * Summary:
 853:Generated_Source\PSoC5/RGB_PWM_blue.c ****     *  Reads the compare value for the compare2 output.
 854:Generated_Source\PSoC5/RGB_PWM_blue.c ****     *
 855:Generated_Source\PSoC5/RGB_PWM_blue.c ****     * Parameters:
 856:Generated_Source\PSoC5/RGB_PWM_blue.c ****     *  None
 857:Generated_Source\PSoC5/RGB_PWM_blue.c ****     *
 858:Generated_Source\PSoC5/RGB_PWM_blue.c ****     * Return:
 859:Generated_Source\PSoC5/RGB_PWM_blue.c ****     *  uint8/uint16: Current compare value.
 860:Generated_Source\PSoC5/RGB_PWM_blue.c ****     *
ARM GAS  C:\Users\Asus\AppData\Local\Temp\ccBH8iPb.s 			page 23


 861:Generated_Source\PSoC5/RGB_PWM_blue.c ****     *******************************************************************************/
 862:Generated_Source\PSoC5/RGB_PWM_blue.c ****     uint16 RGB_PWM_blue_ReadCompare2(void) 
 863:Generated_Source\PSoC5/RGB_PWM_blue.c ****     {
 864:Generated_Source\PSoC5/RGB_PWM_blue.c ****         return (CY_GET_REG16(RGB_PWM_blue_COMPARE2_LSB_PTR));
 865:Generated_Source\PSoC5/RGB_PWM_blue.c ****     }
 866:Generated_Source\PSoC5/RGB_PWM_blue.c **** 
 867:Generated_Source\PSoC5/RGB_PWM_blue.c **** #endif /* (RGB_PWM_blue_UseOneCompareMode) */
 868:Generated_Source\PSoC5/RGB_PWM_blue.c **** 
 869:Generated_Source\PSoC5/RGB_PWM_blue.c **** 
 870:Generated_Source\PSoC5/RGB_PWM_blue.c **** /*******************************************************************************
 871:Generated_Source\PSoC5/RGB_PWM_blue.c **** * Function Name: RGB_PWM_blue_ReadPeriod
 872:Generated_Source\PSoC5/RGB_PWM_blue.c **** ********************************************************************************
 873:Generated_Source\PSoC5/RGB_PWM_blue.c **** *
 874:Generated_Source\PSoC5/RGB_PWM_blue.c **** * Summary:
 875:Generated_Source\PSoC5/RGB_PWM_blue.c **** *  Reads the period value used by the PWM hardware.
 876:Generated_Source\PSoC5/RGB_PWM_blue.c **** *
 877:Generated_Source\PSoC5/RGB_PWM_blue.c **** * Parameters:
 878:Generated_Source\PSoC5/RGB_PWM_blue.c **** *  None
 879:Generated_Source\PSoC5/RGB_PWM_blue.c **** *
 880:Generated_Source\PSoC5/RGB_PWM_blue.c **** * Return:
 881:Generated_Source\PSoC5/RGB_PWM_blue.c **** *  uint8/16: Period value
 882:Generated_Source\PSoC5/RGB_PWM_blue.c **** *
 883:Generated_Source\PSoC5/RGB_PWM_blue.c **** *******************************************************************************/
 884:Generated_Source\PSoC5/RGB_PWM_blue.c **** uint16 RGB_PWM_blue_ReadPeriod(void) 
 885:Generated_Source\PSoC5/RGB_PWM_blue.c **** {
 382              		.loc 1 885 0
 383              		.cfi_startproc
 384              		@ args = 0, pretend = 0, frame = 0
 385              		@ frame_needed = 0, uses_anonymous_args = 0
 386              		@ link register save eliminated.
 886:Generated_Source\PSoC5/RGB_PWM_blue.c ****     #if(RGB_PWM_blue_UsingFixedFunction)
 887:Generated_Source\PSoC5/RGB_PWM_blue.c ****         return ((uint16)CY_GET_REG16(RGB_PWM_blue_PERIOD_LSB_PTR));
 888:Generated_Source\PSoC5/RGB_PWM_blue.c ****     #else
 889:Generated_Source\PSoC5/RGB_PWM_blue.c ****         return (CY_GET_REG16(RGB_PWM_blue_PERIOD_LSB_PTR));
 387              		.loc 1 889 0
 388 0000 014B     		ldr	r3, .L41
 389 0002 1888     		ldrh	r0, [r3]
 890:Generated_Source\PSoC5/RGB_PWM_blue.c ****     #endif /* (RGB_PWM_blue_UsingFixedFunction) */
 891:Generated_Source\PSoC5/RGB_PWM_blue.c **** }
 390              		.loc 1 891 0
 391 0004 80B2     		uxth	r0, r0
 392 0006 7047     		bx	lr
 393              	.L42:
 394              		.align	2
 395              	.L41:
 396 0008 98680040 		.word	1073768600
 397              		.cfi_endproc
 398              	.LFE12:
 399              		.size	RGB_PWM_blue_ReadPeriod, .-RGB_PWM_blue_ReadPeriod
 400              		.global	RGB_PWM_blue_initVar
 401              		.bss
 402              		.set	.LANCHOR0,. + 0
 403              		.type	RGB_PWM_blue_initVar, %object
 404              		.size	RGB_PWM_blue_initVar, 1
 405              	RGB_PWM_blue_initVar:
 406 0000 00       		.space	1
 407              		.text
ARM GAS  C:\Users\Asus\AppData\Local\Temp\ccBH8iPb.s 			page 24


 408              	.Letext0:
 409              		.file 2 "Generated_Source\\PSoC5\\cytypes.h"