ARM GAS  C:\Users\Asus\AppData\Local\Temp\ccFUj79K.s 			page 1


   1              		.syntax unified
   2              		.cpu cortex-m3
   3              		.fpu softvfp
   4              		.eabi_attribute 20, 1
   5              		.eabi_attribute 21, 1
   6              		.eabi_attribute 23, 3
   7              		.eabi_attribute 24, 1
   8              		.eabi_attribute 25, 1
   9              		.eabi_attribute 26, 1
  10              		.eabi_attribute 30, 1
  11              		.eabi_attribute 34, 1
  12              		.eabi_attribute 18, 4
  13              		.thumb
  14              		.syntax unified
  15              		.file	"sc_joystick_type.c"
  16              		.text
  17              	.Ltext0:
  18              		.cfi_sections	.debug_frame
  19              		.section	.text.SC_JOYSTICK_driverIn,"ax",%progbits
  20              		.align	2
  21              		.global	SC_JOYSTICK_driverIn
  22              		.thumb
  23              		.thumb_func
  24              		.type	SC_JOYSTICK_driverIn, %function
  25              	SC_JOYSTICK_driverIn:
  26              	.LFB110:
  27              		.file 1 "sources\\rte\\sc_joystick_type.c"
   1:sources\rte/sc_joystick_type.c **** /*
   2:sources\rte/sc_joystick_type.c ****  * Filename: sc_joystick_type.c
   3:sources\rte/sc_joystick_type.c ****  *
   4:sources\rte/sc_joystick_type.c ****  * Author: Autogenerated by H-DA RTE Generator, (c) Prof. Fromm
   5:sources\rte/sc_joystick_type.c ****  *
   6:sources\rte/sc_joystick_type.c ****  * description: Joystick representation
   7:sources\rte/sc_joystick_type.c ****  * name: sc_joystick
   8:sources\rte/sc_joystick_type.c ****  * shortname: joystick
   9:sources\rte/sc_joystick_type.c ****  *
  10:sources\rte/sc_joystick_type.c ****  */
  11:sources\rte/sc_joystick_type.c **** 
  12:sources\rte/sc_joystick_type.c **** #include "project.h"
  13:sources\rte/sc_joystick_type.c **** #include "global.h"
  14:sources\rte/sc_joystick_type.c **** #include "rte.h"
  15:sources\rte/sc_joystick_type.c **** #include "rte_types.h"
  16:sources\rte/sc_joystick_type.c **** #include "joystick.h"
  17:sources\rte/sc_joystick_type.c **** #include "sc_joystick_type.h"
  18:sources\rte/sc_joystick_type.c **** 
  19:sources\rte/sc_joystick_type.c **** 
  20:sources\rte/sc_joystick_type.c **** 
  21:sources\rte/sc_joystick_type.c **** /* USER CODE START SC_JOYSTICK_INCLUDE */
  22:sources\rte/sc_joystick_type.c **** 
  23:sources\rte/sc_joystick_type.c **** /* USER CODE END SC_JOYSTICK_INCLUDE */
  24:sources\rte/sc_joystick_type.c **** 
  25:sources\rte/sc_joystick_type.c **** 
  26:sources\rte/sc_joystick_type.c **** 
  27:sources\rte/sc_joystick_type.c **** 
  28:sources\rte/sc_joystick_type.c **** /* USER CODE START SC_JOYSTICK_USERDEFINITIONS */
  29:sources\rte/sc_joystick_type.c **** 
  30:sources\rte/sc_joystick_type.c **** /* USER CODE END SC_JOYSTICK_USERDEFINITIONS */
ARM GAS  C:\Users\Asus\AppData\Local\Temp\ccFUj79K.s 			page 2


  31:sources\rte/sc_joystick_type.c **** 
  32:sources\rte/sc_joystick_type.c **** 
  33:sources\rte/sc_joystick_type.c **** /*****************************************************************************************
  34:sources\rte/sc_joystick_type.c ****  *************** Port Wrapper Implementation for SC_JOYSTICK signal  ****************
  35:sources\rte/sc_joystick_type.c ****  *****************************************************************************************/
  36:sources\rte/sc_joystick_type.c ****  
  37:sources\rte/sc_joystick_type.c ****  
  38:sources\rte/sc_joystick_type.c **** 
  39:sources\rte/sc_joystick_type.c **** /**
  40:sources\rte/sc_joystick_type.c ****  * Default IN driver API
  41:sources\rte/sc_joystick_type.c ****  */
  42:sources\rte/sc_joystick_type.c **** inline RC_t SC_JOYSTICK_driverIn(SC_JOYSTICK_data_t *const data)
  43:sources\rte/sc_joystick_type.c **** {
  28              		.loc 1 43 0
  29              		.cfi_startproc
  30              		@ args = 0, pretend = 0, frame = 8
  31              		@ frame_needed = 0, uses_anonymous_args = 0
  32              	.LVL0:
  33 0000 10B5     		push	{r4, lr}
  34              		.cfi_def_cfa_offset 8
  35              		.cfi_offset 4, -8
  36              		.cfi_offset 14, -4
  37 0002 82B0     		sub	sp, sp, #8
  38              		.cfi_def_cfa_offset 16
  39 0004 0446     		mov	r4, r0
  44:sources\rte/sc_joystick_type.c **** 	/* USER CODE START driverInSC_JOYSTICK */
  45:sources\rte/sc_joystick_type.c ****     //#error "Add your code here"
  46:sources\rte/sc_joystick_type.c ****     sint8_t a,b;
  47:sources\rte/sc_joystick_type.c ****     
  48:sources\rte/sc_joystick_type.c **** 	//Read data from the MCAL driver
  49:sources\rte/sc_joystick_type.c ****     JOYSTICK_ReadPosition(&a,&b);
  40              		.loc 1 49 0
  41 0006 0DF10601 		add	r1, sp, #6
  42 000a 0DF10700 		add	r0, sp, #7
  43              	.LVL1:
  44 000e FFF7FEFF 		bl	JOYSTICK_ReadPosition
  45              	.LVL2:
  50:sources\rte/sc_joystick_type.c ****     data->joystick_x =a;
  46              		.loc 1 50 0
  47 0012 9DF90730 		ldrsb	r3, [sp, #7]
  48 0016 2370     		strb	r3, [r4]
  51:sources\rte/sc_joystick_type.c ****     data->joystick_y =b;
  49              		.loc 1 51 0
  50 0018 9DF80630 		ldrb	r3, [sp, #6]	@ zero_extendqisi2
  51 001c 6370     		strb	r3, [r4, #1]
  52:sources\rte/sc_joystick_type.c **** 	//Scale it to the application type
  53:sources\rte/sc_joystick_type.c ****     
  54:sources\rte/sc_joystick_type.c **** 	return RC_SUCCESS;
  55:sources\rte/sc_joystick_type.c **** 	/* USER CODE END driverInSC_JOYSTICK */
  56:sources\rte/sc_joystick_type.c **** }...
  52              		.loc 1 56 0
  53 001e 0020     		movs	r0, #0
  54 0020 02B0     		add	sp, sp, #8
  55              		.cfi_def_cfa_offset 8
  56              		@ sp needed
  57 0022 10BD     		pop	{r4, pc}
  58              		.cfi_endproc
ARM GAS  C:\Users\Asus\AppData\Local\Temp\ccFUj79K.s 			page 3


  59              	.LFE110:
  60              		.size	SC_JOYSTICK_driverIn, .-SC_JOYSTICK_driverIn
  61              		.text
  62              	.Letext0:
  63              		.file 2 "c:\\program files (x86)\\cypress\\psoc creator\\4.4\\psoc creator\\import\\gnu\\arm\\5.4.
  64              		.file 3 "c:\\program files (x86)\\cypress\\psoc creator\\4.4\\psoc creator\\import\\gnu\\arm\\5.4.
  65              		.file 4 "Generated_Source\\PSoC5/ErikaOS_1_common_ee_types.inc"
  66              		.file 5 "Generated_Source\\PSoC5/ErikaOS_1_cortex_mx_ee_cpu.inc"
  67              		.file 6 ".\\sources\\bsw/global.h"
  68              		.file 7 "sources\\rte\\sc_joystick_type.h"
  69              		.file 8 "Generated_Source\\PSoC5/ErikaOS_1_ee_oo_intfunc.inc"
  70              		.file 9 "Generated_Source\\PSoC5/ErikaOS_1_cortex_mx_ee_context.inc"
  71              		.file 10 "Generated_Source\\PSoC5/ErikaOS_1_common_ee_primitives.inc"
  72              		.file 11 "Generated_Source\\PSoC5/core_cm3.h"
  73              		.file 12 ".\\sources\\bsw/joystick.h"