ARM GAS  C:\Users\Asus\AppData\Local\Temp\cclzuZxP.s 			page 1


   1              		.syntax unified
   2              		.cpu cortex-m3
   3              		.fpu softvfp
   4              		.eabi_attribute 20, 1
   5              		.eabi_attribute 21, 1
   6              		.eabi_attribute 23, 3
   7              		.eabi_attribute 24, 1
   8              		.eabi_attribute 25, 1
   9              		.eabi_attribute 26, 1
  10              		.eabi_attribute 30, 1
  11              		.eabi_attribute 34, 1
  12              		.eabi_attribute 18, 4
  13              		.thumb
  14              		.syntax unified
  15              		.file	"swc_brakelight.c"
  16              		.text
  17              	.Ltext0:
  18              		.cfi_sections	.debug_frame
  19              		.section	.text.BRAKELIGHT_setBrakeLight_run,"ax",%progbits
  20              		.align	2
  21              		.global	BRAKELIGHT_setBrakeLight_run
  22              		.thumb
  23              		.thumb_func
  24              		.type	BRAKELIGHT_setBrakeLight_run, %function
  25              	BRAKELIGHT_setBrakeLight_run:
  26              	.LFB132:
  27              		.file 1 "sources\\asw\\swc_brakelight.c"
   1:sources\asw/swc_brakelight.c **** /*
   2:sources\asw/swc_brakelight.c ****  * Filename: swc_brakelight.c
   3:sources\asw/swc_brakelight.c ****  *
   4:sources\asw/swc_brakelight.c ****  * Author: Autogenerated by H-DA RTE Generator, (c) Prof. Fromm
   5:sources\asw/swc_brakelight.c ****  *
   6:sources\asw/swc_brakelight.c ****  * description: Based on the value present on so_speed, this component will interact with the brake
   7:sources\asw/swc_brakelight.c ****  * name: swc_BrakeLight
   8:sources\asw/swc_brakelight.c ****  * shortname: BrakeLight
   9:sources\asw/swc_brakelight.c ****  *
  10:sources\asw/swc_brakelight.c ****  */
  11:sources\asw/swc_brakelight.c **** 
  12:sources\asw/swc_brakelight.c **** #include "project.h"
  13:sources\asw/swc_brakelight.c **** #include "global.h"
  14:sources\asw/swc_brakelight.c **** #include "rte.h"
  15:sources\asw/swc_brakelight.c **** #include "rte_types.h"
  16:sources\asw/swc_brakelight.c **** #include "swc_brakelight.h"
  17:sources\asw/swc_brakelight.c **** #include "WatchDogTimer.h" //Including WDT header file
  18:sources\asw/swc_brakelight.c **** 
  19:sources\asw/swc_brakelight.c **** 
  20:sources\asw/swc_brakelight.c **** /* USER CODE START SWC_BRAKELIGHT_INCLUDE */
  21:sources\asw/swc_brakelight.c **** 
  22:sources\asw/swc_brakelight.c **** /* USER CODE END SWC_BRAKELIGHT_INCLUDE */
  23:sources\asw/swc_brakelight.c **** 
  24:sources\asw/swc_brakelight.c **** 
  25:sources\asw/swc_brakelight.c **** #include "sp_common.h"
  26:sources\asw/swc_brakelight.c **** 
  27:sources\asw/swc_brakelight.c **** /* USER CODE START SWC_BRAKELIGHT_USERDEFINITIONS */
  28:sources\asw/swc_brakelight.c **** 
  29:sources\asw/swc_brakelight.c **** /* USER CODE END SWC_BRAKELIGHT_USERDEFINITIONS */
  30:sources\asw/swc_brakelight.c **** 
ARM GAS  C:\Users\Asus\AppData\Local\Temp\cclzuZxP.s 			page 2


  31:sources\asw/swc_brakelight.c **** 
  32:sources\asw/swc_brakelight.c **** 
  33:sources\asw/swc_brakelight.c **** /*
  34:sources\asw/swc_brakelight.c ****  * component: swc_BrakeLight
  35:sources\asw/swc_brakelight.c ****  * cycletime: 0
  36:sources\asw/swc_brakelight.c ****  * description: Runnable which will access the brake light depending on the value in the so_signal
  37:sources\asw/swc_brakelight.c ****  * events: ev_speed_onData
  38:sources\asw/swc_brakelight.c ****  * name: BRAKELIGHT_setBrakeLight_run
  39:sources\asw/swc_brakelight.c ****  * shortname: setBrakeLight
  40:sources\asw/swc_brakelight.c ****  * signalIN: so_speed
  41:sources\asw/swc_brakelight.c ****  * signalOUT: so_brakeLight
  42:sources\asw/swc_brakelight.c ****  * task: tsk_brakelight
  43:sources\asw/swc_brakelight.c ****  */
  44:sources\asw/swc_brakelight.c **** void BRAKELIGHT_setBrakeLight_run(RTE_event ev){
  28              		.loc 1 44 0
  29              		.cfi_startproc
  30              		@ args = 0, pretend = 0, frame = 0
  31              		@ frame_needed = 0, uses_anonymous_args = 0
  32              	.LVL0:
  33 0000 38B5     		push	{r3, r4, r5, lr}
  34              		.cfi_def_cfa_offset 16
  35              		.cfi_offset 3, -16
  36              		.cfi_offset 4, -12
  37              		.cfi_offset 5, -8
  38              		.cfi_offset 14, -4
  39              	.LVL1:
  45:sources\asw/swc_brakelight.c **** 	
  46:sources\asw/swc_brakelight.c **** 	/* USER CODE START BRAKELIGHT_setBrakeLight_run */
  47:sources\asw/swc_brakelight.c ****     //Giving Initial value of enginee speed as 0
  48:sources\asw/swc_brakelight.c ****     SC_SPEED_data_t breaklightspeedvalue = SC_SPEED_INIT_DATA;
  49:sources\asw/swc_brakelight.c ****     RC_t res = RC_SUCCESS;
  50:sources\asw/swc_brakelight.c ****     
  51:sources\asw/swc_brakelight.c ****     if (RTE_SC_SPEED_get(&SO_SPEED_signal).speed ==0)
  40              		.loc 1 51 0
  41 0002 1C4B     		ldr	r3, .L10
  42 0004 1B78     		ldrb	r3, [r3]	@ zero_extendqisi2
  43 0006 002B     		cmp	r3, #0
  44 0008 2FD1     		bne	.L2
  52:sources\asw/swc_brakelight.c ****     {
  53:sources\asw/swc_brakelight.c ****         UART_LOG_PutString("\nSpeed signal value is 0");
  45              		.loc 1 53 0
  46 000a 1B48     		ldr	r0, .L10+4
  47              	.LVL2:
  48 000c FFF7FEFF 		bl	UART_LOG_PutString
  49              	.LVL3:
  54:sources\asw/swc_brakelight.c ****         //updating brakelight speed value with the value of speed signal
  55:sources\asw/swc_brakelight.c ****         breaklightspeedvalue.speed = RTE_SC_SPEED_get(&SO_SPEED_signal).speed;
  50              		.loc 1 55 0
  51 0010 184B     		ldr	r3, .L10
  52 0012 1978     		ldrb	r1, [r3]	@ zero_extendqisi2
  53              	.LVL4:
  54              	.LBB11:
  55              	.LBB12:
  56              		.file 2 ".\\sources\\rte/sc_speed.h"
   1:.\sources\rte/sc_speed.h **** 
   2:.\sources\rte/sc_speed.h **** 
   3:.\sources\rte/sc_speed.h **** /**
ARM GAS  C:\Users\Asus\AppData\Local\Temp\cclzuZxP.s 			page 3


   4:.\sources\rte/sc_speed.h ****  *  file    SC_SPEED_signal.h
   5:.\sources\rte/sc_speed.h ****  *
   6:.\sources\rte/sc_speed.h ****  *  brief   signal base class for signal sc_speed
   7:.\sources\rte/sc_speed.h ****  *
   8:.\sources\rte/sc_speed.h ****  *  author  Autogenerated, Peter Fromm       <peter.fromm@h-da.de>
   9:.\sources\rte/sc_speed.h ****  *
  10:.\sources\rte/sc_speed.h ****  * description: Any speed data type
  11:.\sources\rte/sc_speed.h ****  * name: sc_speed
  12:.\sources\rte/sc_speed.h ****  * shortname: speed
  13:.\sources\rte/sc_speed.h ****  *
  14:.\sources\rte/sc_speed.h ****  */
  15:.\sources\rte/sc_speed.h **** 
  16:.\sources\rte/sc_speed.h **** 
  17:.\sources\rte/sc_speed.h **** 
  18:.\sources\rte/sc_speed.h **** #ifndef SC_SPEED_SIGNAL_H_INCLUDED
  19:.\sources\rte/sc_speed.h **** #define SC_SPEED_SIGNAL_H_INCLUDED
  20:.\sources\rte/sc_speed.h **** 
  21:.\sources\rte/sc_speed.h **** /*================================================[ public includes  ]=============================
  22:.\sources\rte/sc_speed.h **** #include "global.h"
  23:.\sources\rte/sc_speed.h **** #include "project.h"
  24:.\sources\rte/sc_speed.h **** #include "rte.h"
  25:.\sources\rte/sc_speed.h **** #include "rte_types.h"
  26:.\sources\rte/sc_speed.h **** 
  27:.\sources\rte/sc_speed.h **** #include "sc_speed_type.h"
  28:.\sources\rte/sc_speed.h **** 
  29:.\sources\rte/sc_speed.h **** 
  30:.\sources\rte/sc_speed.h **** /**************************************************************************************************
  31:.\sources\rte/sc_speed.h **** /* The driver API block																						*/
  32:.\sources\rte/sc_speed.h **** /**************************************************************************************************
  33:.\sources\rte/sc_speed.h ****                                                                                                    
  34:.\sources\rte/sc_speed.h **** /**
  35:.\sources\rte/sc_speed.h ****  *  Definition of function types for driver interfaces.
  36:.\sources\rte/sc_speed.h ****  *  I-Port
  37:.\sources\rte/sc_speed.h ****  */
  38:.\sources\rte/sc_speed.h **** typedef RC_t (*SC_SPEED_driverIn_t)(SC_SPEED_data_t * const);
  39:.\sources\rte/sc_speed.h **** 
  40:.\sources\rte/sc_speed.h **** /**
  41:.\sources\rte/sc_speed.h ****  *  Definition of function types for driver interfaces.
  42:.\sources\rte/sc_speed.h ****  *  O-Port
  43:.\sources\rte/sc_speed.h ****  */
  44:.\sources\rte/sc_speed.h **** typedef RC_t (*SC_SPEED_driverOut_t)( const SC_SPEED_data_t * const);
  45:.\sources\rte/sc_speed.h **** 
  46:.\sources\rte/sc_speed.h **** 
  47:.\sources\rte/sc_speed.h **** /**************************************************************************************************
  48:.\sources\rte/sc_speed.h **** /* The signal configuration API block																				*/
  49:.\sources\rte/sc_speed.h **** /**************************************************************************************************
  50:.\sources\rte/sc_speed.h **** 
  51:.\sources\rte/sc_speed.h **** /**
  52:.\sources\rte/sc_speed.h ****  * Instances of the struct SC_SPEED_cfg_t represent the signal object configuration.
  53:.\sources\rte/sc_speed.h ****  */
  54:.\sources\rte/sc_speed.h **** struct SC_SPEED_cfg_s
  55:.\sources\rte/sc_speed.h **** {
  56:.\sources\rte/sc_speed.h ****     /**
  57:.\sources\rte/sc_speed.h ****      * Function pointer to the input driver
  58:.\sources\rte/sc_speed.h ****      */
  59:.\sources\rte/sc_speed.h ****     SC_SPEED_driverIn_t const inDriver;
  60:.\sources\rte/sc_speed.h **** 
ARM GAS  C:\Users\Asus\AppData\Local\Temp\cclzuZxP.s 			page 4


  61:.\sources\rte/sc_speed.h ****     /**
  62:.\sources\rte/sc_speed.h ****      * Function pointer to the output driver table
  63:.\sources\rte/sc_speed.h ****      */
  64:.\sources\rte/sc_speed.h ****    SC_SPEED_driverOut_t const outDriver;
  65:.\sources\rte/sc_speed.h ****    
  66:.\sources\rte/sc_speed.h ****     /**
  67:.\sources\rte/sc_speed.h ****      * Event onUpdate
  68:.\sources\rte/sc_speed.h ****      */
  69:.\sources\rte/sc_speed.h ****     EventMaskType const evOnUpdate;
  70:.\sources\rte/sc_speed.h ****     
  71:.\sources\rte/sc_speed.h ****     
  72:.\sources\rte/sc_speed.h ****     /**
  73:.\sources\rte/sc_speed.h ****      * Event onError
  74:.\sources\rte/sc_speed.h ****      */
  75:.\sources\rte/sc_speed.h ****     EventMaskType const evOnError;
  76:.\sources\rte/sc_speed.h ****     
  77:.\sources\rte/sc_speed.h ****     /**
  78:.\sources\rte/sc_speed.h ****      * Task Count onUpdate
  79:.\sources\rte/sc_speed.h ****      */
  80:.\sources\rte/sc_speed.h ****     size_t const onUpdateTaskCount;
  81:.\sources\rte/sc_speed.h **** 
  82:.\sources\rte/sc_speed.h ****     /**
  83:.\sources\rte/sc_speed.h ****      * Task List onUpdate
  84:.\sources\rte/sc_speed.h ****      */
  85:.\sources\rte/sc_speed.h ****     TaskTypeArray* const onUpdateTasks;
  86:.\sources\rte/sc_speed.h ****     
  87:.\sources\rte/sc_speed.h ****     /**
  88:.\sources\rte/sc_speed.h ****      * Task Count onError
  89:.\sources\rte/sc_speed.h ****      */
  90:.\sources\rte/sc_speed.h ****     size_t const onErrorTaskCount;
  91:.\sources\rte/sc_speed.h **** 
  92:.\sources\rte/sc_speed.h ****     /**
  93:.\sources\rte/sc_speed.h ****      * Task List onError
  94:.\sources\rte/sc_speed.h ****      */
  95:.\sources\rte/sc_speed.h ****     TaskTypeArray* const onErrorTasks;
  96:.\sources\rte/sc_speed.h **** 	
  97:.\sources\rte/sc_speed.h **** 	
  98:.\sources\rte/sc_speed.h **** 	/**
  99:.\sources\rte/sc_speed.h **** 	 * Ressourse is active? We need an additional boolean as a ressource value 0 is valid.
 100:.\sources\rte/sc_speed.h **** 	 */
 101:.\sources\rte/sc_speed.h **** 	 boolean_t const resourceActive;
 102:.\sources\rte/sc_speed.h **** 	 
 103:.\sources\rte/sc_speed.h **** 	/**
 104:.\sources\rte/sc_speed.h **** 	 * Ressourse 
 105:.\sources\rte/sc_speed.h **** 	 */
 106:.\sources\rte/sc_speed.h **** 	 ResourceType const resource;
 107:.\sources\rte/sc_speed.h **** 
 108:.\sources\rte/sc_speed.h **** };                                                                                                 
 109:.\sources\rte/sc_speed.h **** typedef const struct SC_SPEED_cfg_s SC_SPEED_cfg_t;
 110:.\sources\rte/sc_speed.h ****                               
 111:.\sources\rte/sc_speed.h **** /**************************************************************************************************
 112:.\sources\rte/sc_speed.h **** /* The data interface block																							*/
 113:.\sources\rte/sc_speed.h **** /**************************************************************************************************
 114:.\sources\rte/sc_speed.h **** 
 115:.\sources\rte/sc_speed.h ****                                                                                                    
 116:.\sources\rte/sc_speed.h **** 							  
 117:.\sources\rte/sc_speed.h **** /**
ARM GAS  C:\Users\Asus\AppData\Local\Temp\cclzuZxP.s 			page 5


 118:.\sources\rte/sc_speed.h ****  * Instances of the struct SC_SPEED_t represent the signal objects.
 119:.\sources\rte/sc_speed.h ****  * A signal object contains the current application value 'value' as well as relevant meta data.
 120:.\sources\rte/sc_speed.h ****  */
 121:.\sources\rte/sc_speed.h **** struct SC_SPEED_s
 122:.\sources\rte/sc_speed.h **** {                                                                                                  
 123:.\sources\rte/sc_speed.h **** 
 124:.\sources\rte/sc_speed.h **** 	/**
 125:.\sources\rte/sc_speed.h **** 	 * Data buffer for the application value
 126:.\sources\rte/sc_speed.h **** 	 */
 127:.\sources\rte/sc_speed.h ****     SC_SPEED_data_t value;
 128:.\sources\rte/sc_speed.h **** 
 129:.\sources\rte/sc_speed.h ****     /**
 130:.\sources\rte/sc_speed.h ****      * Current signal status
 131:.\sources\rte/sc_speed.h ****      */
 132:.\sources\rte/sc_speed.h ****     RTE_signalStatus_t status;
 133:.\sources\rte/sc_speed.h **** 
 134:.\sources\rte/sc_speed.h ****     /**
 135:.\sources\rte/sc_speed.h ****      * Current age of the signal (in calling cycles)
 136:.\sources\rte/sc_speed.h ****      */
 137:.\sources\rte/sc_speed.h ****     uint32_t age;
 138:.\sources\rte/sc_speed.h **** 
 139:.\sources\rte/sc_speed.h ****     /**
 140:.\sources\rte/sc_speed.h ****      * Pointer to the signal configuration
 141:.\sources\rte/sc_speed.h ****      */
 142:.\sources\rte/sc_speed.h **** 	const SC_SPEED_cfg_t * const    pSigCfg;
 143:.\sources\rte/sc_speed.h **** 
 144:.\sources\rte/sc_speed.h **** };                                                                                                 
 145:.\sources\rte/sc_speed.h **** typedef struct SC_SPEED_s SC_SPEED_t;
 146:.\sources\rte/sc_speed.h **** 
 147:.\sources\rte/sc_speed.h **** /**************************************************************************************************
 148:.\sources\rte/sc_speed.h **** /* Signal initialisation   																							*/
 149:.\sources\rte/sc_speed.h **** /**************************************************************************************************
 150:.\sources\rte/sc_speed.h **** 
 151:.\sources\rte/sc_speed.h **** /**
 152:.\sources\rte/sc_speed.h ****  * Initializes a signal instance with a passed init value.
 153:.\sources\rte/sc_speed.h ****  * Depending on the configured conversion or scaling function the raw_value will be calculated.
 154:.\sources\rte/sc_speed.h ****  * Signal status will change from RTE_SIGNALSTATUS_STARTUP to RTE_SIGNALSTATUS_INITIALIZED.
 155:.\sources\rte/sc_speed.h ****  *
 156:.\sources\rte/sc_speed.h ****  * @param  SC_SPEED_t * const signal: Pointer to the signal object which will be initialised
 157:.\sources\rte/sc_speed.h ****  * @return RC_t: standard return code, currently only RC_SUCCESS
 158:.\sources\rte/sc_speed.h ****  *
 159:.\sources\rte/sc_speed.h ****  **/
 160:.\sources\rte/sc_speed.h **** inline RC_t RTE_SC_SPEED_init( SC_SPEED_t * const signal )
 161:.\sources\rte/sc_speed.h **** {                                                                                                  
 162:.\sources\rte/sc_speed.h **** 
 163:.\sources\rte/sc_speed.h ****    RC_t ret = RC_SUCCESS;
 164:.\sources\rte/sc_speed.h **** 
 165:.\sources\rte/sc_speed.h ****    //Set value and raw value
 166:.\sources\rte/sc_speed.h ****    signal->value  = SC_SPEED_INIT_DATA;
 167:.\sources\rte/sc_speed.h ****    signal->age    = 0;
 168:.\sources\rte/sc_speed.h ****    signal->status = RTE_SIGNALSTATUS_INITIALIZED;
 169:.\sources\rte/sc_speed.h **** 
 170:.\sources\rte/sc_speed.h ****    return ret;
 171:.\sources\rte/sc_speed.h **** }
 172:.\sources\rte/sc_speed.h **** 
 173:.\sources\rte/sc_speed.h **** /**************************************************************************************************
 174:.\sources\rte/sc_speed.h **** /* Status and timeout control																						*/
ARM GAS  C:\Users\Asus\AppData\Local\Temp\cclzuZxP.s 			page 6


 175:.\sources\rte/sc_speed.h **** /**************************************************************************************************
 176:.\sources\rte/sc_speed.h **** 
 177:.\sources\rte/sc_speed.h **** /**
 178:.\sources\rte/sc_speed.h ****  *  Returns the current signal status of the passed signal instance.
 179:.\sources\rte/sc_speed.h ****  *
 180:.\sources\rte/sc_speed.h ****  * @param  SC_SPEED_t * const signal: Pointer to the signal object
 181:.\sources\rte/sc_speed.h ****  * @return  sig_status_t: The current signal status
 182:.\sources\rte/sc_speed.h ****  *
 183:.\sources\rte/sc_speed.h ****  **/
 184:.\sources\rte/sc_speed.h **** inline RTE_signalStatus_t RTE_SC_SPEED_getStatus( const SC_SPEED_t * const signal )
 185:.\sources\rte/sc_speed.h **** {
 186:.\sources\rte/sc_speed.h ****    return signal->status;
 187:.\sources\rte/sc_speed.h **** }
 188:.\sources\rte/sc_speed.h **** 
 189:.\sources\rte/sc_speed.h **** 
 190:.\sources\rte/sc_speed.h **** /**
 191:.\sources\rte/sc_speed.h ****  *  Sets a new signal status of the passed signal instance by passing the new status.
 192:.\sources\rte/sc_speed.h ****  *
 193:.\sources\rte/sc_speed.h ****  * @param  SC_SPEED_t * const signal: Pointer to the signal object
 194:.\sources\rte/sc_speed.h ****  * @param  const sig_status_t status: New signal status
 195:.\sources\rte/sc_speed.h ****  * @return RC_t: standard return code, currently only RC_SUCCESS
 196:.\sources\rte/sc_speed.h ****  *
 197:.\sources\rte/sc_speed.h ****  */
 198:.\sources\rte/sc_speed.h **** inline RC_t RTE_SC_SPEED_setStatus( SC_SPEED_t * const signal, const RTE_signalStatus_t status )
 199:.\sources\rte/sc_speed.h **** {
 200:.\sources\rte/sc_speed.h ****    signal->status = status;
 201:.\sources\rte/sc_speed.h ****    size_t taskNum=0;
 202:.\sources\rte/sc_speed.h ****    
 203:.\sources\rte/sc_speed.h ****    //Fire error events in case of invalid state
 204:.\sources\rte/sc_speed.h ****    if (signal->status == RTE_SIGNALSTATUS_INVALID)
 205:.\sources\rte/sc_speed.h ****    {
 206:.\sources\rte/sc_speed.h **** 	    //Pointer to the Taskarray, containing the tasks receiving the onUpdate events
 207:.\sources\rte/sc_speed.h **** 		TaskTypeArray* pTaskArray = signal->pSigCfg->onErrorTasks;
 208:.\sources\rte/sc_speed.h **** 
 209:.\sources\rte/sc_speed.h **** 		if (0 != signal->pSigCfg->evOnError && NULL != pTaskArray){
 210:.\sources\rte/sc_speed.h **** 			for( taskNum=0 ; taskNum < signal->pSigCfg->onErrorTaskCount ;taskNum++){
 211:.\sources\rte/sc_speed.h **** 				TaskType task = (*pTaskArray)[taskNum];
 212:.\sources\rte/sc_speed.h **** 				SetEvent( task, signal->pSigCfg->evOnError);
 213:.\sources\rte/sc_speed.h **** 			}
 214:.\sources\rte/sc_speed.h **** 		}
 215:.\sources\rte/sc_speed.h ****    }
 216:.\sources\rte/sc_speed.h ****    
 217:.\sources\rte/sc_speed.h ****    return RC_SUCCESS;
 218:.\sources\rte/sc_speed.h **** }
 219:.\sources\rte/sc_speed.h **** 
 220:.\sources\rte/sc_speed.h **** 
 221:.\sources\rte/sc_speed.h **** /**
 222:.\sources\rte/sc_speed.h ****  * Returns the count of refreshing trials (refresh, set or set_raw) that failed.
 223:.\sources\rte/sc_speed.h ****  * Prerquisite: The signal is refreshed cyclically
 224:.\sources\rte/sc_speed.h ****  *
 225:.\sources\rte/sc_speed.h ****  * @param  SC_SPEED_t * const signal: Pointer to the signal object
 226:.\sources\rte/sc_speed.h ****  * @return uint32_t: Number of cycles since the signal has been updated for the last time
 227:.\sources\rte/sc_speed.h ****  */
 228:.\sources\rte/sc_speed.h **** inline uint32_t RTE_SC_SPEED_getAge( const SC_SPEED_t * const signal )
 229:.\sources\rte/sc_speed.h **** {
 230:.\sources\rte/sc_speed.h ****    return signal->age;
 231:.\sources\rte/sc_speed.h **** }
ARM GAS  C:\Users\Asus\AppData\Local\Temp\cclzuZxP.s 			page 7


 232:.\sources\rte/sc_speed.h **** 
 233:.\sources\rte/sc_speed.h **** /**
 234:.\sources\rte/sc_speed.h ****  * Should be called by application or driver if no new value can be provided.
 235:.\sources\rte/sc_speed.h ****  * @param  SC_SPEED_t * const signal: Pointer to the signal object
 236:.\sources\rte/sc_speed.h ****  * @param uint32_t increment: incrementvalue, typically in [ms]
 237:.\sources\rte/sc_speed.h ****  * @return void
 238:.\sources\rte/sc_speed.h ****  */
 239:.\sources\rte/sc_speed.h **** inline void RTE_SC_SPEED_incAge(  SC_SPEED_t * const signal , uint32_t increment)
 240:.\sources\rte/sc_speed.h **** {
 241:.\sources\rte/sc_speed.h **** 	   //Hack....
 242:.\sources\rte/sc_speed.h **** 	   if ( 0xFFFF0000 > (signal->age + increment) )
 243:.\sources\rte/sc_speed.h **** 	   {
 244:.\sources\rte/sc_speed.h **** 	      signal->age += increment;
 245:.\sources\rte/sc_speed.h **** 	   }
 246:.\sources\rte/sc_speed.h **** }
 247:.\sources\rte/sc_speed.h **** 
 248:.\sources\rte/sc_speed.h **** 
 249:.\sources\rte/sc_speed.h **** /**************************************************************************************************
 250:.\sources\rte/sc_speed.h **** /* Application Data read/write Interface																			*/
 251:.\sources\rte/sc_speed.h **** /**************************************************************************************************
 252:.\sources\rte/sc_speed.h **** 
 253:.\sources\rte/sc_speed.h **** /**
 254:.\sources\rte/sc_speed.h ****  * Returns the current application value as pointer to the signal payload.
 255:.\sources\rte/sc_speed.h ****  * Careful: This is not threadsafe!!!
 256:.\sources\rte/sc_speed.h ****  *
 257:.\sources\rte/sc_speed.h ****  * @param  SC_SPEED_t * const signal: Pointer to the signal object
 258:.\sources\rte/sc_speed.h ****  * @return sc_speed_data_t*: pointer to the current value of the application data buffer
 259:.\sources\rte/sc_speed.h ****  *
 260:.\sources\rte/sc_speed.h ****  **/
 261:.\sources\rte/sc_speed.h **** inline SC_SPEED_data_t* RTE_SC_SPEED_getPtr( SC_SPEED_t * const signal )
 262:.\sources\rte/sc_speed.h **** {               
 263:.\sources\rte/sc_speed.h ****    //Todo: Critical region cannot be protected using return values																						
 264:.\sources\rte/sc_speed.h ****    return &(signal->value);                                                                        
 265:.\sources\rte/sc_speed.h **** }
 266:.\sources\rte/sc_speed.h **** 
 267:.\sources\rte/sc_speed.h **** /**
 268:.\sources\rte/sc_speed.h ****  * Returns the current application value of the passed signal instance.
 269:.\sources\rte/sc_speed.h ****  *
 270:.\sources\rte/sc_speed.h ****  * @param  SC_SPEED_t * const signal: Pointer to the signal object
 271:.\sources\rte/sc_speed.h ****  * @return sc_speed_data_t: current value of the application data buffer
 272:.\sources\rte/sc_speed.h ****  *
 273:.\sources\rte/sc_speed.h ****  **/
 274:.\sources\rte/sc_speed.h **** inline SC_SPEED_data_t RTE_SC_SPEED_get( const SC_SPEED_t * const signal )
 275:.\sources\rte/sc_speed.h **** {               
 276:.\sources\rte/sc_speed.h ****    //Todo: Critical region cannot be protected using return values																						
 277:.\sources\rte/sc_speed.h ****    return signal->value;                                                                           
 278:.\sources\rte/sc_speed.h **** }                                                                                                  
 279:.\sources\rte/sc_speed.h ****                                                                                                    
 280:.\sources\rte/sc_speed.h **** /**
 281:.\sources\rte/sc_speed.h ****  * Returns the current application value of the passed signal instance threadsafe.
 282:.\sources\rte/sc_speed.h ****  *
 283:.\sources\rte/sc_speed.h ****  * @param  SC_SPEED_t * const signal: Pointer to the signal object
 284:.\sources\rte/sc_speed.h ****  * @param  SC_SPEED_data_t* data: Pointer to the return data Pointer to the signal object
 285:.\sources\rte/sc_speed.h ****  * @return RC_SUCCESS
 286:.\sources\rte/sc_speed.h ****  *
 287:.\sources\rte/sc_speed.h ****  **/
 288:.\sources\rte/sc_speed.h **** inline RC_t RTE_SC_SPEED_getThreadSafe( const SC_SPEED_t * const signal, SC_SPEED_data_t * const da
ARM GAS  C:\Users\Asus\AppData\Local\Temp\cclzuZxP.s 			page 8


 289:.\sources\rte/sc_speed.h **** {    
 290:.\sources\rte/sc_speed.h ****    if (TRUE == signal->pSigCfg->resourceActive) GetResource(signal->pSigCfg->resource);
 291:.\sources\rte/sc_speed.h ****    *data = signal->value;
 292:.\sources\rte/sc_speed.h ****    if (TRUE == signal->pSigCfg->resourceActive) ReleaseResource(signal->pSigCfg->resource);        
 293:.\sources\rte/sc_speed.h **** 
 294:.\sources\rte/sc_speed.h ****    return RC_SUCCESS;                                                                   
 295:.\sources\rte/sc_speed.h ****    
 296:.\sources\rte/sc_speed.h **** }                                                                                                  
 297:.\sources\rte/sc_speed.h ****                                                                                                    
 298:.\sources\rte/sc_speed.h **** /**
 299:.\sources\rte/sc_speed.h ****  * Sets a new application value to the passed signal instance by passing the new value.
 300:.\sources\rte/sc_speed.h ****  * The corresponding driver raw value will be calculated immediately by using the default conversio
 301:.\sources\rte/sc_speed.h ****  * signal specific scaling function.
 302:.\sources\rte/sc_speed.h ****  * The signal age will be set to 0 and the new status will be 'RTE_SIGNALSTATUS_VALID'.
 303:.\sources\rte/sc_speed.h ****  *
 304:.\sources\rte/sc_speed.h ****  * @param  SC_SPEED_t * const signal: Pointer to the signal object
 305:.\sources\rte/sc_speed.h ****  * @param  sc_speed_data_t const value: value for the application data buffer
 306:.\sources\rte/sc_speed.h ****  * @return RC_t: standard return code, currently only RC_SUCCESS
 307:.\sources\rte/sc_speed.h ****  *
 308:.\sources\rte/sc_speed.h ****  **/
 309:.\sources\rte/sc_speed.h **** inline RC_t RTE_SC_SPEED_set(SC_SPEED_t * const signal, const SC_SPEED_data_t value  )
 310:.\sources\rte/sc_speed.h **** {
 311:.\sources\rte/sc_speed.h **** 
 312:.\sources\rte/sc_speed.h ****    RC_t ret = RC_SUCCESS;
 313:.\sources\rte/sc_speed.h ****    size_t taskNum=0;
 314:.\sources\rte/sc_speed.h **** 
 315:.\sources\rte/sc_speed.h **** 
 316:.\sources\rte/sc_speed.h ****    if (TRUE == signal->pSigCfg->resourceActive) GetResource(signal->pSigCfg->resource);
  57              		.loc 2 316 0
  58 0014 194B     		ldr	r3, .L10+8
  59 0016 9A68     		ldr	r2, [r3, #8]
 317:.\sources\rte/sc_speed.h ****    signal->value  = value;
  60              		.loc 2 317 0
  61 0018 1970     		strb	r1, [r3]
 318:.\sources\rte/sc_speed.h ****    signal->age    = 0;
  62              		.loc 2 318 0
  63 001a 0021     		movs	r1, #0
  64 001c 5960     		str	r1, [r3, #4]
 319:.\sources\rte/sc_speed.h ****    signal->status = RTE_SIGNALSTATUS_VALID;
  65              		.loc 2 319 0
  66 001e 0221     		movs	r1, #2
  67 0020 5970     		strb	r1, [r3, #1]
 320:.\sources\rte/sc_speed.h ****    if (TRUE == signal->pSigCfg->resourceActive) ReleaseResource(signal->pSigCfg->resource);
 321:.\sources\rte/sc_speed.h **** 
 322:.\sources\rte/sc_speed.h ****    //Pointer to the Taskarray, containing the tasks receiving the onUpdate events
 323:.\sources\rte/sc_speed.h ****    TaskTypeArray* pTaskArray = signal->pSigCfg->onUpdateTasks;
  68              		.loc 2 323 0
  69 0022 5569     		ldr	r5, [r2, #20]
  70              	.LVL5:
 324:.\sources\rte/sc_speed.h **** 
 325:.\sources\rte/sc_speed.h ****    if (0 != signal->pSigCfg->evOnUpdate && NULL != pTaskArray){
  71              		.loc 2 325 0
  72 0024 9368     		ldr	r3, [r2, #8]
  73 0026 73B1     		cbz	r3, .L3
  74 0028 3DB9     		cbnz	r5, .L7
  75 002a 0CE0     		b	.L3
  76              	.LVL6:
ARM GAS  C:\Users\Asus\AppData\Local\Temp\cclzuZxP.s 			page 9


  77              	.L5:
  78              	.LBB13:
 326:.\sources\rte/sc_speed.h ****       for( taskNum=0 ; taskNum < signal->pSigCfg->onUpdateTaskCount ;taskNum++){
 327:.\sources\rte/sc_speed.h **** 		  
 328:.\sources\rte/sc_speed.h ****           TaskType task = (*pTaskArray)[taskNum];
 329:.\sources\rte/sc_speed.h **** 	      SetEvent( task, signal->pSigCfg->evOnUpdate);
  79              		.loc 2 329 0
  80 002c 9968     		ldr	r1, [r3, #8]
  81 002e 55F82400 		ldr	r0, [r5, r4, lsl #2]
  82 0032 FFF7FEFF 		bl	EE_oo_SetEvent
  83              	.LVL7:
  84              	.LBE13:
 326:.\sources\rte/sc_speed.h ****       for( taskNum=0 ; taskNum < signal->pSigCfg->onUpdateTaskCount ;taskNum++){
  85              		.loc 2 326 0
  86 0036 0134     		adds	r4, r4, #1
  87              	.LVL8:
  88 0038 00E0     		b	.L4
  89              	.LVL9:
  90              	.L7:
 325:.\sources\rte/sc_speed.h ****       for( taskNum=0 ; taskNum < signal->pSigCfg->onUpdateTaskCount ;taskNum++){
  91              		.loc 2 325 0
  92 003a 0024     		movs	r4, #0
  93              	.LVL10:
  94              	.L4:
 326:.\sources\rte/sc_speed.h ****       for( taskNum=0 ; taskNum < signal->pSigCfg->onUpdateTaskCount ;taskNum++){
  95              		.loc 2 326 0
  96 003c 0F4B     		ldr	r3, .L10+8
  97 003e 9B68     		ldr	r3, [r3, #8]
  98 0040 1A69     		ldr	r2, [r3, #16]
  99 0042 9442     		cmp	r4, r2
 100 0044 F2D3     		bcc	.L5
 101              	.LVL11:
 102              	.L3:
 103              	.LBE12:
 104              	.LBE11:
  56:sources\asw/swc_brakelight.c ****         //updating the breaklight object speed with the value of brakelight speed
  57:sources\asw/swc_brakelight.c ****         res = RTE_SC_SPEED_set(&SO_BRAKELIGHT_signal,breaklightspeedvalue);
  58:sources\asw/swc_brakelight.c ****         if (res == RC_SUCCESS)
  59:sources\asw/swc_brakelight.c ****         {
  60:sources\asw/swc_brakelight.c ****             UART_LOG_PutString("\nBreaklight signal object updated with breaklight signal value");
 105              		.loc 1 60 0
 106 0046 0E48     		ldr	r0, .L10+12
 107 0048 FFF7FEFF 		bl	UART_LOG_PutString
 108              	.LVL12:
 109              	.LBB14:
 110              	.LBB15:
 330:.\sources\rte/sc_speed.h ****       }
 331:.\sources\rte/sc_speed.h ****    }
 332:.\sources\rte/sc_speed.h **** 
 333:.\sources\rte/sc_speed.h ****    return ret;
 334:.\sources\rte/sc_speed.h **** }                                                                                                  
 335:.\sources\rte/sc_speed.h ****                                                                                                    
 336:.\sources\rte/sc_speed.h ****                                                                                                    
 337:.\sources\rte/sc_speed.h **** /**************************************************************************************************
 338:.\sources\rte/sc_speed.h **** /* Call functions to the connected drivers																			*/
 339:.\sources\rte/sc_speed.h **** /**************************************************************************************************
 340:.\sources\rte/sc_speed.h **** 
ARM GAS  C:\Users\Asus\AppData\Local\Temp\cclzuZxP.s 			page 10


 341:.\sources\rte/sc_speed.h ****                                                                                                    
 342:.\sources\rte/sc_speed.h **** /**
 343:.\sources\rte/sc_speed.h ****  *  Calls the connected driver interface to get a new value.
 344:.\sources\rte/sc_speed.h ****  *
 345:.\sources\rte/sc_speed.h ****  * @param SC_SPEED_t * const signal: Pointer to the signal object
 346:.\sources\rte/sc_speed.h ****  * @return  RC_t: Return value of the driver call
 347:.\sources\rte/sc_speed.h ****  *
 348:.\sources\rte/sc_speed.h ****  */
 349:.\sources\rte/sc_speed.h **** inline RC_t RTE_SC_SPEED_pullPort( SC_SPEED_t * const signal )
 350:.\sources\rte/sc_speed.h **** {                                                                                                  
 351:.\sources\rte/sc_speed.h ****    RC_t ret = RC_SUCCESS;
 352:.\sources\rte/sc_speed.h **** 
 353:.\sources\rte/sc_speed.h ****                                                                                                    
 354:.\sources\rte/sc_speed.h ****    if ( NULL != signal->pSigCfg->inDriver )
 355:.\sources\rte/sc_speed.h ****    {
 356:.\sources\rte/sc_speed.h **** 	  SC_SPEED_data_t value = signal->value;
 357:.\sources\rte/sc_speed.h ****       ret = signal->pSigCfg->inDriver(&value);
 358:.\sources\rte/sc_speed.h ****                                                                                                    
 359:.\sources\rte/sc_speed.h ****       if ( ret == RC_SUCCESS )                                                                     
 360:.\sources\rte/sc_speed.h ****       {
 361:.\sources\rte/sc_speed.h ****     	  //Critical Section
 362:.\sources\rte/sc_speed.h ****     	  RTE_SC_SPEED_set(signal, value);
 363:.\sources\rte/sc_speed.h ****       }
 364:.\sources\rte/sc_speed.h ****       else
 365:.\sources\rte/sc_speed.h ****       {
 366:.\sources\rte/sc_speed.h **** 		  //Signal is invalid. Error event (if present) will be fired
 367:.\sources\rte/sc_speed.h **** 		  RTE_SC_SPEED_setStatus(signal, RTE_SIGNALSTATUS_INVALID);
 368:.\sources\rte/sc_speed.h ****       }
 369:.\sources\rte/sc_speed.h **** 
 370:.\sources\rte/sc_speed.h ****    }                                                                                               
 371:.\sources\rte/sc_speed.h ****                                                                                                    
 372:.\sources\rte/sc_speed.h ****    return ret;                                                                                     
 373:.\sources\rte/sc_speed.h **** }                                                                                                  
 374:.\sources\rte/sc_speed.h ****                                                                                                    
 375:.\sources\rte/sc_speed.h **** /**
 376:.\sources\rte/sc_speed.h ****  *  Calls the connected driver interfaces to send a value. Value will not be sent if it is INVALID.
 377:.\sources\rte/sc_speed.h ****  *
 378:.\sources\rte/sc_speed.h ****  * @param SC_SPEED_t * const signal: Pointer to the signal object
 379:.\sources\rte/sc_speed.h ****  * @return  RC_t: Return value of the driver call
 380:.\sources\rte/sc_speed.h ****  *
 381:.\sources\rte/sc_speed.h ****  **/
 382:.\sources\rte/sc_speed.h **** inline RC_t RTE_SC_SPEED_pushPort( const SC_SPEED_t * const signal )
 383:.\sources\rte/sc_speed.h **** {                                                                                                  
 384:.\sources\rte/sc_speed.h ****    RC_t ret = RC_ERROR;
 385:.\sources\rte/sc_speed.h **** 
 386:.\sources\rte/sc_speed.h ****    if (RTE_SIGNALSTATUS_VALID == signal->status)
 111              		.loc 2 386 0
 112 004c 0B4B     		ldr	r3, .L10+8
 113 004e 5B78     		ldrb	r3, [r3, #1]	@ zero_extendqisi2
 114 0050 022B     		cmp	r3, #2
 115 0052 04D1     		bne	.L8
 387:.\sources\rte/sc_speed.h ****    {
 388:.\sources\rte/sc_speed.h **** 	   ret = signal->pSigCfg->outDriver(&(signal->value));
 116              		.loc 2 388 0
 117 0054 0948     		ldr	r0, .L10+8
 118 0056 8368     		ldr	r3, [r0, #8]
 119 0058 5B68     		ldr	r3, [r3, #4]
ARM GAS  C:\Users\Asus\AppData\Local\Temp\cclzuZxP.s 			page 11


 120 005a 9847     		blx	r3
 121              	.LVL13:
 122 005c 01E0     		b	.L6
 123              	.LVL14:
 124              	.L8:
 384:.\sources\rte/sc_speed.h **** 
 125              		.loc 2 384 0
 126 005e 4FF0FF30 		mov	r0, #-1
 127              	.LVL15:
 128              	.L6:
 129              	.LBE15:
 130              	.LBE14:
  61:sources\asw/swc_brakelight.c ****             res = RTE_SC_SPEED_pushPort(&SO_BRAKELIGHT_signal);
  62:sources\asw/swc_brakelight.c ****             if (res !=RC_SUCCESS)
 131              		.loc 1 62 0
 132 0062 10B1     		cbz	r0, .L2
  63:sources\asw/swc_brakelight.c ****             {
  64:sources\asw/swc_brakelight.c ****                 UART_LOG_PutString("\nError: Breaklight signal not able to write to Driver");
 133              		.loc 1 64 0
 134 0064 0748     		ldr	r0, .L10+16
 135 0066 FFF7FEFF 		bl	UART_LOG_PutString
 136              	.LVL16:
 137              	.L2:
  65:sources\asw/swc_brakelight.c ****             }
  66:sources\asw/swc_brakelight.c **** /*        else
  67:sources\asw/swc_brakelight.c ****             {
  68:sources\asw/swc_brakelight.c ****                 UART_LOG_PutString("\nEnginee signal written to Driver");
  69:sources\asw/swc_brakelight.c ****             }*/
  70:sources\asw/swc_brakelight.c ****         }
  71:sources\asw/swc_brakelight.c ****     }
  72:sources\asw/swc_brakelight.c **** /*    else
  73:sources\asw/swc_brakelight.c ****     {
  74:sources\asw/swc_brakelight.c ****         UART_LOG_PutString("\nSpeed signal value is positive");
  75:sources\asw/swc_brakelight.c ****     }*/
  76:sources\asw/swc_brakelight.c **** 
  77:sources\asw/swc_brakelight.c ****     /* USER CODE END BRAKELIGHT_setBrakeLight_run */
  78:sources\asw/swc_brakelight.c ****     
  79:sources\asw/swc_brakelight.c ****     WD_Alive(run_brakelight_pos);
 138              		.loc 1 79 0
 139 006a 0320     		movs	r0, #3
 140 006c FFF7FEFF 		bl	WD_Alive
 141              	.LVL17:
 142 0070 38BD     		pop	{r3, r4, r5, pc}
 143              	.L11:
 144 0072 00BF     		.align	2
 145              	.L10:
 146 0074 00000000 		.word	SO_SPEED_signal
 147 0078 00000000 		.word	.LC0
 148 007c 00000000 		.word	SO_BRAKELIGHT_signal
 149 0080 1C000000 		.word	.LC1
 150 0084 5C000000 		.word	.LC2
 151              		.cfi_endproc
 152              	.LFE132:
 153              		.size	BRAKELIGHT_setBrakeLight_run, .-BRAKELIGHT_setBrakeLight_run
 154              		.section	.rodata.str1.4,"aMS",%progbits,1
 155              		.align	2
 156              	.LC0:
ARM GAS  C:\Users\Asus\AppData\Local\Temp\cclzuZxP.s 			page 12


 157 0000 0A537065 		.ascii	"\012Speed signal value is 0\000"
 157      65642073 
 157      69676E61 
 157      6C207661 
 157      6C756520 
 158 0019 000000   		.space	3
 159              	.LC1:
 160 001c 0A427265 		.ascii	"\012Breaklight signal object updated with breakligh"
 160      616B6C69 
 160      67687420 
 160      7369676E 
 160      616C206F 
 161 004c 74207369 		.ascii	"t signal value\000"
 161      676E616C 
 161      2076616C 
 161      756500
 162 005b 00       		.space	1
 163              	.LC2:
 164 005c 0A457272 		.ascii	"\012Error: Breaklight signal not able to write to D"
 164      6F723A20 
 164      42726561 
 164      6B6C6967 
 164      68742073 
 165 008c 72697665 		.ascii	"river\000"
 165      7200
 166              		.text
 167              	.Letext0:
 168              		.file 3 "c:\\program files (x86)\\cypress\\psoc creator\\4.4\\psoc creator\\import\\gnu\\arm\\5.4.
 169              		.file 4 "c:\\program files (x86)\\cypress\\psoc creator\\4.4\\psoc creator\\import\\gnu\\arm\\5.4.
 170              		.file 5 "c:\\program files (x86)\\cypress\\psoc creator\\4.4\\psoc creator\\import\\gnu\\arm\\5.4.
 171              		.file 6 "Generated_Source\\PSoC5/ErikaOS_1_common_ee_types.inc"
 172              		.file 7 "Generated_Source\\PSoC5/ErikaOS_1_cortex_mx_ee_cpu.inc"
 173              		.file 8 "Generated_Source\\PSoC5/ErikaOS_1_ee_oo_common.inc"
 174              		.file 9 ".\\sources\\bsw/global.h"
 175              		.file 10 ".\\sources\\rte/rte_types.h"
 176              		.file 11 ".\\sources\\rte/rte.h"
 177              		.file 12 ".\\sources\\rte/sc_speed_type.h"
 178              		.file 13 "Generated_Source\\PSoC5/ErikaOS_1_ee_oo_intfunc.inc"
 179              		.file 14 "Generated_Source\\PSoC5/ErikaOS_1_cortex_mx_ee_context.inc"
 180              		.file 15 "Generated_Source\\PSoC5/ErikaOS_1_common_ee_primitives.inc"
 181              		.file 16 "Generated_Source\\PSoC5/core_cm3.h"
 182              		.file 17 ".\\sources\\rte/sp_common.h"
 183              		.file 18 "Generated_Source\\PSoC5/ErikaOS_1_ee_oo_kernel.inc"
 184              		.file 19 "Generated_Source\\PSoC5/UART_LOG.h"
 185              		.file 20 "sources\\asw\\WatchDogTimer.h"