ARM GAS  C:\Users\Asus\AppData\Local\Temp\cc8KElnc.s 			page 1


   1              		.syntax unified
   2              		.cpu cortex-m3
   3              		.fpu softvfp
   4              		.eabi_attribute 20, 1
   5              		.eabi_attribute 21, 1
   6              		.eabi_attribute 23, 3
   7              		.eabi_attribute 24, 1
   8              		.eabi_attribute 25, 1
   9              		.eabi_attribute 26, 1
  10              		.eabi_attribute 30, 1
  11              		.eabi_attribute 34, 1
  12              		.eabi_attribute 18, 4
  13              		.thumb
  14              		.syntax unified
  15              		.file	"swc_remote.c"
  16              		.text
  17              	.Ltext0:
  18              		.cfi_sections	.debug_frame
  19              		.section	.text.REMOTE_readJoystick_run,"ax",%progbits
  20              		.align	2
  21              		.global	REMOTE_readJoystick_run
  22              		.thumb
  23              		.thumb_func
  24              		.type	REMOTE_readJoystick_run, %function
  25              	REMOTE_readJoystick_run:
  26              	.LFB132:
  27              		.file 1 "sources\\asw\\swc_remote.c"
   1:sources\asw/swc_remote.c **** /*
   2:sources\asw/swc_remote.c ****  * Filename: swc_remote.c
   3:sources\asw/swc_remote.c ****  *
   4:sources\asw/swc_remote.c ****  * Author: Autogenerated by H-DA RTE Generator, (c) Prof. Fromm
   5:sources\asw/swc_remote.c ****  *
   6:sources\asw/swc_remote.c ****  * description: This SWC will read the value from the Joystick and send the value via so_joystick
   7:sources\asw/swc_remote.c ****  * name: swc_remote
   8:sources\asw/swc_remote.c ****  * shortname: remote
   9:sources\asw/swc_remote.c ****  *
  10:sources\asw/swc_remote.c ****  */
  11:sources\asw/swc_remote.c **** 
  12:sources\asw/swc_remote.c **** #include "project.h"
  13:sources\asw/swc_remote.c **** #include "global.h"
  14:sources\asw/swc_remote.c **** #include "rte.h"
  15:sources\asw/swc_remote.c **** #include "rte_types.h"
  16:sources\asw/swc_remote.c **** #include "swc_remote.h"
  17:sources\asw/swc_remote.c **** #include "WatchDogTimer.h" //Including WDT header file
  18:sources\asw/swc_remote.c **** 
  19:sources\asw/swc_remote.c **** 
  20:sources\asw/swc_remote.c **** /* USER CODE START SWC_REMOTE_INCLUDE */
  21:sources\asw/swc_remote.c **** 
  22:sources\asw/swc_remote.c **** /* USER CODE END SWC_REMOTE_INCLUDE */
  23:sources\asw/swc_remote.c **** 
  24:sources\asw/swc_remote.c **** 
  25:sources\asw/swc_remote.c **** #include "sp_common.h"
  26:sources\asw/swc_remote.c **** 
  27:sources\asw/swc_remote.c **** /* USER CODE START SWC_REMOTE_USERDEFINITIONS */
  28:sources\asw/swc_remote.c **** 
  29:sources\asw/swc_remote.c **** /* USER CODE END SWC_REMOTE_USERDEFINITIONS */
  30:sources\asw/swc_remote.c **** 
ARM GAS  C:\Users\Asus\AppData\Local\Temp\cc8KElnc.s 			page 2


  31:sources\asw/swc_remote.c **** 
  32:sources\asw/swc_remote.c **** 
  33:sources\asw/swc_remote.c **** /*
  34:sources\asw/swc_remote.c ****  * component: swc_remote
  35:sources\asw/swc_remote.c ****  * cycletime: 10
  36:sources\asw/swc_remote.c ****  * description: Runnable which will read the joystick value from the driver
  37:sources\asw/swc_remote.c ****  * events: 
  38:sources\asw/swc_remote.c ****  * name: REMOTE_readJoystick_run
  39:sources\asw/swc_remote.c ****  * shortname: readJoystick
  40:sources\asw/swc_remote.c ****  * signalIN: 
  41:sources\asw/swc_remote.c ****  * signalOUT: so_joystick
  42:sources\asw/swc_remote.c ****  * task: tsk_io
  43:sources\asw/swc_remote.c ****  */
  44:sources\asw/swc_remote.c **** 
  45:sources\asw/swc_remote.c **** /** Beginning of the Flow **/
  46:sources\asw/swc_remote.c **** 
  47:sources\asw/swc_remote.c **** //This runnable will read the value from the joystick using Pullport API and send it to the so_joys
  48:sources\asw/swc_remote.c **** 
  49:sources\asw/swc_remote.c **** void REMOTE_readJoystick_run(RTE_event ev)
  50:sources\asw/swc_remote.c **** {
  28              		.loc 1 50 0
  29              		.cfi_startproc
  30              		@ args = 0, pretend = 0, frame = 8
  31              		@ frame_needed = 0, uses_anonymous_args = 0
  32              	.LVL0:
  33 0000 70B5     		push	{r4, r5, r6, lr}
  34              		.cfi_def_cfa_offset 16
  35              		.cfi_offset 4, -16
  36              		.cfi_offset 5, -12
  37              		.cfi_offset 6, -8
  38              		.cfi_offset 14, -4
  39 0002 82B0     		sub	sp, sp, #8
  40              		.cfi_def_cfa_offset 24
  41              	.LVL1:
  42              	.LBB20:
  43              	.LBB21:
  44              		.file 2 ".\\sources\\rte/sc_joystick.h"
   1:.\sources\rte/sc_joystick.h **** 
   2:.\sources\rte/sc_joystick.h **** 
   3:.\sources\rte/sc_joystick.h **** /**
   4:.\sources\rte/sc_joystick.h ****  *  file    SC_JOYSTICK_signal.h
   5:.\sources\rte/sc_joystick.h ****  *
   6:.\sources\rte/sc_joystick.h ****  *  brief   signal base class for signal sc_joystick
   7:.\sources\rte/sc_joystick.h ****  *
   8:.\sources\rte/sc_joystick.h ****  *  author  Autogenerated, Peter Fromm       <peter.fromm@h-da.de>
   9:.\sources\rte/sc_joystick.h ****  *
  10:.\sources\rte/sc_joystick.h ****  * description: Joystick representation
  11:.\sources\rte/sc_joystick.h ****  * name: sc_joystick
  12:.\sources\rte/sc_joystick.h ****  * shortname: joystick
  13:.\sources\rte/sc_joystick.h ****  *
  14:.\sources\rte/sc_joystick.h ****  */
  15:.\sources\rte/sc_joystick.h **** 
  16:.\sources\rte/sc_joystick.h **** 
  17:.\sources\rte/sc_joystick.h **** 
  18:.\sources\rte/sc_joystick.h **** #ifndef SC_JOYSTICK_SIGNAL_H_INCLUDED
  19:.\sources\rte/sc_joystick.h **** #define SC_JOYSTICK_SIGNAL_H_INCLUDED
  20:.\sources\rte/sc_joystick.h **** 
ARM GAS  C:\Users\Asus\AppData\Local\Temp\cc8KElnc.s 			page 3


  21:.\sources\rte/sc_joystick.h **** /*================================================[ public includes  ]=============================
  22:.\sources\rte/sc_joystick.h **** #include "global.h"
  23:.\sources\rte/sc_joystick.h **** #include "project.h"
  24:.\sources\rte/sc_joystick.h **** #include "rte.h"
  25:.\sources\rte/sc_joystick.h **** #include "rte_types.h"
  26:.\sources\rte/sc_joystick.h **** 
  27:.\sources\rte/sc_joystick.h **** #include "sc_joystick_type.h"
  28:.\sources\rte/sc_joystick.h **** 
  29:.\sources\rte/sc_joystick.h **** 
  30:.\sources\rte/sc_joystick.h **** /**************************************************************************************************
  31:.\sources\rte/sc_joystick.h **** /* The driver API block																						*/
  32:.\sources\rte/sc_joystick.h **** /**************************************************************************************************
  33:.\sources\rte/sc_joystick.h ****                                                                                                    
  34:.\sources\rte/sc_joystick.h **** /**
  35:.\sources\rte/sc_joystick.h ****  *  Definition of function types for driver interfaces.
  36:.\sources\rte/sc_joystick.h ****  *  I-Port
  37:.\sources\rte/sc_joystick.h ****  */
  38:.\sources\rte/sc_joystick.h **** typedef RC_t (*SC_JOYSTICK_driverIn_t)(SC_JOYSTICK_data_t * const);
  39:.\sources\rte/sc_joystick.h **** 
  40:.\sources\rte/sc_joystick.h **** /**
  41:.\sources\rte/sc_joystick.h ****  *  Definition of function types for driver interfaces.
  42:.\sources\rte/sc_joystick.h ****  *  O-Port
  43:.\sources\rte/sc_joystick.h ****  */
  44:.\sources\rte/sc_joystick.h **** typedef RC_t (*SC_JOYSTICK_driverOut_t)( const SC_JOYSTICK_data_t * const);
  45:.\sources\rte/sc_joystick.h **** 
  46:.\sources\rte/sc_joystick.h **** 
  47:.\sources\rte/sc_joystick.h **** /**************************************************************************************************
  48:.\sources\rte/sc_joystick.h **** /* The signal configuration API block																				*/
  49:.\sources\rte/sc_joystick.h **** /**************************************************************************************************
  50:.\sources\rte/sc_joystick.h **** 
  51:.\sources\rte/sc_joystick.h **** /**
  52:.\sources\rte/sc_joystick.h ****  * Instances of the struct SC_JOYSTICK_cfg_t represent the signal object configuration.
  53:.\sources\rte/sc_joystick.h ****  */
  54:.\sources\rte/sc_joystick.h **** struct SC_JOYSTICK_cfg_s
  55:.\sources\rte/sc_joystick.h **** {
  56:.\sources\rte/sc_joystick.h ****     /**
  57:.\sources\rte/sc_joystick.h ****      * Function pointer to the input driver
  58:.\sources\rte/sc_joystick.h ****      */
  59:.\sources\rte/sc_joystick.h ****     SC_JOYSTICK_driverIn_t const inDriver;
  60:.\sources\rte/sc_joystick.h **** 
  61:.\sources\rte/sc_joystick.h ****     /**
  62:.\sources\rte/sc_joystick.h ****      * Function pointer to the output driver table
  63:.\sources\rte/sc_joystick.h ****      */
  64:.\sources\rte/sc_joystick.h ****    SC_JOYSTICK_driverOut_t const outDriver;
  65:.\sources\rte/sc_joystick.h ****    
  66:.\sources\rte/sc_joystick.h ****     /**
  67:.\sources\rte/sc_joystick.h ****      * Event onUpdate
  68:.\sources\rte/sc_joystick.h ****      */
  69:.\sources\rte/sc_joystick.h ****     EventMaskType const evOnUpdate;
  70:.\sources\rte/sc_joystick.h ****     
  71:.\sources\rte/sc_joystick.h ****     
  72:.\sources\rte/sc_joystick.h ****     /**
  73:.\sources\rte/sc_joystick.h ****      * Event onError
  74:.\sources\rte/sc_joystick.h ****      */
  75:.\sources\rte/sc_joystick.h ****     EventMaskType const evOnError;
  76:.\sources\rte/sc_joystick.h ****     
  77:.\sources\rte/sc_joystick.h ****     /**
ARM GAS  C:\Users\Asus\AppData\Local\Temp\cc8KElnc.s 			page 4


  78:.\sources\rte/sc_joystick.h ****      * Task Count onUpdate
  79:.\sources\rte/sc_joystick.h ****      */
  80:.\sources\rte/sc_joystick.h ****     size_t const onUpdateTaskCount;
  81:.\sources\rte/sc_joystick.h **** 
  82:.\sources\rte/sc_joystick.h ****     /**
  83:.\sources\rte/sc_joystick.h ****      * Task List onUpdate
  84:.\sources\rte/sc_joystick.h ****      */
  85:.\sources\rte/sc_joystick.h ****     TaskTypeArray* const onUpdateTasks;
  86:.\sources\rte/sc_joystick.h ****     
  87:.\sources\rte/sc_joystick.h ****     /**
  88:.\sources\rte/sc_joystick.h ****      * Task Count onError
  89:.\sources\rte/sc_joystick.h ****      */
  90:.\sources\rte/sc_joystick.h ****     size_t const onErrorTaskCount;
  91:.\sources\rte/sc_joystick.h **** 
  92:.\sources\rte/sc_joystick.h ****     /**
  93:.\sources\rte/sc_joystick.h ****      * Task List onError
  94:.\sources\rte/sc_joystick.h ****      */
  95:.\sources\rte/sc_joystick.h ****     TaskTypeArray* const onErrorTasks;
  96:.\sources\rte/sc_joystick.h **** 	
  97:.\sources\rte/sc_joystick.h **** 	
  98:.\sources\rte/sc_joystick.h **** 	/**
  99:.\sources\rte/sc_joystick.h **** 	 * Ressourse is active? We need an additional boolean as a ressource value 0 is valid.
 100:.\sources\rte/sc_joystick.h **** 	 */
 101:.\sources\rte/sc_joystick.h **** 	 boolean_t const resourceActive;
 102:.\sources\rte/sc_joystick.h **** 	 
 103:.\sources\rte/sc_joystick.h **** 	/**
 104:.\sources\rte/sc_joystick.h **** 	 * Ressourse 
 105:.\sources\rte/sc_joystick.h **** 	 */
 106:.\sources\rte/sc_joystick.h **** 	 ResourceType const resource;
 107:.\sources\rte/sc_joystick.h **** 
 108:.\sources\rte/sc_joystick.h **** };                                                                                                 
 109:.\sources\rte/sc_joystick.h **** typedef const struct SC_JOYSTICK_cfg_s SC_JOYSTICK_cfg_t;
 110:.\sources\rte/sc_joystick.h ****                               
 111:.\sources\rte/sc_joystick.h **** /**************************************************************************************************
 112:.\sources\rte/sc_joystick.h **** /* The data interface block																							*/
 113:.\sources\rte/sc_joystick.h **** /**************************************************************************************************
 114:.\sources\rte/sc_joystick.h **** 
 115:.\sources\rte/sc_joystick.h ****                                                                                                    
 116:.\sources\rte/sc_joystick.h **** 							  
 117:.\sources\rte/sc_joystick.h **** /**
 118:.\sources\rte/sc_joystick.h ****  * Instances of the struct SC_JOYSTICK_t represent the signal objects.
 119:.\sources\rte/sc_joystick.h ****  * A signal object contains the current application value 'value' as well as relevant meta data.
 120:.\sources\rte/sc_joystick.h ****  */
 121:.\sources\rte/sc_joystick.h **** struct SC_JOYSTICK_s
 122:.\sources\rte/sc_joystick.h **** {                                                                                                  
 123:.\sources\rte/sc_joystick.h **** 
 124:.\sources\rte/sc_joystick.h **** 	/**
 125:.\sources\rte/sc_joystick.h **** 	 * Data buffer for the application value
 126:.\sources\rte/sc_joystick.h **** 	 */
 127:.\sources\rte/sc_joystick.h ****     SC_JOYSTICK_data_t value;
 128:.\sources\rte/sc_joystick.h **** 
 129:.\sources\rte/sc_joystick.h ****     /**
 130:.\sources\rte/sc_joystick.h ****      * Current signal status
 131:.\sources\rte/sc_joystick.h ****      */
 132:.\sources\rte/sc_joystick.h ****     RTE_signalStatus_t status;
 133:.\sources\rte/sc_joystick.h **** 
 134:.\sources\rte/sc_joystick.h ****     /**
ARM GAS  C:\Users\Asus\AppData\Local\Temp\cc8KElnc.s 			page 5


 135:.\sources\rte/sc_joystick.h ****      * Current age of the signal (in calling cycles)
 136:.\sources\rte/sc_joystick.h ****      */
 137:.\sources\rte/sc_joystick.h ****     uint32_t age;
 138:.\sources\rte/sc_joystick.h **** 
 139:.\sources\rte/sc_joystick.h ****     /**
 140:.\sources\rte/sc_joystick.h ****      * Pointer to the signal configuration
 141:.\sources\rte/sc_joystick.h ****      */
 142:.\sources\rte/sc_joystick.h **** 	const SC_JOYSTICK_cfg_t * const    pSigCfg;
 143:.\sources\rte/sc_joystick.h **** 
 144:.\sources\rte/sc_joystick.h **** };                                                                                                 
 145:.\sources\rte/sc_joystick.h **** typedef struct SC_JOYSTICK_s SC_JOYSTICK_t;
 146:.\sources\rte/sc_joystick.h **** 
 147:.\sources\rte/sc_joystick.h **** /**************************************************************************************************
 148:.\sources\rte/sc_joystick.h **** /* Signal initialisation   																							*/
 149:.\sources\rte/sc_joystick.h **** /**************************************************************************************************
 150:.\sources\rte/sc_joystick.h **** 
 151:.\sources\rte/sc_joystick.h **** /**
 152:.\sources\rte/sc_joystick.h ****  * Initializes a signal instance with a passed init value.
 153:.\sources\rte/sc_joystick.h ****  * Depending on the configured conversion or scaling function the raw_value will be calculated.
 154:.\sources\rte/sc_joystick.h ****  * Signal status will change from RTE_SIGNALSTATUS_STARTUP to RTE_SIGNALSTATUS_INITIALIZED.
 155:.\sources\rte/sc_joystick.h ****  *
 156:.\sources\rte/sc_joystick.h ****  * @param  SC_JOYSTICK_t * const signal: Pointer to the signal object which will be initialised
 157:.\sources\rte/sc_joystick.h ****  * @return RC_t: standard return code, currently only RC_SUCCESS
 158:.\sources\rte/sc_joystick.h ****  *
 159:.\sources\rte/sc_joystick.h ****  **/
 160:.\sources\rte/sc_joystick.h **** inline RC_t RTE_SC_JOYSTICK_init( SC_JOYSTICK_t * const signal )
 161:.\sources\rte/sc_joystick.h **** {                                                                                                  
 162:.\sources\rte/sc_joystick.h **** 
 163:.\sources\rte/sc_joystick.h ****    RC_t ret = RC_SUCCESS;
 164:.\sources\rte/sc_joystick.h **** 
 165:.\sources\rte/sc_joystick.h ****    //Set value and raw value
 166:.\sources\rte/sc_joystick.h ****    signal->value  = SC_JOYSTICK_INIT_DATA;
 167:.\sources\rte/sc_joystick.h ****    signal->age    = 0;
 168:.\sources\rte/sc_joystick.h ****    signal->status = RTE_SIGNALSTATUS_INITIALIZED;
 169:.\sources\rte/sc_joystick.h **** 
 170:.\sources\rte/sc_joystick.h ****    return ret;
 171:.\sources\rte/sc_joystick.h **** }
 172:.\sources\rte/sc_joystick.h **** 
 173:.\sources\rte/sc_joystick.h **** /**************************************************************************************************
 174:.\sources\rte/sc_joystick.h **** /* Status and timeout control																						*/
 175:.\sources\rte/sc_joystick.h **** /**************************************************************************************************
 176:.\sources\rte/sc_joystick.h **** 
 177:.\sources\rte/sc_joystick.h **** /**
 178:.\sources\rte/sc_joystick.h ****  *  Returns the current signal status of the passed signal instance.
 179:.\sources\rte/sc_joystick.h ****  *
 180:.\sources\rte/sc_joystick.h ****  * @param  SC_JOYSTICK_t * const signal: Pointer to the signal object
 181:.\sources\rte/sc_joystick.h ****  * @return  sig_status_t: The current signal status
 182:.\sources\rte/sc_joystick.h ****  *
 183:.\sources\rte/sc_joystick.h ****  **/
 184:.\sources\rte/sc_joystick.h **** inline RTE_signalStatus_t RTE_SC_JOYSTICK_getStatus( const SC_JOYSTICK_t * const signal )
 185:.\sources\rte/sc_joystick.h **** {
 186:.\sources\rte/sc_joystick.h ****    return signal->status;
 187:.\sources\rte/sc_joystick.h **** }
 188:.\sources\rte/sc_joystick.h **** 
 189:.\sources\rte/sc_joystick.h **** 
 190:.\sources\rte/sc_joystick.h **** /**
 191:.\sources\rte/sc_joystick.h ****  *  Sets a new signal status of the passed signal instance by passing the new status.
ARM GAS  C:\Users\Asus\AppData\Local\Temp\cc8KElnc.s 			page 6


 192:.\sources\rte/sc_joystick.h ****  *
 193:.\sources\rte/sc_joystick.h ****  * @param  SC_JOYSTICK_t * const signal: Pointer to the signal object
 194:.\sources\rte/sc_joystick.h ****  * @param  const sig_status_t status: New signal status
 195:.\sources\rte/sc_joystick.h ****  * @return RC_t: standard return code, currently only RC_SUCCESS
 196:.\sources\rte/sc_joystick.h ****  *
 197:.\sources\rte/sc_joystick.h ****  */
 198:.\sources\rte/sc_joystick.h **** inline RC_t RTE_SC_JOYSTICK_setStatus( SC_JOYSTICK_t * const signal, const RTE_signalStatus_t statu
 199:.\sources\rte/sc_joystick.h **** {
 200:.\sources\rte/sc_joystick.h ****    signal->status = status;
 201:.\sources\rte/sc_joystick.h ****    size_t taskNum=0;
 202:.\sources\rte/sc_joystick.h ****    
 203:.\sources\rte/sc_joystick.h ****    //Fire error events in case of invalid state
 204:.\sources\rte/sc_joystick.h ****    if (signal->status == RTE_SIGNALSTATUS_INVALID)
 205:.\sources\rte/sc_joystick.h ****    {
 206:.\sources\rte/sc_joystick.h **** 	    //Pointer to the Taskarray, containing the tasks receiving the onUpdate events
 207:.\sources\rte/sc_joystick.h **** 		TaskTypeArray* pTaskArray = signal->pSigCfg->onErrorTasks;
 208:.\sources\rte/sc_joystick.h **** 
 209:.\sources\rte/sc_joystick.h **** 		if (0 != signal->pSigCfg->evOnError && NULL != pTaskArray){
 210:.\sources\rte/sc_joystick.h **** 			for( taskNum=0 ; taskNum < signal->pSigCfg->onErrorTaskCount ;taskNum++){
 211:.\sources\rte/sc_joystick.h **** 				TaskType task = (*pTaskArray)[taskNum];
 212:.\sources\rte/sc_joystick.h **** 				SetEvent( task, signal->pSigCfg->evOnError);
 213:.\sources\rte/sc_joystick.h **** 			}
 214:.\sources\rte/sc_joystick.h **** 		}
 215:.\sources\rte/sc_joystick.h ****    }
 216:.\sources\rte/sc_joystick.h ****    
 217:.\sources\rte/sc_joystick.h ****    return RC_SUCCESS;
 218:.\sources\rte/sc_joystick.h **** }
 219:.\sources\rte/sc_joystick.h **** 
 220:.\sources\rte/sc_joystick.h **** 
 221:.\sources\rte/sc_joystick.h **** /**
 222:.\sources\rte/sc_joystick.h ****  * Returns the count of refreshing trials (refresh, set or set_raw) that failed.
 223:.\sources\rte/sc_joystick.h ****  * Prerquisite: The signal is refreshed cyclically
 224:.\sources\rte/sc_joystick.h ****  *
 225:.\sources\rte/sc_joystick.h ****  * @param  SC_JOYSTICK_t * const signal: Pointer to the signal object
 226:.\sources\rte/sc_joystick.h ****  * @return uint32_t: Number of cycles since the signal has been updated for the last time
 227:.\sources\rte/sc_joystick.h ****  */
 228:.\sources\rte/sc_joystick.h **** inline uint32_t RTE_SC_JOYSTICK_getAge( const SC_JOYSTICK_t * const signal )
 229:.\sources\rte/sc_joystick.h **** {
 230:.\sources\rte/sc_joystick.h ****    return signal->age;
 231:.\sources\rte/sc_joystick.h **** }
 232:.\sources\rte/sc_joystick.h **** 
 233:.\sources\rte/sc_joystick.h **** /**
 234:.\sources\rte/sc_joystick.h ****  * Should be called by application or driver if no new value can be provided.
 235:.\sources\rte/sc_joystick.h ****  * @param  SC_JOYSTICK_t * const signal: Pointer to the signal object
 236:.\sources\rte/sc_joystick.h ****  * @param uint32_t increment: incrementvalue, typically in [ms]
 237:.\sources\rte/sc_joystick.h ****  * @return void
 238:.\sources\rte/sc_joystick.h ****  */
 239:.\sources\rte/sc_joystick.h **** inline void RTE_SC_JOYSTICK_incAge(  SC_JOYSTICK_t * const signal , uint32_t increment)
 240:.\sources\rte/sc_joystick.h **** {
 241:.\sources\rte/sc_joystick.h **** 	   //Hack....
 242:.\sources\rte/sc_joystick.h **** 	   if ( 0xFFFF0000 > (signal->age + increment) )
 243:.\sources\rte/sc_joystick.h **** 	   {
 244:.\sources\rte/sc_joystick.h **** 	      signal->age += increment;
 245:.\sources\rte/sc_joystick.h **** 	   }
 246:.\sources\rte/sc_joystick.h **** }
 247:.\sources\rte/sc_joystick.h **** 
 248:.\sources\rte/sc_joystick.h **** 
ARM GAS  C:\Users\Asus\AppData\Local\Temp\cc8KElnc.s 			page 7


 249:.\sources\rte/sc_joystick.h **** /**************************************************************************************************
 250:.\sources\rte/sc_joystick.h **** /* Application Data read/write Interface																			*/
 251:.\sources\rte/sc_joystick.h **** /**************************************************************************************************
 252:.\sources\rte/sc_joystick.h **** 
 253:.\sources\rte/sc_joystick.h **** /**
 254:.\sources\rte/sc_joystick.h ****  * Returns the current application value as pointer to the signal payload.
 255:.\sources\rte/sc_joystick.h ****  * Careful: This is not threadsafe!!!
 256:.\sources\rte/sc_joystick.h ****  *
 257:.\sources\rte/sc_joystick.h ****  * @param  SC_JOYSTICK_t * const signal: Pointer to the signal object
 258:.\sources\rte/sc_joystick.h ****  * @return sc_joystick_data_t*: pointer to the current value of the application data buffer
 259:.\sources\rte/sc_joystick.h ****  *
 260:.\sources\rte/sc_joystick.h ****  **/
 261:.\sources\rte/sc_joystick.h **** inline SC_JOYSTICK_data_t* RTE_SC_JOYSTICK_getPtr( SC_JOYSTICK_t * const signal )
 262:.\sources\rte/sc_joystick.h **** {               
 263:.\sources\rte/sc_joystick.h ****    //Todo: Critical region cannot be protected using return values																						
 264:.\sources\rte/sc_joystick.h ****    return &(signal->value);                                                                        
 265:.\sources\rte/sc_joystick.h **** }
 266:.\sources\rte/sc_joystick.h **** 
 267:.\sources\rte/sc_joystick.h **** /**
 268:.\sources\rte/sc_joystick.h ****  * Returns the current application value of the passed signal instance.
 269:.\sources\rte/sc_joystick.h ****  *
 270:.\sources\rte/sc_joystick.h ****  * @param  SC_JOYSTICK_t * const signal: Pointer to the signal object
 271:.\sources\rte/sc_joystick.h ****  * @return sc_joystick_data_t: current value of the application data buffer
 272:.\sources\rte/sc_joystick.h ****  *
 273:.\sources\rte/sc_joystick.h ****  **/
 274:.\sources\rte/sc_joystick.h **** inline SC_JOYSTICK_data_t RTE_SC_JOYSTICK_get( const SC_JOYSTICK_t * const signal )
 275:.\sources\rte/sc_joystick.h **** {               
 276:.\sources\rte/sc_joystick.h ****    //Todo: Critical region cannot be protected using return values																						
 277:.\sources\rte/sc_joystick.h ****    return signal->value;                                                                           
 278:.\sources\rte/sc_joystick.h **** }                                                                                                  
 279:.\sources\rte/sc_joystick.h ****                                                                                                    
 280:.\sources\rte/sc_joystick.h **** /**
 281:.\sources\rte/sc_joystick.h ****  * Returns the current application value of the passed signal instance threadsafe.
 282:.\sources\rte/sc_joystick.h ****  *
 283:.\sources\rte/sc_joystick.h ****  * @param  SC_JOYSTICK_t * const signal: Pointer to the signal object
 284:.\sources\rte/sc_joystick.h ****  * @param  SC_JOYSTICK_data_t* data: Pointer to the return data Pointer to the signal object
 285:.\sources\rte/sc_joystick.h ****  * @return RC_SUCCESS
 286:.\sources\rte/sc_joystick.h ****  *
 287:.\sources\rte/sc_joystick.h ****  **/
 288:.\sources\rte/sc_joystick.h **** inline RC_t RTE_SC_JOYSTICK_getThreadSafe( const SC_JOYSTICK_t * const signal, SC_JOYSTICK_data_t *
 289:.\sources\rte/sc_joystick.h **** {    
 290:.\sources\rte/sc_joystick.h ****    if (TRUE == signal->pSigCfg->resourceActive) GetResource(signal->pSigCfg->resource);
 291:.\sources\rte/sc_joystick.h ****    *data = signal->value;
 292:.\sources\rte/sc_joystick.h ****    if (TRUE == signal->pSigCfg->resourceActive) ReleaseResource(signal->pSigCfg->resource);        
 293:.\sources\rte/sc_joystick.h **** 
 294:.\sources\rte/sc_joystick.h ****    return RC_SUCCESS;                                                                   
 295:.\sources\rte/sc_joystick.h ****    
 296:.\sources\rte/sc_joystick.h **** }                                                                                                  
 297:.\sources\rte/sc_joystick.h ****                                                                                                    
 298:.\sources\rte/sc_joystick.h **** /**
 299:.\sources\rte/sc_joystick.h ****  * Sets a new application value to the passed signal instance by passing the new value.
 300:.\sources\rte/sc_joystick.h ****  * The corresponding driver raw value will be calculated immediately by using the default conversio
 301:.\sources\rte/sc_joystick.h ****  * signal specific scaling function.
 302:.\sources\rte/sc_joystick.h ****  * The signal age will be set to 0 and the new status will be 'RTE_SIGNALSTATUS_VALID'.
 303:.\sources\rte/sc_joystick.h ****  *
 304:.\sources\rte/sc_joystick.h ****  * @param  SC_JOYSTICK_t * const signal: Pointer to the signal object
 305:.\sources\rte/sc_joystick.h ****  * @param  sc_joystick_data_t const value: value for the application data buffer
ARM GAS  C:\Users\Asus\AppData\Local\Temp\cc8KElnc.s 			page 8


 306:.\sources\rte/sc_joystick.h ****  * @return RC_t: standard return code, currently only RC_SUCCESS
 307:.\sources\rte/sc_joystick.h ****  *
 308:.\sources\rte/sc_joystick.h ****  **/
 309:.\sources\rte/sc_joystick.h **** inline RC_t RTE_SC_JOYSTICK_set(SC_JOYSTICK_t * const signal, const SC_JOYSTICK_data_t value  )
 310:.\sources\rte/sc_joystick.h **** {
 311:.\sources\rte/sc_joystick.h **** 
 312:.\sources\rte/sc_joystick.h ****    RC_t ret = RC_SUCCESS;
 313:.\sources\rte/sc_joystick.h ****    size_t taskNum=0;
 314:.\sources\rte/sc_joystick.h **** 
 315:.\sources\rte/sc_joystick.h **** 
 316:.\sources\rte/sc_joystick.h ****    if (TRUE == signal->pSigCfg->resourceActive) GetResource(signal->pSigCfg->resource);
 317:.\sources\rte/sc_joystick.h ****    signal->value  = value;
 318:.\sources\rte/sc_joystick.h ****    signal->age    = 0;
 319:.\sources\rte/sc_joystick.h ****    signal->status = RTE_SIGNALSTATUS_VALID;
 320:.\sources\rte/sc_joystick.h ****    if (TRUE == signal->pSigCfg->resourceActive) ReleaseResource(signal->pSigCfg->resource);
 321:.\sources\rte/sc_joystick.h **** 
 322:.\sources\rte/sc_joystick.h ****    //Pointer to the Taskarray, containing the tasks receiving the onUpdate events
 323:.\sources\rte/sc_joystick.h ****    TaskTypeArray* pTaskArray = signal->pSigCfg->onUpdateTasks;
 324:.\sources\rte/sc_joystick.h **** 
 325:.\sources\rte/sc_joystick.h ****    if (0 != signal->pSigCfg->evOnUpdate && NULL != pTaskArray){
 326:.\sources\rte/sc_joystick.h ****       for( taskNum=0 ; taskNum < signal->pSigCfg->onUpdateTaskCount ;taskNum++){
 327:.\sources\rte/sc_joystick.h **** 		  
 328:.\sources\rte/sc_joystick.h ****           TaskType task = (*pTaskArray)[taskNum];
 329:.\sources\rte/sc_joystick.h **** 	      SetEvent( task, signal->pSigCfg->evOnUpdate);
 330:.\sources\rte/sc_joystick.h ****       }
 331:.\sources\rte/sc_joystick.h ****    }
 332:.\sources\rte/sc_joystick.h **** 
 333:.\sources\rte/sc_joystick.h ****    return ret;
 334:.\sources\rte/sc_joystick.h **** }                                                                                                  
 335:.\sources\rte/sc_joystick.h ****                                                                                                    
 336:.\sources\rte/sc_joystick.h ****                                                                                                    
 337:.\sources\rte/sc_joystick.h **** /**************************************************************************************************
 338:.\sources\rte/sc_joystick.h **** /* Call functions to the connected drivers																			*/
 339:.\sources\rte/sc_joystick.h **** /**************************************************************************************************
 340:.\sources\rte/sc_joystick.h **** 
 341:.\sources\rte/sc_joystick.h ****                                                                                                    
 342:.\sources\rte/sc_joystick.h **** /**
 343:.\sources\rte/sc_joystick.h ****  *  Calls the connected driver interface to get a new value.
 344:.\sources\rte/sc_joystick.h ****  *
 345:.\sources\rte/sc_joystick.h ****  * @param SC_JOYSTICK_t * const signal: Pointer to the signal object
 346:.\sources\rte/sc_joystick.h ****  * @return  RC_t: Return value of the driver call
 347:.\sources\rte/sc_joystick.h ****  *
 348:.\sources\rte/sc_joystick.h ****  */
 349:.\sources\rte/sc_joystick.h **** inline RC_t RTE_SC_JOYSTICK_pullPort( SC_JOYSTICK_t * const signal )
 350:.\sources\rte/sc_joystick.h **** {                                                                                                  
 351:.\sources\rte/sc_joystick.h ****    RC_t ret = RC_SUCCESS;
 352:.\sources\rte/sc_joystick.h **** 
 353:.\sources\rte/sc_joystick.h ****                                                                                                    
 354:.\sources\rte/sc_joystick.h ****    if ( NULL != signal->pSigCfg->inDriver )
  45              		.loc 2 354 0
  46 0004 264B     		ldr	r3, .L14
  47 0006 9B68     		ldr	r3, [r3, #8]
  48 0008 1A68     		ldr	r2, [r3]
  49 000a 002A     		cmp	r2, #0
  50 000c 3DD0     		beq	.L10
  51              	.LBB22:
 355:.\sources\rte/sc_joystick.h ****    {
ARM GAS  C:\Users\Asus\AppData\Local\Temp\cc8KElnc.s 			page 9


 356:.\sources\rte/sc_joystick.h **** 	  SC_JOYSTICK_data_t value = signal->value;
  52              		.loc 2 356 0
  53 000e 244A     		ldr	r2, .L14
  54 0010 1288     		ldrh	r2, [r2]
  55 0012 02A8     		add	r0, sp, #8
  56              	.LVL2:
  57 0014 20F8082D 		strh	r2, [r0, #-8]!	@ movhi
 357:.\sources\rte/sc_joystick.h ****       ret = signal->pSigCfg->inDriver(&value);
  58              		.loc 2 357 0
  59 0018 1B68     		ldr	r3, [r3]
  60 001a 9847     		blx	r3
  61              	.LVL3:
 358:.\sources\rte/sc_joystick.h ****                                                                                                    
 359:.\sources\rte/sc_joystick.h ****       if ( ret == RC_SUCCESS )                                                                     
  62              		.loc 2 359 0
  63 001c 0546     		mov	r5, r0
  64 001e E8B9     		cbnz	r0, .L3
  65              	.LVL4:
  66 0020 BDF80010 		ldrh	r1, [sp]
  67 0024 ADF80410 		strh	r1, [sp, #4]	@ movhi
  68              	.LVL5:
  69              	.LBB23:
  70              	.LBB24:
 316:.\sources\rte/sc_joystick.h ****    signal->value  = value;
  71              		.loc 2 316 0
  72 0028 1D4B     		ldr	r3, .L14
  73 002a 9A68     		ldr	r2, [r3, #8]
 317:.\sources\rte/sc_joystick.h ****    signal->age    = 0;
  74              		.loc 2 317 0
  75 002c 1980     		strh	r1, [r3]	@ movhi
 318:.\sources\rte/sc_joystick.h ****    signal->status = RTE_SIGNALSTATUS_VALID;
  76              		.loc 2 318 0
  77 002e 0021     		movs	r1, #0
  78 0030 5960     		str	r1, [r3, #4]
 319:.\sources\rte/sc_joystick.h ****    if (TRUE == signal->pSigCfg->resourceActive) ReleaseResource(signal->pSigCfg->resource);
  79              		.loc 2 319 0
  80 0032 0221     		movs	r1, #2
  81 0034 9970     		strb	r1, [r3, #2]
 323:.\sources\rte/sc_joystick.h **** 
  82              		.loc 2 323 0
  83 0036 5669     		ldr	r6, [r2, #20]
  84              	.LVL6:
 325:.\sources\rte/sc_joystick.h ****       for( taskNum=0 ; taskNum < signal->pSigCfg->onUpdateTaskCount ;taskNum++){
  85              		.loc 2 325 0
  86 0038 9368     		ldr	r3, [r2, #8]
  87 003a 3BB3     		cbz	r3, .L2
  88 003c 3EB9     		cbnz	r6, .L11
  89 003e 25E0     		b	.L2
  90              	.LVL7:
  91              	.L6:
  92              	.LBB25:
 329:.\sources\rte/sc_joystick.h ****       }
  93              		.loc 2 329 0
  94 0040 9968     		ldr	r1, [r3, #8]
  95 0042 56F82400 		ldr	r0, [r6, r4, lsl #2]
  96 0046 FFF7FEFF 		bl	EE_oo_SetEvent
  97              	.LVL8:
ARM GAS  C:\Users\Asus\AppData\Local\Temp\cc8KElnc.s 			page 10


  98              	.LBE25:
 326:.\sources\rte/sc_joystick.h **** 		  
  99              		.loc 2 326 0
 100 004a 0134     		adds	r4, r4, #1
 101              	.LVL9:
 102 004c 00E0     		b	.L5
 103              	.LVL10:
 104              	.L11:
 325:.\sources\rte/sc_joystick.h ****       for( taskNum=0 ; taskNum < signal->pSigCfg->onUpdateTaskCount ;taskNum++){
 105              		.loc 2 325 0
 106 004e 0024     		movs	r4, #0
 107              	.LVL11:
 108              	.L5:
 326:.\sources\rte/sc_joystick.h **** 		  
 109              		.loc 2 326 0
 110 0050 134B     		ldr	r3, .L14
 111 0052 9B68     		ldr	r3, [r3, #8]
 112 0054 1A69     		ldr	r2, [r3, #16]
 113 0056 9442     		cmp	r4, r2
 114 0058 F2D3     		bcc	.L6
 115 005a 17E0     		b	.L2
 116              	.LVL12:
 117              	.L3:
 118              	.LBE24:
 119              	.LBE23:
 120              	.LBB26:
 121              	.LBB27:
 200:.\sources\rte/sc_joystick.h ****    size_t taskNum=0;
 122              		.loc 2 200 0
 123 005c 104B     		ldr	r3, .L14
 124 005e 0322     		movs	r2, #3
 125 0060 9A70     		strb	r2, [r3, #2]
 126              	.LVL13:
 127              	.LBB28:
 207:.\sources\rte/sc_joystick.h **** 
 128              		.loc 2 207 0
 129 0062 9B68     		ldr	r3, [r3, #8]
 130 0064 DE69     		ldr	r6, [r3, #28]
 131              	.LVL14:
 209:.\sources\rte/sc_joystick.h **** 			for( taskNum=0 ; taskNum < signal->pSigCfg->onErrorTaskCount ;taskNum++){
 132              		.loc 2 209 0
 133 0066 DB68     		ldr	r3, [r3, #12]
 134 0068 83B1     		cbz	r3, .L2
 135 006a 3EB9     		cbnz	r6, .L12
 136 006c 0EE0     		b	.L2
 137              	.LVL15:
 138              	.L8:
 139              	.LBB29:
 212:.\sources\rte/sc_joystick.h **** 			}
 140              		.loc 2 212 0
 141 006e D968     		ldr	r1, [r3, #12]
 142 0070 56F82400 		ldr	r0, [r6, r4, lsl #2]
 143 0074 FFF7FEFF 		bl	EE_oo_SetEvent
 144              	.LVL16:
 145              	.LBE29:
 210:.\sources\rte/sc_joystick.h **** 				TaskType task = (*pTaskArray)[taskNum];
 146              		.loc 2 210 0
ARM GAS  C:\Users\Asus\AppData\Local\Temp\cc8KElnc.s 			page 11


 147 0078 0134     		adds	r4, r4, #1
 148              	.LVL17:
 149 007a 00E0     		b	.L7
 150              	.LVL18:
 151              	.L12:
 209:.\sources\rte/sc_joystick.h **** 			for( taskNum=0 ; taskNum < signal->pSigCfg->onErrorTaskCount ;taskNum++){
 152              		.loc 2 209 0
 153 007c 0024     		movs	r4, #0
 154              	.LVL19:
 155              	.L7:
 210:.\sources\rte/sc_joystick.h **** 				TaskType task = (*pTaskArray)[taskNum];
 156              		.loc 2 210 0
 157 007e 084B     		ldr	r3, .L14
 158 0080 9B68     		ldr	r3, [r3, #8]
 159 0082 9A69     		ldr	r2, [r3, #24]
 160 0084 9442     		cmp	r4, r2
 161 0086 F2D3     		bcc	.L8
 162 0088 00E0     		b	.L2
 163              	.LVL20:
 164              	.L10:
 165              	.LBE28:
 166              	.LBE27:
 167              	.LBE26:
 168              	.LBE22:
 351:.\sources\rte/sc_joystick.h **** 
 169              		.loc 2 351 0
 170 008a 0025     		movs	r5, #0
 171              	.LVL21:
 172              	.L2:
 173              	.LBE21:
 174              	.LBE20:
  51:sources\asw/swc_remote.c **** 	
  52:sources\asw/swc_remote.c **** 	/* USER CODE START REMOTE_readJoystick_run */
  53:sources\asw/swc_remote.c ****     
  54:sources\asw/swc_remote.c ****     //Reading the Driver data via the push pull API and putting it to SO_Joystick signal
  55:sources\asw/swc_remote.c ****     RC_t result = RTE_SC_JOYSTICK_pullPort(&SO_JOYSTICK_signal);
  56:sources\asw/swc_remote.c ****     
  57:sources\asw/swc_remote.c ****     //Error Handling of SO_Joystick Signal
  58:sources\asw/swc_remote.c ****     if (result != RC_SUCCESS)
 175              		.loc 1 58 0
 176 008c 15B1     		cbz	r5, .L9
  59:sources\asw/swc_remote.c ****     {
  60:sources\asw/swc_remote.c ****         //Pullport failed
  61:sources\asw/swc_remote.c ****         UART_LOG_PutString("\nFailure: Joystick driver value not updated on SO_JOYSTICK_signal");  
 177              		.loc 1 61 0
 178 008e 0548     		ldr	r0, .L14+4
 179 0090 FFF7FEFF 		bl	UART_LOG_PutString
 180              	.LVL22:
 181              	.L9:
  62:sources\asw/swc_remote.c **** 
  63:sources\asw/swc_remote.c ****     }
  64:sources\asw/swc_remote.c **** /*  else
  65:sources\asw/swc_remote.c ****     {
  66:sources\asw/swc_remote.c ****         //Pullport passed
  67:sources\asw/swc_remote.c ****         UART_LOG_PutString("\nFailure: Joystick driver value updated on SO_JOYSTICK_signal");
  68:sources\asw/swc_remote.c ****     }*/
  69:sources\asw/swc_remote.c ****     
ARM GAS  C:\Users\Asus\AppData\Local\Temp\cc8KElnc.s 			page 12


  70:sources\asw/swc_remote.c ****     //Delay to check WD Functionality
  71:sources\asw/swc_remote.c ****     //CyDelay(5000);
  72:sources\asw/swc_remote.c ****     WD_Alive(run_remote_pos);
 182              		.loc 1 72 0
 183 0094 0020     		movs	r0, #0
 184 0096 FFF7FEFF 		bl	WD_Alive
 185              	.LVL23:
  73:sources\asw/swc_remote.c ****     
  74:sources\asw/swc_remote.c ****     /* USER CODE END REMOTE_readJoystick_run */
  75:sources\asw/swc_remote.c **** }
 186              		.loc 1 75 0
 187 009a 02B0     		add	sp, sp, #8
 188              		.cfi_def_cfa_offset 16
 189              		@ sp needed
 190 009c 70BD     		pop	{r4, r5, r6, pc}
 191              	.L15:
 192 009e 00BF     		.align	2
 193              	.L14:
 194 00a0 00000000 		.word	SO_JOYSTICK_signal
 195 00a4 00000000 		.word	.LC0
 196              		.cfi_endproc
 197              	.LFE132:
 198              		.size	REMOTE_readJoystick_run, .-REMOTE_readJoystick_run
 199              		.section	.rodata.str1.4,"aMS",%progbits,1
 200              		.align	2
 201              	.LC0:
 202 0000 0A466169 		.ascii	"\012Failure: Joystick driver value not updated on S"
 202      6C757265 
 202      3A204A6F 
 202      79737469 
 202      636B2064 
 203 0030 4F5F4A4F 		.ascii	"O_JOYSTICK_signal\000"
 203      59535449 
 203      434B5F73 
 203      69676E61 
 203      6C00
 204              		.text
 205              	.Letext0:
 206              		.file 3 "c:\\program files (x86)\\cypress\\psoc creator\\4.4\\psoc creator\\import\\gnu\\arm\\5.4.
 207              		.file 4 "c:\\program files (x86)\\cypress\\psoc creator\\4.4\\psoc creator\\import\\gnu\\arm\\5.4.
 208              		.file 5 "c:\\program files (x86)\\cypress\\psoc creator\\4.4\\psoc creator\\import\\gnu\\arm\\5.4.
 209              		.file 6 "Generated_Source\\PSoC5/ErikaOS_1_common_ee_types.inc"
 210              		.file 7 "Generated_Source\\PSoC5/ErikaOS_1_cortex_mx_ee_cpu.inc"
 211              		.file 8 "Generated_Source\\PSoC5/ErikaOS_1_ee_oo_common.inc"
 212              		.file 9 ".\\sources\\bsw/global.h"
 213              		.file 10 ".\\sources\\rte/rte_types.h"
 214              		.file 11 ".\\sources\\rte/rte.h"
 215              		.file 12 ".\\sources\\rte/sc_joystick_type.h"
 216              		.file 13 "Generated_Source\\PSoC5/ErikaOS_1_ee_oo_intfunc.inc"
 217              		.file 14 "Generated_Source\\PSoC5/ErikaOS_1_cortex_mx_ee_context.inc"
 218              		.file 15 "Generated_Source\\PSoC5/ErikaOS_1_common_ee_primitives.inc"
 219              		.file 16 "Generated_Source\\PSoC5/core_cm3.h"
 220              		.file 17 ".\\sources\\rte/sp_common.h"
 221              		.file 18 "Generated_Source\\PSoC5/ErikaOS_1_ee_oo_kernel.inc"
 222              		.file 19 "Generated_Source\\PSoC5/UART_LOG.h"
 223              		.file 20 "sources\\asw\\WatchDogTimer.h"