ARM GAS  C:\Users\Asus\AppData\Local\Temp\ccuHuNWc.s 			page 1


   1              		.syntax unified
   2              		.cpu cortex-m3
   3              		.fpu softvfp
   4              		.eabi_attribute 20, 1
   5              		.eabi_attribute 21, 1
   6              		.eabi_attribute 23, 3
   7              		.eabi_attribute 24, 1
   8              		.eabi_attribute 25, 1
   9              		.eabi_attribute 26, 1
  10              		.eabi_attribute 30, 1
  11              		.eabi_attribute 34, 1
  12              		.eabi_attribute 18, 4
  13              		.thumb
  14              		.syntax unified
  15              		.file	"swc_engine.c"
  16              		.text
  17              	.Ltext0:
  18              		.cfi_sections	.debug_frame
  19              		.section	.text.ENGINE_setEngine_run,"ax",%progbits
  20              		.align	2
  21              		.global	ENGINE_setEngine_run
  22              		.thumb
  23              		.thumb_func
  24              		.type	ENGINE_setEngine_run, %function
  25              	ENGINE_setEngine_run:
  26              	.LFB132:
  27              		.file 1 "sources\\asw\\swc_engine.c"
   1:sources\asw/swc_engine.c **** /*
   2:sources\asw/swc_engine.c ****  * Filename: swc_engine.c
   3:sources\asw/swc_engine.c ****  *
   4:sources\asw/swc_engine.c ****  * Author: Autogenerated by H-DA RTE Generator, (c) Prof. Fromm
   5:sources\asw/swc_engine.c ****  *
   6:sources\asw/swc_engine.c ****  * description: Based on the value present on so_speed, this component will interact with the Engin
   7:sources\asw/swc_engine.c ****  * name: swc_Engine
   8:sources\asw/swc_engine.c ****  * shortname: Engine
   9:sources\asw/swc_engine.c ****  *
  10:sources\asw/swc_engine.c ****  */
  11:sources\asw/swc_engine.c **** 
  12:sources\asw/swc_engine.c **** #include "project.h"
  13:sources\asw/swc_engine.c **** #include "global.h"
  14:sources\asw/swc_engine.c **** #include "rte.h"
  15:sources\asw/swc_engine.c **** #include "rte_types.h"
  16:sources\asw/swc_engine.c **** #include "swc_engine.h"
  17:sources\asw/swc_engine.c **** #include "WatchDogTimer.h" //Including WDT header file
  18:sources\asw/swc_engine.c **** 
  19:sources\asw/swc_engine.c **** 
  20:sources\asw/swc_engine.c **** /* USER CODE START SWC_ENGINE_INCLUDE */
  21:sources\asw/swc_engine.c **** 
  22:sources\asw/swc_engine.c **** /* USER CODE END SWC_ENGINE_INCLUDE */
  23:sources\asw/swc_engine.c **** 
  24:sources\asw/swc_engine.c **** 
  25:sources\asw/swc_engine.c **** #include "sp_common.h"
  26:sources\asw/swc_engine.c **** 
  27:sources\asw/swc_engine.c **** /* USER CODE START SWC_ENGINE_USERDEFINITIONS */
  28:sources\asw/swc_engine.c **** 
  29:sources\asw/swc_engine.c **** /* USER CODE END SWC_ENGINE_USERDEFINITIONS */
  30:sources\asw/swc_engine.c **** 
ARM GAS  C:\Users\Asus\AppData\Local\Temp\ccuHuNWc.s 			page 2


  31:sources\asw/swc_engine.c **** 
  32:sources\asw/swc_engine.c **** 
  33:sources\asw/swc_engine.c **** /*
  34:sources\asw/swc_engine.c ****  * component: swc_Engine
  35:sources\asw/swc_engine.c ****  * cycletime: 100
  36:sources\asw/swc_engine.c ****  * description: Runnable which will control the Engine
  37:sources\asw/swc_engine.c ****  * events: 
  38:sources\asw/swc_engine.c ****  * name: ENGINE_setEngine_run
  39:sources\asw/swc_engine.c ****  * shortname: setEngine
  40:sources\asw/swc_engine.c ****  * signalIN: so_speed
  41:sources\asw/swc_engine.c ****  * signalOUT: so_enginesignal
  42:sources\asw/swc_engine.c ****  * task: tsk_io
  43:sources\asw/swc_engine.c ****  */
  44:sources\asw/swc_engine.c **** void ENGINE_setEngine_run(RTE_event ev){
  28              		.loc 1 44 0
  29              		.cfi_startproc
  30              		@ args = 0, pretend = 0, frame = 0
  31              		@ frame_needed = 0, uses_anonymous_args = 0
  32              	.LVL0:
  33 0000 38B5     		push	{r3, r4, r5, lr}
  34              		.cfi_def_cfa_offset 16
  35              		.cfi_offset 3, -16
  36              		.cfi_offset 4, -12
  37              		.cfi_offset 5, -8
  38              		.cfi_offset 14, -4
  39              	.LVL1:
  40              	.LBB11:
  41              	.LBB12:
  42              		.file 2 ".\\sources\\rte/sc_speed.h"
   1:.\sources\rte/sc_speed.h **** 
   2:.\sources\rte/sc_speed.h **** 
   3:.\sources\rte/sc_speed.h **** /**
   4:.\sources\rte/sc_speed.h ****  *  file    SC_SPEED_signal.h
   5:.\sources\rte/sc_speed.h ****  *
   6:.\sources\rte/sc_speed.h ****  *  brief   signal base class for signal sc_speed
   7:.\sources\rte/sc_speed.h ****  *
   8:.\sources\rte/sc_speed.h ****  *  author  Autogenerated, Peter Fromm       <peter.fromm@h-da.de>
   9:.\sources\rte/sc_speed.h ****  *
  10:.\sources\rte/sc_speed.h ****  * description: Any speed data type
  11:.\sources\rte/sc_speed.h ****  * name: sc_speed
  12:.\sources\rte/sc_speed.h ****  * shortname: speed
  13:.\sources\rte/sc_speed.h ****  *
  14:.\sources\rte/sc_speed.h ****  */
  15:.\sources\rte/sc_speed.h **** 
  16:.\sources\rte/sc_speed.h **** 
  17:.\sources\rte/sc_speed.h **** 
  18:.\sources\rte/sc_speed.h **** #ifndef SC_SPEED_SIGNAL_H_INCLUDED
  19:.\sources\rte/sc_speed.h **** #define SC_SPEED_SIGNAL_H_INCLUDED
  20:.\sources\rte/sc_speed.h **** 
  21:.\sources\rte/sc_speed.h **** /*================================================[ public includes  ]=============================
  22:.\sources\rte/sc_speed.h **** #include "global.h"
  23:.\sources\rte/sc_speed.h **** #include "project.h"
  24:.\sources\rte/sc_speed.h **** #include "rte.h"
  25:.\sources\rte/sc_speed.h **** #include "rte_types.h"
  26:.\sources\rte/sc_speed.h **** 
  27:.\sources\rte/sc_speed.h **** #include "sc_speed_type.h"
  28:.\sources\rte/sc_speed.h **** 
ARM GAS  C:\Users\Asus\AppData\Local\Temp\ccuHuNWc.s 			page 3


  29:.\sources\rte/sc_speed.h **** 
  30:.\sources\rte/sc_speed.h **** /**************************************************************************************************
  31:.\sources\rte/sc_speed.h **** /* The driver API block																						*/
  32:.\sources\rte/sc_speed.h **** /**************************************************************************************************
  33:.\sources\rte/sc_speed.h ****                                                                                                    
  34:.\sources\rte/sc_speed.h **** /**
  35:.\sources\rte/sc_speed.h ****  *  Definition of function types for driver interfaces.
  36:.\sources\rte/sc_speed.h ****  *  I-Port
  37:.\sources\rte/sc_speed.h ****  */
  38:.\sources\rte/sc_speed.h **** typedef RC_t (*SC_SPEED_driverIn_t)(SC_SPEED_data_t * const);
  39:.\sources\rte/sc_speed.h **** 
  40:.\sources\rte/sc_speed.h **** /**
  41:.\sources\rte/sc_speed.h ****  *  Definition of function types for driver interfaces.
  42:.\sources\rte/sc_speed.h ****  *  O-Port
  43:.\sources\rte/sc_speed.h ****  */
  44:.\sources\rte/sc_speed.h **** typedef RC_t (*SC_SPEED_driverOut_t)( const SC_SPEED_data_t * const);
  45:.\sources\rte/sc_speed.h **** 
  46:.\sources\rte/sc_speed.h **** 
  47:.\sources\rte/sc_speed.h **** /**************************************************************************************************
  48:.\sources\rte/sc_speed.h **** /* The signal configuration API block																				*/
  49:.\sources\rte/sc_speed.h **** /**************************************************************************************************
  50:.\sources\rte/sc_speed.h **** 
  51:.\sources\rte/sc_speed.h **** /**
  52:.\sources\rte/sc_speed.h ****  * Instances of the struct SC_SPEED_cfg_t represent the signal object configuration.
  53:.\sources\rte/sc_speed.h ****  */
  54:.\sources\rte/sc_speed.h **** struct SC_SPEED_cfg_s
  55:.\sources\rte/sc_speed.h **** {
  56:.\sources\rte/sc_speed.h ****     /**
  57:.\sources\rte/sc_speed.h ****      * Function pointer to the input driver
  58:.\sources\rte/sc_speed.h ****      */
  59:.\sources\rte/sc_speed.h ****     SC_SPEED_driverIn_t const inDriver;
  60:.\sources\rte/sc_speed.h **** 
  61:.\sources\rte/sc_speed.h ****     /**
  62:.\sources\rte/sc_speed.h ****      * Function pointer to the output driver table
  63:.\sources\rte/sc_speed.h ****      */
  64:.\sources\rte/sc_speed.h ****    SC_SPEED_driverOut_t const outDriver;
  65:.\sources\rte/sc_speed.h ****    
  66:.\sources\rte/sc_speed.h ****     /**
  67:.\sources\rte/sc_speed.h ****      * Event onUpdate
  68:.\sources\rte/sc_speed.h ****      */
  69:.\sources\rte/sc_speed.h ****     EventMaskType const evOnUpdate;
  70:.\sources\rte/sc_speed.h ****     
  71:.\sources\rte/sc_speed.h ****     
  72:.\sources\rte/sc_speed.h ****     /**
  73:.\sources\rte/sc_speed.h ****      * Event onError
  74:.\sources\rte/sc_speed.h ****      */
  75:.\sources\rte/sc_speed.h ****     EventMaskType const evOnError;
  76:.\sources\rte/sc_speed.h ****     
  77:.\sources\rte/sc_speed.h ****     /**
  78:.\sources\rte/sc_speed.h ****      * Task Count onUpdate
  79:.\sources\rte/sc_speed.h ****      */
  80:.\sources\rte/sc_speed.h ****     size_t const onUpdateTaskCount;
  81:.\sources\rte/sc_speed.h **** 
  82:.\sources\rte/sc_speed.h ****     /**
  83:.\sources\rte/sc_speed.h ****      * Task List onUpdate
  84:.\sources\rte/sc_speed.h ****      */
  85:.\sources\rte/sc_speed.h ****     TaskTypeArray* const onUpdateTasks;
ARM GAS  C:\Users\Asus\AppData\Local\Temp\ccuHuNWc.s 			page 4


  86:.\sources\rte/sc_speed.h ****     
  87:.\sources\rte/sc_speed.h ****     /**
  88:.\sources\rte/sc_speed.h ****      * Task Count onError
  89:.\sources\rte/sc_speed.h ****      */
  90:.\sources\rte/sc_speed.h ****     size_t const onErrorTaskCount;
  91:.\sources\rte/sc_speed.h **** 
  92:.\sources\rte/sc_speed.h ****     /**
  93:.\sources\rte/sc_speed.h ****      * Task List onError
  94:.\sources\rte/sc_speed.h ****      */
  95:.\sources\rte/sc_speed.h ****     TaskTypeArray* const onErrorTasks;
  96:.\sources\rte/sc_speed.h **** 	
  97:.\sources\rte/sc_speed.h **** 	
  98:.\sources\rte/sc_speed.h **** 	/**
  99:.\sources\rte/sc_speed.h **** 	 * Ressourse is active? We need an additional boolean as a ressource value 0 is valid.
 100:.\sources\rte/sc_speed.h **** 	 */
 101:.\sources\rte/sc_speed.h **** 	 boolean_t const resourceActive;
 102:.\sources\rte/sc_speed.h **** 	 
 103:.\sources\rte/sc_speed.h **** 	/**
 104:.\sources\rte/sc_speed.h **** 	 * Ressourse 
 105:.\sources\rte/sc_speed.h **** 	 */
 106:.\sources\rte/sc_speed.h **** 	 ResourceType const resource;
 107:.\sources\rte/sc_speed.h **** 
 108:.\sources\rte/sc_speed.h **** };                                                                                                 
 109:.\sources\rte/sc_speed.h **** typedef const struct SC_SPEED_cfg_s SC_SPEED_cfg_t;
 110:.\sources\rte/sc_speed.h ****                               
 111:.\sources\rte/sc_speed.h **** /**************************************************************************************************
 112:.\sources\rte/sc_speed.h **** /* The data interface block																							*/
 113:.\sources\rte/sc_speed.h **** /**************************************************************************************************
 114:.\sources\rte/sc_speed.h **** 
 115:.\sources\rte/sc_speed.h ****                                                                                                    
 116:.\sources\rte/sc_speed.h **** 							  
 117:.\sources\rte/sc_speed.h **** /**
 118:.\sources\rte/sc_speed.h ****  * Instances of the struct SC_SPEED_t represent the signal objects.
 119:.\sources\rte/sc_speed.h ****  * A signal object contains the current application value 'value' as well as relevant meta data.
 120:.\sources\rte/sc_speed.h ****  */
 121:.\sources\rte/sc_speed.h **** struct SC_SPEED_s
 122:.\sources\rte/sc_speed.h **** {                                                                                                  
 123:.\sources\rte/sc_speed.h **** 
 124:.\sources\rte/sc_speed.h **** 	/**
 125:.\sources\rte/sc_speed.h **** 	 * Data buffer for the application value
 126:.\sources\rte/sc_speed.h **** 	 */
 127:.\sources\rte/sc_speed.h ****     SC_SPEED_data_t value;
 128:.\sources\rte/sc_speed.h **** 
 129:.\sources\rte/sc_speed.h ****     /**
 130:.\sources\rte/sc_speed.h ****      * Current signal status
 131:.\sources\rte/sc_speed.h ****      */
 132:.\sources\rte/sc_speed.h ****     RTE_signalStatus_t status;
 133:.\sources\rte/sc_speed.h **** 
 134:.\sources\rte/sc_speed.h ****     /**
 135:.\sources\rte/sc_speed.h ****      * Current age of the signal (in calling cycles)
 136:.\sources\rte/sc_speed.h ****      */
 137:.\sources\rte/sc_speed.h ****     uint32_t age;
 138:.\sources\rte/sc_speed.h **** 
 139:.\sources\rte/sc_speed.h ****     /**
 140:.\sources\rte/sc_speed.h ****      * Pointer to the signal configuration
 141:.\sources\rte/sc_speed.h ****      */
 142:.\sources\rte/sc_speed.h **** 	const SC_SPEED_cfg_t * const    pSigCfg;
ARM GAS  C:\Users\Asus\AppData\Local\Temp\ccuHuNWc.s 			page 5


 143:.\sources\rte/sc_speed.h **** 
 144:.\sources\rte/sc_speed.h **** };                                                                                                 
 145:.\sources\rte/sc_speed.h **** typedef struct SC_SPEED_s SC_SPEED_t;
 146:.\sources\rte/sc_speed.h **** 
 147:.\sources\rte/sc_speed.h **** /**************************************************************************************************
 148:.\sources\rte/sc_speed.h **** /* Signal initialisation   																							*/
 149:.\sources\rte/sc_speed.h **** /**************************************************************************************************
 150:.\sources\rte/sc_speed.h **** 
 151:.\sources\rte/sc_speed.h **** /**
 152:.\sources\rte/sc_speed.h ****  * Initializes a signal instance with a passed init value.
 153:.\sources\rte/sc_speed.h ****  * Depending on the configured conversion or scaling function the raw_value will be calculated.
 154:.\sources\rte/sc_speed.h ****  * Signal status will change from RTE_SIGNALSTATUS_STARTUP to RTE_SIGNALSTATUS_INITIALIZED.
 155:.\sources\rte/sc_speed.h ****  *
 156:.\sources\rte/sc_speed.h ****  * @param  SC_SPEED_t * const signal: Pointer to the signal object which will be initialised
 157:.\sources\rte/sc_speed.h ****  * @return RC_t: standard return code, currently only RC_SUCCESS
 158:.\sources\rte/sc_speed.h ****  *
 159:.\sources\rte/sc_speed.h ****  **/
 160:.\sources\rte/sc_speed.h **** inline RC_t RTE_SC_SPEED_init( SC_SPEED_t * const signal )
 161:.\sources\rte/sc_speed.h **** {                                                                                                  
 162:.\sources\rte/sc_speed.h **** 
 163:.\sources\rte/sc_speed.h ****    RC_t ret = RC_SUCCESS;
 164:.\sources\rte/sc_speed.h **** 
 165:.\sources\rte/sc_speed.h ****    //Set value and raw value
 166:.\sources\rte/sc_speed.h ****    signal->value  = SC_SPEED_INIT_DATA;
 167:.\sources\rte/sc_speed.h ****    signal->age    = 0;
 168:.\sources\rte/sc_speed.h ****    signal->status = RTE_SIGNALSTATUS_INITIALIZED;
 169:.\sources\rte/sc_speed.h **** 
 170:.\sources\rte/sc_speed.h ****    return ret;
 171:.\sources\rte/sc_speed.h **** }
 172:.\sources\rte/sc_speed.h **** 
 173:.\sources\rte/sc_speed.h **** /**************************************************************************************************
 174:.\sources\rte/sc_speed.h **** /* Status and timeout control																						*/
 175:.\sources\rte/sc_speed.h **** /**************************************************************************************************
 176:.\sources\rte/sc_speed.h **** 
 177:.\sources\rte/sc_speed.h **** /**
 178:.\sources\rte/sc_speed.h ****  *  Returns the current signal status of the passed signal instance.
 179:.\sources\rte/sc_speed.h ****  *
 180:.\sources\rte/sc_speed.h ****  * @param  SC_SPEED_t * const signal: Pointer to the signal object
 181:.\sources\rte/sc_speed.h ****  * @return  sig_status_t: The current signal status
 182:.\sources\rte/sc_speed.h ****  *
 183:.\sources\rte/sc_speed.h ****  **/
 184:.\sources\rte/sc_speed.h **** inline RTE_signalStatus_t RTE_SC_SPEED_getStatus( const SC_SPEED_t * const signal )
 185:.\sources\rte/sc_speed.h **** {
 186:.\sources\rte/sc_speed.h ****    return signal->status;
 187:.\sources\rte/sc_speed.h **** }
 188:.\sources\rte/sc_speed.h **** 
 189:.\sources\rte/sc_speed.h **** 
 190:.\sources\rte/sc_speed.h **** /**
 191:.\sources\rte/sc_speed.h ****  *  Sets a new signal status of the passed signal instance by passing the new status.
 192:.\sources\rte/sc_speed.h ****  *
 193:.\sources\rte/sc_speed.h ****  * @param  SC_SPEED_t * const signal: Pointer to the signal object
 194:.\sources\rte/sc_speed.h ****  * @param  const sig_status_t status: New signal status
 195:.\sources\rte/sc_speed.h ****  * @return RC_t: standard return code, currently only RC_SUCCESS
 196:.\sources\rte/sc_speed.h ****  *
 197:.\sources\rte/sc_speed.h ****  */
 198:.\sources\rte/sc_speed.h **** inline RC_t RTE_SC_SPEED_setStatus( SC_SPEED_t * const signal, const RTE_signalStatus_t status )
 199:.\sources\rte/sc_speed.h **** {
ARM GAS  C:\Users\Asus\AppData\Local\Temp\ccuHuNWc.s 			page 6


 200:.\sources\rte/sc_speed.h ****    signal->status = status;
 201:.\sources\rte/sc_speed.h ****    size_t taskNum=0;
 202:.\sources\rte/sc_speed.h ****    
 203:.\sources\rte/sc_speed.h ****    //Fire error events in case of invalid state
 204:.\sources\rte/sc_speed.h ****    if (signal->status == RTE_SIGNALSTATUS_INVALID)
 205:.\sources\rte/sc_speed.h ****    {
 206:.\sources\rte/sc_speed.h **** 	    //Pointer to the Taskarray, containing the tasks receiving the onUpdate events
 207:.\sources\rte/sc_speed.h **** 		TaskTypeArray* pTaskArray = signal->pSigCfg->onErrorTasks;
 208:.\sources\rte/sc_speed.h **** 
 209:.\sources\rte/sc_speed.h **** 		if (0 != signal->pSigCfg->evOnError && NULL != pTaskArray){
 210:.\sources\rte/sc_speed.h **** 			for( taskNum=0 ; taskNum < signal->pSigCfg->onErrorTaskCount ;taskNum++){
 211:.\sources\rte/sc_speed.h **** 				TaskType task = (*pTaskArray)[taskNum];
 212:.\sources\rte/sc_speed.h **** 				SetEvent( task, signal->pSigCfg->evOnError);
 213:.\sources\rte/sc_speed.h **** 			}
 214:.\sources\rte/sc_speed.h **** 		}
 215:.\sources\rte/sc_speed.h ****    }
 216:.\sources\rte/sc_speed.h ****    
 217:.\sources\rte/sc_speed.h ****    return RC_SUCCESS;
 218:.\sources\rte/sc_speed.h **** }
 219:.\sources\rte/sc_speed.h **** 
 220:.\sources\rte/sc_speed.h **** 
 221:.\sources\rte/sc_speed.h **** /**
 222:.\sources\rte/sc_speed.h ****  * Returns the count of refreshing trials (refresh, set or set_raw) that failed.
 223:.\sources\rte/sc_speed.h ****  * Prerquisite: The signal is refreshed cyclically
 224:.\sources\rte/sc_speed.h ****  *
 225:.\sources\rte/sc_speed.h ****  * @param  SC_SPEED_t * const signal: Pointer to the signal object
 226:.\sources\rte/sc_speed.h ****  * @return uint32_t: Number of cycles since the signal has been updated for the last time
 227:.\sources\rte/sc_speed.h ****  */
 228:.\sources\rte/sc_speed.h **** inline uint32_t RTE_SC_SPEED_getAge( const SC_SPEED_t * const signal )
 229:.\sources\rte/sc_speed.h **** {
 230:.\sources\rte/sc_speed.h ****    return signal->age;
  43              		.loc 2 230 0
  44 0002 204B     		ldr	r3, .L12
  45 0004 5B68     		ldr	r3, [r3, #4]
  46              	.LVL2:
  47              	.LBE12:
  48              	.LBE11:
  45:sources\asw/swc_engine.c **** 	
  46:sources\asw/swc_engine.c **** 	/* USER CODE START ENGINE_setEngine_run */
  47:sources\asw/swc_engine.c ****     
  48:sources\asw/swc_engine.c ****     //Giving Initial value of enginee speed as 0
  49:sources\asw/swc_engine.c ****     SC_SPEED_data_t enginespeedvalue = SC_SPEED_INIT_DATA;
  50:sources\asw/swc_engine.c ****     RC_t res = RC_SUCCESS;
  51:sources\asw/swc_engine.c ****     
  52:sources\asw/swc_engine.c ****     //Checking the age of speed signal and if signal is not too old then update the engine speed wi
  53:sources\asw/swc_engine.c ****     
  54:sources\asw/swc_engine.c ****     if(RTE_SC_SPEED_getAge(&SO_SPEED_signal) <10)
  49              		.loc 1 54 0
  50 0006 092B     		cmp	r3, #9
  51 0008 05D8     		bhi	.L2
  52              	.LVL3:
  55:sources\asw/swc_engine.c ****     {
  56:sources\asw/swc_engine.c ****         //Checking if the signal is not too old :
  57:sources\asw/swc_engine.c ****         //UART_LOG_PutString("\nSpeed signal is not old");
  58:sources\asw/swc_engine.c ****         
  59:sources\asw/swc_engine.c ****         enginespeedvalue.speed = RTE_SC_SPEED_get(&SO_SPEED_signal).speed;
  53              		.loc 1 59 0
ARM GAS  C:\Users\Asus\AppData\Local\Temp\ccuHuNWc.s 			page 7


  54 000a 1E4B     		ldr	r3, .L12
  55 000c 1C78     		ldrb	r4, [r3]	@ zero_extendqisi2
  60:sources\asw/swc_engine.c ****         //Printing on UART :
  61:sources\asw/swc_engine.c ****         UART_LOG_PutString("\nEngine signal updated with value of speed signal");
  56              		.loc 1 61 0
  57 000e 1E48     		ldr	r0, .L12+4
  58              	.LVL4:
  59 0010 FFF7FEFF 		bl	UART_LOG_PutString
  60              	.LVL5:
  61 0014 07E0     		b	.L3
  62              	.LVL6:
  63              	.L2:
  64 0016 4FF00004 		mov	r4, #0
  65              	.LVL7:
  62:sources\asw/swc_engine.c ****     }
  63:sources\asw/swc_engine.c ****     else
  64:sources\asw/swc_engine.c ****     {
  65:sources\asw/swc_engine.c ****         //Checking if the signal is old :
  66:sources\asw/swc_engine.c ****         UART_LOG_PutString("\nSpeed signal is old");
  66              		.loc 1 66 0
  67 001a 1C48     		ldr	r0, .L12+8
  68              	.LVL8:
  69 001c FFF7FEFF 		bl	UART_LOG_PutString
  70              	.LVL9:
  67:sources\asw/swc_engine.c ****         //If signal is old, then update engine speed value = 0
  68:sources\asw/swc_engine.c ****         enginespeedvalue.speed = 0;
  69:sources\asw/swc_engine.c ****         UART_LOG_PutString("\nEngine signal updated with value of 0");
  71              		.loc 1 69 0
  72 0020 1B48     		ldr	r0, .L12+12
  73 0022 FFF7FEFF 		bl	UART_LOG_PutString
  74              	.LVL10:
  75              	.L3:
  76              	.LBB13:
  77              	.LBB14:
 231:.\sources\rte/sc_speed.h **** }
 232:.\sources\rte/sc_speed.h **** 
 233:.\sources\rte/sc_speed.h **** /**
 234:.\sources\rte/sc_speed.h ****  * Should be called by application or driver if no new value can be provided.
 235:.\sources\rte/sc_speed.h ****  * @param  SC_SPEED_t * const signal: Pointer to the signal object
 236:.\sources\rte/sc_speed.h ****  * @param uint32_t increment: incrementvalue, typically in [ms]
 237:.\sources\rte/sc_speed.h ****  * @return void
 238:.\sources\rte/sc_speed.h ****  */
 239:.\sources\rte/sc_speed.h **** inline void RTE_SC_SPEED_incAge(  SC_SPEED_t * const signal , uint32_t increment)
 240:.\sources\rte/sc_speed.h **** {
 241:.\sources\rte/sc_speed.h **** 	   //Hack....
 242:.\sources\rte/sc_speed.h **** 	   if ( 0xFFFF0000 > (signal->age + increment) )
 243:.\sources\rte/sc_speed.h **** 	   {
 244:.\sources\rte/sc_speed.h **** 	      signal->age += increment;
 245:.\sources\rte/sc_speed.h **** 	   }
 246:.\sources\rte/sc_speed.h **** }
 247:.\sources\rte/sc_speed.h **** 
 248:.\sources\rte/sc_speed.h **** 
 249:.\sources\rte/sc_speed.h **** /**************************************************************************************************
 250:.\sources\rte/sc_speed.h **** /* Application Data read/write Interface																			*/
 251:.\sources\rte/sc_speed.h **** /**************************************************************************************************
 252:.\sources\rte/sc_speed.h **** 
 253:.\sources\rte/sc_speed.h **** /**
ARM GAS  C:\Users\Asus\AppData\Local\Temp\ccuHuNWc.s 			page 8


 254:.\sources\rte/sc_speed.h ****  * Returns the current application value as pointer to the signal payload.
 255:.\sources\rte/sc_speed.h ****  * Careful: This is not threadsafe!!!
 256:.\sources\rte/sc_speed.h ****  *
 257:.\sources\rte/sc_speed.h ****  * @param  SC_SPEED_t * const signal: Pointer to the signal object
 258:.\sources\rte/sc_speed.h ****  * @return sc_speed_data_t*: pointer to the current value of the application data buffer
 259:.\sources\rte/sc_speed.h ****  *
 260:.\sources\rte/sc_speed.h ****  **/
 261:.\sources\rte/sc_speed.h **** inline SC_SPEED_data_t* RTE_SC_SPEED_getPtr( SC_SPEED_t * const signal )
 262:.\sources\rte/sc_speed.h **** {               
 263:.\sources\rte/sc_speed.h ****    //Todo: Critical region cannot be protected using return values																						
 264:.\sources\rte/sc_speed.h ****    return &(signal->value);                                                                        
 265:.\sources\rte/sc_speed.h **** }
 266:.\sources\rte/sc_speed.h **** 
 267:.\sources\rte/sc_speed.h **** /**
 268:.\sources\rte/sc_speed.h ****  * Returns the current application value of the passed signal instance.
 269:.\sources\rte/sc_speed.h ****  *
 270:.\sources\rte/sc_speed.h ****  * @param  SC_SPEED_t * const signal: Pointer to the signal object
 271:.\sources\rte/sc_speed.h ****  * @return sc_speed_data_t: current value of the application data buffer
 272:.\sources\rte/sc_speed.h ****  *
 273:.\sources\rte/sc_speed.h ****  **/
 274:.\sources\rte/sc_speed.h **** inline SC_SPEED_data_t RTE_SC_SPEED_get( const SC_SPEED_t * const signal )
 275:.\sources\rte/sc_speed.h **** {               
 276:.\sources\rte/sc_speed.h ****    //Todo: Critical region cannot be protected using return values																						
 277:.\sources\rte/sc_speed.h ****    return signal->value;                                                                           
 278:.\sources\rte/sc_speed.h **** }                                                                                                  
 279:.\sources\rte/sc_speed.h ****                                                                                                    
 280:.\sources\rte/sc_speed.h **** /**
 281:.\sources\rte/sc_speed.h ****  * Returns the current application value of the passed signal instance threadsafe.
 282:.\sources\rte/sc_speed.h ****  *
 283:.\sources\rte/sc_speed.h ****  * @param  SC_SPEED_t * const signal: Pointer to the signal object
 284:.\sources\rte/sc_speed.h ****  * @param  SC_SPEED_data_t* data: Pointer to the return data Pointer to the signal object
 285:.\sources\rte/sc_speed.h ****  * @return RC_SUCCESS
 286:.\sources\rte/sc_speed.h ****  *
 287:.\sources\rte/sc_speed.h ****  **/
 288:.\sources\rte/sc_speed.h **** inline RC_t RTE_SC_SPEED_getThreadSafe( const SC_SPEED_t * const signal, SC_SPEED_data_t * const da
 289:.\sources\rte/sc_speed.h **** {    
 290:.\sources\rte/sc_speed.h ****    if (TRUE == signal->pSigCfg->resourceActive) GetResource(signal->pSigCfg->resource);
 291:.\sources\rte/sc_speed.h ****    *data = signal->value;
 292:.\sources\rte/sc_speed.h ****    if (TRUE == signal->pSigCfg->resourceActive) ReleaseResource(signal->pSigCfg->resource);        
 293:.\sources\rte/sc_speed.h **** 
 294:.\sources\rte/sc_speed.h ****    return RC_SUCCESS;                                                                   
 295:.\sources\rte/sc_speed.h ****    
 296:.\sources\rte/sc_speed.h **** }                                                                                                  
 297:.\sources\rte/sc_speed.h ****                                                                                                    
 298:.\sources\rte/sc_speed.h **** /**
 299:.\sources\rte/sc_speed.h ****  * Sets a new application value to the passed signal instance by passing the new value.
 300:.\sources\rte/sc_speed.h ****  * The corresponding driver raw value will be calculated immediately by using the default conversio
 301:.\sources\rte/sc_speed.h ****  * signal specific scaling function.
 302:.\sources\rte/sc_speed.h ****  * The signal age will be set to 0 and the new status will be 'RTE_SIGNALSTATUS_VALID'.
 303:.\sources\rte/sc_speed.h ****  *
 304:.\sources\rte/sc_speed.h ****  * @param  SC_SPEED_t * const signal: Pointer to the signal object
 305:.\sources\rte/sc_speed.h ****  * @param  sc_speed_data_t const value: value for the application data buffer
 306:.\sources\rte/sc_speed.h ****  * @return RC_t: standard return code, currently only RC_SUCCESS
 307:.\sources\rte/sc_speed.h ****  *
 308:.\sources\rte/sc_speed.h ****  **/
 309:.\sources\rte/sc_speed.h **** inline RC_t RTE_SC_SPEED_set(SC_SPEED_t * const signal, const SC_SPEED_data_t value  )
 310:.\sources\rte/sc_speed.h **** {
ARM GAS  C:\Users\Asus\AppData\Local\Temp\ccuHuNWc.s 			page 9


 311:.\sources\rte/sc_speed.h **** 
 312:.\sources\rte/sc_speed.h ****    RC_t ret = RC_SUCCESS;
 313:.\sources\rte/sc_speed.h ****    size_t taskNum=0;
 314:.\sources\rte/sc_speed.h **** 
 315:.\sources\rte/sc_speed.h **** 
 316:.\sources\rte/sc_speed.h ****    if (TRUE == signal->pSigCfg->resourceActive) GetResource(signal->pSigCfg->resource);
  78              		.loc 2 316 0
  79 0026 1B4B     		ldr	r3, .L12+16
  80 0028 9A68     		ldr	r2, [r3, #8]
  81              	.LVL11:
 317:.\sources\rte/sc_speed.h ****    signal->value  = value;
  82              		.loc 2 317 0
  83 002a 1C70     		strb	r4, [r3]
 318:.\sources\rte/sc_speed.h ****    signal->age    = 0;
  84              		.loc 2 318 0
  85 002c 0021     		movs	r1, #0
  86 002e 5960     		str	r1, [r3, #4]
 319:.\sources\rte/sc_speed.h ****    signal->status = RTE_SIGNALSTATUS_VALID;
  87              		.loc 2 319 0
  88 0030 0221     		movs	r1, #2
  89 0032 5970     		strb	r1, [r3, #1]
 320:.\sources\rte/sc_speed.h ****    if (TRUE == signal->pSigCfg->resourceActive) ReleaseResource(signal->pSigCfg->resource);
 321:.\sources\rte/sc_speed.h **** 
 322:.\sources\rte/sc_speed.h ****    //Pointer to the Taskarray, containing the tasks receiving the onUpdate events
 323:.\sources\rte/sc_speed.h ****    TaskTypeArray* pTaskArray = signal->pSigCfg->onUpdateTasks;
  90              		.loc 2 323 0
  91 0034 5569     		ldr	r5, [r2, #20]
  92              	.LVL12:
 324:.\sources\rte/sc_speed.h **** 
 325:.\sources\rte/sc_speed.h ****    if (0 != signal->pSigCfg->evOnUpdate && NULL != pTaskArray){
  93              		.loc 2 325 0
  94 0036 9368     		ldr	r3, [r2, #8]
  95 0038 73B1     		cbz	r3, .L4
  96 003a 3DB9     		cbnz	r5, .L9
  97 003c 0CE0     		b	.L4
  98              	.LVL13:
  99              	.L6:
 100              	.LBB15:
 326:.\sources\rte/sc_speed.h ****       for( taskNum=0 ; taskNum < signal->pSigCfg->onUpdateTaskCount ;taskNum++){
 327:.\sources\rte/sc_speed.h **** 		  
 328:.\sources\rte/sc_speed.h ****           TaskType task = (*pTaskArray)[taskNum];
 329:.\sources\rte/sc_speed.h **** 	      SetEvent( task, signal->pSigCfg->evOnUpdate);
 101              		.loc 2 329 0
 102 003e 9968     		ldr	r1, [r3, #8]
 103 0040 55F82400 		ldr	r0, [r5, r4, lsl #2]
 104 0044 FFF7FEFF 		bl	EE_oo_SetEvent
 105              	.LVL14:
 106              	.LBE15:
 326:.\sources\rte/sc_speed.h ****       for( taskNum=0 ; taskNum < signal->pSigCfg->onUpdateTaskCount ;taskNum++){
 107              		.loc 2 326 0
 108 0048 0134     		adds	r4, r4, #1
 109              	.LVL15:
 110 004a 00E0     		b	.L5
 111              	.LVL16:
 112              	.L9:
 325:.\sources\rte/sc_speed.h ****       for( taskNum=0 ; taskNum < signal->pSigCfg->onUpdateTaskCount ;taskNum++){
 113              		.loc 2 325 0
ARM GAS  C:\Users\Asus\AppData\Local\Temp\ccuHuNWc.s 			page 10


 114 004c 0024     		movs	r4, #0
 115              	.LVL17:
 116              	.L5:
 326:.\sources\rte/sc_speed.h ****       for( taskNum=0 ; taskNum < signal->pSigCfg->onUpdateTaskCount ;taskNum++){
 117              		.loc 2 326 0
 118 004e 114B     		ldr	r3, .L12+16
 119 0050 9B68     		ldr	r3, [r3, #8]
 120 0052 1A69     		ldr	r2, [r3, #16]
 121 0054 9442     		cmp	r4, r2
 122 0056 F2D3     		bcc	.L6
 123              	.LVL18:
 124              	.L4:
 125              	.LBE14:
 126              	.LBE13:
  70:sources\asw/swc_engine.c ****     }
  71:sources\asw/swc_engine.c ****     
  72:sources\asw/swc_engine.c ****     //Now, updating the enginee speed object with the value in the enginee speed value
  73:sources\asw/swc_engine.c ****     
  74:sources\asw/swc_engine.c ****     res = RTE_SC_SPEED_set(&SO_ENGINESIGNAL_signal, enginespeedvalue);
  75:sources\asw/swc_engine.c ****     
  76:sources\asw/swc_engine.c ****     if (res == RC_SUCCESS)
  77:sources\asw/swc_engine.c ****     {
  78:sources\asw/swc_engine.c ****         UART_LOG_PutString("\nEnginee signal object updated with engine signal value");
 127              		.loc 1 78 0
 128 0058 0F48     		ldr	r0, .L12+20
 129 005a FFF7FEFF 		bl	UART_LOG_PutString
 130              	.LVL19:
 131              	.LBB16:
 132              	.LBB17:
 330:.\sources\rte/sc_speed.h ****       }
 331:.\sources\rte/sc_speed.h ****    }
 332:.\sources\rte/sc_speed.h **** 
 333:.\sources\rte/sc_speed.h ****    return ret;
 334:.\sources\rte/sc_speed.h **** }                                                                                                  
 335:.\sources\rte/sc_speed.h ****                                                                                                    
 336:.\sources\rte/sc_speed.h ****                                                                                                    
 337:.\sources\rte/sc_speed.h **** /**************************************************************************************************
 338:.\sources\rte/sc_speed.h **** /* Call functions to the connected drivers																			*/
 339:.\sources\rte/sc_speed.h **** /**************************************************************************************************
 340:.\sources\rte/sc_speed.h **** 
 341:.\sources\rte/sc_speed.h ****                                                                                                    
 342:.\sources\rte/sc_speed.h **** /**
 343:.\sources\rte/sc_speed.h ****  *  Calls the connected driver interface to get a new value.
 344:.\sources\rte/sc_speed.h ****  *
 345:.\sources\rte/sc_speed.h ****  * @param SC_SPEED_t * const signal: Pointer to the signal object
 346:.\sources\rte/sc_speed.h ****  * @return  RC_t: Return value of the driver call
 347:.\sources\rte/sc_speed.h ****  *
 348:.\sources\rte/sc_speed.h ****  */
 349:.\sources\rte/sc_speed.h **** inline RC_t RTE_SC_SPEED_pullPort( SC_SPEED_t * const signal )
 350:.\sources\rte/sc_speed.h **** {                                                                                                  
 351:.\sources\rte/sc_speed.h ****    RC_t ret = RC_SUCCESS;
 352:.\sources\rte/sc_speed.h **** 
 353:.\sources\rte/sc_speed.h ****                                                                                                    
 354:.\sources\rte/sc_speed.h ****    if ( NULL != signal->pSigCfg->inDriver )
 355:.\sources\rte/sc_speed.h ****    {
 356:.\sources\rte/sc_speed.h **** 	  SC_SPEED_data_t value = signal->value;
 357:.\sources\rte/sc_speed.h ****       ret = signal->pSigCfg->inDriver(&value);
ARM GAS  C:\Users\Asus\AppData\Local\Temp\ccuHuNWc.s 			page 11


 358:.\sources\rte/sc_speed.h ****                                                                                                    
 359:.\sources\rte/sc_speed.h ****       if ( ret == RC_SUCCESS )                                                                     
 360:.\sources\rte/sc_speed.h ****       {
 361:.\sources\rte/sc_speed.h ****     	  //Critical Section
 362:.\sources\rte/sc_speed.h ****     	  RTE_SC_SPEED_set(signal, value);
 363:.\sources\rte/sc_speed.h ****       }
 364:.\sources\rte/sc_speed.h ****       else
 365:.\sources\rte/sc_speed.h ****       {
 366:.\sources\rte/sc_speed.h **** 		  //Signal is invalid. Error event (if present) will be fired
 367:.\sources\rte/sc_speed.h **** 		  RTE_SC_SPEED_setStatus(signal, RTE_SIGNALSTATUS_INVALID);
 368:.\sources\rte/sc_speed.h ****       }
 369:.\sources\rte/sc_speed.h **** 
 370:.\sources\rte/sc_speed.h ****    }                                                                                               
 371:.\sources\rte/sc_speed.h ****                                                                                                    
 372:.\sources\rte/sc_speed.h ****    return ret;                                                                                     
 373:.\sources\rte/sc_speed.h **** }                                                                                                  
 374:.\sources\rte/sc_speed.h ****                                                                                                    
 375:.\sources\rte/sc_speed.h **** /**
 376:.\sources\rte/sc_speed.h ****  *  Calls the connected driver interfaces to send a value. Value will not be sent if it is INVALID.
 377:.\sources\rte/sc_speed.h ****  *
 378:.\sources\rte/sc_speed.h ****  * @param SC_SPEED_t * const signal: Pointer to the signal object
 379:.\sources\rte/sc_speed.h ****  * @return  RC_t: Return value of the driver call
 380:.\sources\rte/sc_speed.h ****  *
 381:.\sources\rte/sc_speed.h ****  **/
 382:.\sources\rte/sc_speed.h **** inline RC_t RTE_SC_SPEED_pushPort( const SC_SPEED_t * const signal )
 383:.\sources\rte/sc_speed.h **** {                                                                                                  
 384:.\sources\rte/sc_speed.h ****    RC_t ret = RC_ERROR;
 385:.\sources\rte/sc_speed.h **** 
 386:.\sources\rte/sc_speed.h ****    if (RTE_SIGNALSTATUS_VALID == signal->status)
 133              		.loc 2 386 0
 134 005e 0D4B     		ldr	r3, .L12+16
 135 0060 5B78     		ldrb	r3, [r3, #1]	@ zero_extendqisi2
 136 0062 022B     		cmp	r3, #2
 137 0064 04D1     		bne	.L10
 387:.\sources\rte/sc_speed.h ****    {
 388:.\sources\rte/sc_speed.h **** 	   ret = signal->pSigCfg->outDriver(&(signal->value));
 138              		.loc 2 388 0
 139 0066 0B48     		ldr	r0, .L12+16
 140 0068 8368     		ldr	r3, [r0, #8]
 141 006a 5B68     		ldr	r3, [r3, #4]
 142 006c 9847     		blx	r3
 143              	.LVL20:
 144 006e 01E0     		b	.L7
 145              	.LVL21:
 146              	.L10:
 384:.\sources\rte/sc_speed.h **** 
 147              		.loc 2 384 0
 148 0070 4FF0FF30 		mov	r0, #-1
 149              	.LVL22:
 150              	.L7:
 151              	.LBE17:
 152              	.LBE16:
  79:sources\asw/swc_engine.c ****         //Writing the enginee signal object to the PWM driver using Push port API
  80:sources\asw/swc_engine.c ****         res = RTE_SC_SPEED_pushPort(&SO_ENGINESIGNAL_signal);
  81:sources\asw/swc_engine.c ****         //Error Handling
  82:sources\asw/swc_engine.c ****         if (res != RC_SUCCESS)
 153              		.loc 1 82 0
ARM GAS  C:\Users\Asus\AppData\Local\Temp\ccuHuNWc.s 			page 12


 154 0074 10B1     		cbz	r0, .L8
  83:sources\asw/swc_engine.c ****         {
  84:sources\asw/swc_engine.c ****             UART_LOG_PutString("\nError: Enginee signal not able to write to Driver");
 155              		.loc 1 84 0
 156 0076 0948     		ldr	r0, .L12+24
 157 0078 FFF7FEFF 		bl	UART_LOG_PutString
 158              	.LVL23:
 159              	.L8:
  85:sources\asw/swc_engine.c ****         }
  86:sources\asw/swc_engine.c **** /*        else
  87:sources\asw/swc_engine.c ****         {
  88:sources\asw/swc_engine.c ****             UART_LOG_PutString("\nEnginee signal written to Driver");
  89:sources\asw/swc_engine.c ****         }*/
  90:sources\asw/swc_engine.c ****     }
  91:sources\asw/swc_engine.c ****     else
  92:sources\asw/swc_engine.c ****     {
  93:sources\asw/swc_engine.c ****         UART_LOG_PutString("\nERROR: Enginee signal object not updated with engine signal value");
  94:sources\asw/swc_engine.c ****     }
  95:sources\asw/swc_engine.c **** 
  96:sources\asw/swc_engine.c ****     WD_Alive(run_engine_pos);
 160              		.loc 1 96 0
 161 007c 0220     		movs	r0, #2
 162 007e FFF7FEFF 		bl	WD_Alive
 163              	.LVL24:
 164 0082 38BD     		pop	{r3, r4, r5, pc}
 165              	.LVL25:
 166              	.L13:
 167              		.align	2
 168              	.L12:
 169 0084 00000000 		.word	SO_SPEED_signal
 170 0088 00000000 		.word	.LC0
 171 008c 34000000 		.word	.LC1
 172 0090 4C000000 		.word	.LC2
 173 0094 00000000 		.word	SO_ENGINESIGNAL_signal
 174 0098 74000000 		.word	.LC3
 175 009c AC000000 		.word	.LC4
 176              		.cfi_endproc
 177              	.LFE132:
 178              		.size	ENGINE_setEngine_run, .-ENGINE_setEngine_run
 179              		.section	.rodata.str1.4,"aMS",%progbits,1
 180              		.align	2
 181              	.LC0:
 182 0000 0A456E67 		.ascii	"\012Engine signal updated with value of speed signa"
 182      696E6520 
 182      7369676E 
 182      616C2075 
 182      70646174 
 183 0030 6C00     		.ascii	"l\000"
 184 0032 0000     		.space	2
 185              	.LC1:
 186 0034 0A537065 		.ascii	"\012Speed signal is old\000"
 186      65642073 
 186      69676E61 
 186      6C206973 
 186      206F6C64 
 187 0049 000000   		.space	3
 188              	.LC2:
ARM GAS  C:\Users\Asus\AppData\Local\Temp\ccuHuNWc.s 			page 13


 189 004c 0A456E67 		.ascii	"\012Engine signal updated with value of 0\000"
 189      696E6520 
 189      7369676E 
 189      616C2075 
 189      70646174 
 190 0073 00       		.space	1
 191              	.LC3:
 192 0074 0A456E67 		.ascii	"\012Enginee signal object updated with engine signa"
 192      696E6565 
 192      20736967 
 192      6E616C20 
 192      6F626A65 
 193 00a4 6C207661 		.ascii	"l value\000"
 193      6C756500 
 194              	.LC4:
 195 00ac 0A457272 		.ascii	"\012Error: Enginee signal not able to write to Driv"
 195      6F723A20 
 195      456E6769 
 195      6E656520 
 195      7369676E 
 196 00dc 657200   		.ascii	"er\000"
 197              		.text
 198              	.Letext0:
 199              		.file 3 "c:\\program files (x86)\\cypress\\psoc creator\\4.4\\psoc creator\\import\\gnu\\arm\\5.4.
 200              		.file 4 "c:\\program files (x86)\\cypress\\psoc creator\\4.4\\psoc creator\\import\\gnu\\arm\\5.4.
 201              		.file 5 "c:\\program files (x86)\\cypress\\psoc creator\\4.4\\psoc creator\\import\\gnu\\arm\\5.4.
 202              		.file 6 "Generated_Source\\PSoC5/ErikaOS_1_common_ee_types.inc"
 203              		.file 7 "Generated_Source\\PSoC5/ErikaOS_1_cortex_mx_ee_cpu.inc"
 204              		.file 8 "Generated_Source\\PSoC5/ErikaOS_1_ee_oo_common.inc"
 205              		.file 9 ".\\sources\\bsw/global.h"
 206              		.file 10 ".\\sources\\rte/rte_types.h"
 207              		.file 11 ".\\sources\\rte/rte.h"
 208              		.file 12 ".\\sources\\rte/sc_speed_type.h"
 209              		.file 13 "Generated_Source\\PSoC5/ErikaOS_1_ee_oo_intfunc.inc"
 210              		.file 14 "Generated_Source\\PSoC5/ErikaOS_1_cortex_mx_ee_context.inc"
 211              		.file 15 "Generated_Source\\PSoC5/ErikaOS_1_common_ee_primitives.inc"
 212              		.file 16 "Generated_Source\\PSoC5/core_cm3.h"
 213              		.file 17 ".\\sources\\rte/sp_common.h"
 214              		.file 18 "Generated_Source\\PSoC5/ErikaOS_1_ee_oo_kernel.inc"
 215              		.file 19 "Generated_Source\\PSoC5/UART_LOG.h"
 216              		.file 20 "sources\\asw\\WatchDogTimer.h"