ARM GAS  C:\Users\Asus\AppData\Local\Temp\cceBP7pa.s 			page 1


   1              		.syntax unified
   2              		.cpu cortex-m3
   3              		.fpu softvfp
   4              		.eabi_attribute 20, 1
   5              		.eabi_attribute 21, 1
   6              		.eabi_attribute 23, 3
   7              		.eabi_attribute 24, 1
   8              		.eabi_attribute 25, 1
   9              		.eabi_attribute 26, 1
  10              		.eabi_attribute 30, 1
  11              		.eabi_attribute 34, 1
  12              		.eabi_attribute 18, 4
  13              		.thumb
  14              		.syntax unified
  15              		.file	"WatchDogTimer.c"
  16              		.text
  17              	.Ltext0:
  18              		.cfi_sections	.debug_frame
  19              		.section	.text.WD_Start,"ax",%progbits
  20              		.align	2
  21              		.global	WD_Start
  22              		.thumb
  23              		.thumb_func
  24              		.type	WD_Start, %function
  25              	WD_Start:
  26              	.LFB111:
  27              		.file 1 "sources\\asw\\WatchDogTimer.c"
   1:sources\asw/WatchDogTimer.c **** #include "global.h"
   2:sources\asw/WatchDogTimer.c **** #include <stdio.h>
   3:sources\asw/WatchDogTimer.c **** #include <stdlib.h>
   4:sources\asw/WatchDogTimer.c **** #include "WatchDogTimer.h"
   5:sources\asw/WatchDogTimer.c **** 
   6:sources\asw/WatchDogTimer.c **** static uint8_t WD_RunnableAliveBitField;
   7:sources\asw/WatchDogTimer.c **** 
   8:sources\asw/WatchDogTimer.c **** //Function Implementation
   9:sources\asw/WatchDogTimer.c **** 
  10:sources\asw/WatchDogTimer.c **** /**
  11:sources\asw/WatchDogTimer.c **** * Activate the Watchdog Trigger
  12:sources\asw/WatchDogTimer.c **** * \param WDT_TimeOut_t timeout - [IN] Timeout Period
  13:sources\asw/WatchDogTimer.c **** * @return RC_SUCCESS
  14:sources\asw/WatchDogTimer.c **** */
  15:sources\asw/WatchDogTimer.c **** RC_t WD_Start( WDT_TimeOut_t timeout)
  16:sources\asw/WatchDogTimer.c **** {
  28              		.loc 1 16 0
  29              		.cfi_startproc
  30              		@ args = 0, pretend = 0, frame = 0
  31              		@ frame_needed = 0, uses_anonymous_args = 0
  32              	.LVL0:
  33 0000 08B5     		push	{r3, lr}
  34              		.cfi_def_cfa_offset 8
  35              		.cfi_offset 3, -8
  36              		.cfi_offset 14, -4
  17:sources\asw/WatchDogTimer.c ****     CyWdtStart(timeout, CYWDT_LPMODE_NOCHANGE);
  37              		.loc 1 17 0
  38 0002 0021     		movs	r1, #0
  39 0004 FFF7FEFF 		bl	CyWdtStart
  40              	.LVL1:
ARM GAS  C:\Users\Asus\AppData\Local\Temp\cceBP7pa.s 			page 2


  18:sources\asw/WatchDogTimer.c ****     return RC_SUCCESS;
  19:sources\asw/WatchDogTimer.c **** }
  41              		.loc 1 19 0
  42 0008 0020     		movs	r0, #0
  43 000a 08BD     		pop	{r3, pc}
  44              		.cfi_endproc
  45              	.LFE111:
  46              		.size	WD_Start, .-WD_Start
  47              		.section	.text.WD_Trigger,"ax",%progbits
  48              		.align	2
  49              		.global	WD_Trigger
  50              		.thumb
  51              		.thumb_func
  52              		.type	WD_Trigger, %function
  53              	WD_Trigger:
  54              	.LFB112:
  20:sources\asw/WatchDogTimer.c **** 
  21:sources\asw/WatchDogTimer.c **** /**
  22:sources\asw/WatchDogTimer.c **** * Service the Watchdog Trigger
  23:sources\asw/WatchDogTimer.c **** * @return RC_SUCCESS
  24:sources\asw/WatchDogTimer.c **** */
  25:sources\asw/WatchDogTimer.c **** RC_t WD_Trigger()
  26:sources\asw/WatchDogTimer.c **** {
  55              		.loc 1 26 0
  56              		.cfi_startproc
  57              		@ args = 0, pretend = 0, frame = 0
  58              		@ frame_needed = 0, uses_anonymous_args = 0
  59 0000 08B5     		push	{r3, lr}
  60              		.cfi_def_cfa_offset 8
  61              		.cfi_offset 3, -8
  62              		.cfi_offset 14, -4
  27:sources\asw/WatchDogTimer.c ****     //If every runnable sends alive bit i.e. 0x0f = 0000 1111 then clear watchdog timer and reset b
  28:sources\asw/WatchDogTimer.c ****     if(WD_RunnableAliveBitField == 0x0f)
  63              		.loc 1 28 0
  64 0002 054B     		ldr	r3, .L6
  65 0004 1B78     		ldrb	r3, [r3]	@ zero_extendqisi2
  66 0006 0F2B     		cmp	r3, #15
  67 0008 04D1     		bne	.L4
  29:sources\asw/WatchDogTimer.c ****     {
  30:sources\asw/WatchDogTimer.c ****         CyWdtClear();
  68              		.loc 1 30 0
  69 000a FFF7FEFF 		bl	CyWdtClear
  70              	.LVL2:
  31:sources\asw/WatchDogTimer.c ****         WD_RunnableAliveBitField = 0;
  71              		.loc 1 31 0
  72 000e 0022     		movs	r2, #0
  73 0010 014B     		ldr	r3, .L6
  74 0012 1A70     		strb	r2, [r3]
  75              	.L4:
  32:sources\asw/WatchDogTimer.c ****     }    
  33:sources\asw/WatchDogTimer.c ****     return RC_SUCCESS;
  34:sources\asw/WatchDogTimer.c **** }
  76              		.loc 1 34 0
  77 0014 0020     		movs	r0, #0
  78 0016 08BD     		pop	{r3, pc}
  79              	.L7:
  80              		.align	2
ARM GAS  C:\Users\Asus\AppData\Local\Temp\cceBP7pa.s 			page 3


  81              	.L6:
  82 0018 00000000 		.word	.LANCHOR0
  83              		.cfi_endproc
  84              	.LFE112:
  85              		.size	WD_Trigger, .-WD_Trigger
  86              		.section	.text.WD_CheckResetBit,"ax",%progbits
  87              		.align	2
  88              		.global	WD_CheckResetBit
  89              		.thumb
  90              		.thumb_func
  91              		.type	WD_CheckResetBit, %function
  92              	WD_CheckResetBit:
  93              	.LFB113:
  35:sources\asw/WatchDogTimer.c **** 
  36:sources\asw/WatchDogTimer.c **** /**
  37:sources\asw/WatchDogTimer.c **** * Checks the watchdog bit
  38:sources\asw/WatchDogTimer.c **** * @return TRUE if watchdog reset bit was set
  39:sources\asw/WatchDogTimer.c **** */
  40:sources\asw/WatchDogTimer.c **** boolean_t WD_CheckResetBit()
  41:sources\asw/WatchDogTimer.c **** {
  94              		.loc 1 41 0
  95              		.cfi_startproc
  96              		@ args = 0, pretend = 0, frame = 0
  97              		@ frame_needed = 0, uses_anonymous_args = 0
  98              		@ link register save eliminated.
  42:sources\asw/WatchDogTimer.c ****     //Check if watchdog is source of reset by checking the watchdog reset bit in status register
  43:sources\asw/WatchDogTimer.c ****     if(CyResetStatus & CY_RESET_WD)
  99              		.loc 1 43 0
 100 0000 044B     		ldr	r3, .L10
 101 0002 1B78     		ldrb	r3, [r3]	@ zero_extendqisi2
 102 0004 03F00803 		and	r3, r3, #8
 103 0008 03F0FF00 		and	r0, r3, #255
 104 000c 03B1     		cbz	r3, .L9
  44:sources\asw/WatchDogTimer.c ****     {
  45:sources\asw/WatchDogTimer.c ****         return TRUE;
 105              		.loc 1 45 0
 106 000e 0120     		movs	r0, #1
 107              	.L9:
  46:sources\asw/WatchDogTimer.c ****     }
  47:sources\asw/WatchDogTimer.c ****     else
  48:sources\asw/WatchDogTimer.c ****     {
  49:sources\asw/WatchDogTimer.c ****         return FALSE;
  50:sources\asw/WatchDogTimer.c ****     }
  51:sources\asw/WatchDogTimer.c **** }
 108              		.loc 1 51 0
 109 0010 7047     		bx	lr
 110              	.L11:
 111 0012 00BF     		.align	2
 112              	.L10:
 113 0014 00000000 		.word	CyResetStatus
 114              		.cfi_endproc
 115              	.LFE113:
 116              		.size	WD_CheckResetBit, .-WD_CheckResetBit
 117              		.section	.text.WD_Alive,"ax",%progbits
 118              		.align	2
 119              		.global	WD_Alive
 120              		.thumb
ARM GAS  C:\Users\Asus\AppData\Local\Temp\cceBP7pa.s 			page 4


 121              		.thumb_func
 122              		.type	WD_Alive, %function
 123              	WD_Alive:
 124              	.LFB114:
  52:sources\asw/WatchDogTimer.c **** 
  53:sources\asw/WatchDogTimer.c **** /**
  54:sources\asw/WatchDogTimer.c **** * This function sets the bit at the corresponding position.
  55:sources\asw/WatchDogTimer.c **** * It is called by every runnable using a uniqe position.
  56:sources\asw/WatchDogTimer.c **** * 0 = JoyStick_run, 1 = Control_run, 2 = Engine_run, 3 = brakelight_run
  57:sources\asw/WatchDogTimer.c **** * @return RC_SUCCESS
  58:sources\asw/WatchDogTimer.c **** */
  59:sources\asw/WatchDogTimer.c **** RC_t WD_Alive(uint8_t myBitPosition)
  60:sources\asw/WatchDogTimer.c **** {
 125              		.loc 1 60 0
 126              		.cfi_startproc
 127              		@ args = 0, pretend = 0, frame = 0
 128              		@ frame_needed = 0, uses_anonymous_args = 0
 129              		@ link register save eliminated.
 130              	.LVL3:
  61:sources\asw/WatchDogTimer.c ****     /*
  62:sources\asw/WatchDogTimer.c ****     Let say joystick runnable sends alive bit i.e. myBitPosition = 0
  63:sources\asw/WatchDogTimer.c ****     Initial value of WD_RunnableAliveBitField = 0000 0000
  64:sources\asw/WatchDogTimer.c ****     left shift 1U by 0 i.e. 0000 0001 <<0 ==> 0000 0001
  65:sources\asw/WatchDogTimer.c ****     Bitwise OR between (1U << myBitPositon) and WD_RunnableAliveBitField ==> 0000 0001
  66:sources\asw/WatchDogTimer.c ****     so for second runnable ==> 0000 0011
  67:sources\asw/WatchDogTimer.c ****     Third runnable ==> 0000 0111
  68:sources\asw/WatchDogTimer.c ****     Fourth runnable ==> 0000 1111
  69:sources\asw/WatchDogTimer.c ****     */
  70:sources\asw/WatchDogTimer.c ****     WD_RunnableAliveBitField |= (1U) << myBitPosition;
 131              		.loc 1 70 0
 132 0000 0123     		movs	r3, #1
 133 0002 03FA00F0 		lsl	r0, r3, r0
 134              	.LVL4:
 135 0006 034A     		ldr	r2, .L13
 136 0008 1378     		ldrb	r3, [r2]	@ zero_extendqisi2
 137 000a 1843     		orrs	r0, r0, r3
 138 000c 1070     		strb	r0, [r2]
  71:sources\asw/WatchDogTimer.c ****     
  72:sources\asw/WatchDogTimer.c ****     return RC_SUCCESS;
  73:sources\asw/WatchDogTimer.c **** }...
 139              		.loc 1 73 0
 140 000e 0020     		movs	r0, #0
 141 0010 7047     		bx	lr
 142              	.L14:
 143 0012 00BF     		.align	2
 144              	.L13:
 145 0014 00000000 		.word	.LANCHOR0
 146              		.cfi_endproc
 147              	.LFE114:
 148              		.size	WD_Alive, .-WD_Alive
 149              		.bss
 150              		.set	.LANCHOR0,. + 0
 151              		.type	WD_RunnableAliveBitField, %object
 152              		.size	WD_RunnableAliveBitField, 1
 153              	WD_RunnableAliveBitField:
 154 0000 00       		.space	1
 155              		.text
ARM GAS  C:\Users\Asus\AppData\Local\Temp\cceBP7pa.s 			page 5


 156              	.Letext0:
 157              		.file 2 ".\\sources\\bsw/global.h"
 158              		.file 3 "c:\\program files (x86)\\cypress\\psoc creator\\4.4\\psoc creator\\import\\gnu\\arm\\5.4.
 159              		.file 4 "c:\\program files (x86)\\cypress\\psoc creator\\4.4\\psoc creator\\import\\gnu\\arm\\5.4.
 160              		.file 5 "Generated_Source\\PSoC5/cytypes.h"
 161              		.file 6 "Generated_Source\\PSoC5/ErikaOS_1_common_ee_types.inc"
 162              		.file 7 "Generated_Source\\PSoC5/ErikaOS_1_cortex_mx_ee_cpu.inc"
 163              		.file 8 "sources\\asw\\WatchDogTimer.h"
 164              		.file 9 "Generated_Source\\PSoC5/CyLib.h"
 165              		.file 10 "Generated_Source\\PSoC5/ErikaOS_1_ee_oo_intfunc.inc"
 166              		.file 11 "Generated_Source\\PSoC5/ErikaOS_1_cortex_mx_ee_context.inc"
 167              		.file 12 "Generated_Source\\PSoC5/ErikaOS_1_common_ee_primitives.inc"
 168              		.file 13 "Generated_Source\\PSoC5/core_cm3.h"